 libvips-cpp

 Timestamp is 5a9c74b4 (Sun Mar  4 23:35:32 2018)

 Preferred load address is 0000000180000000

 Start         Length     Name                   Class
 0001:00000000 00000290H .text                   CODE
 0001:00000290 000340f0H .text$mn                CODE
 0001:00034380 00000020H .text$mn$00             CODE
 0001:000343a0 00000e80H .text$x                 CODE
 0001:00035220 00000003H .text$yd                CODE
 0002:00000000 000004e0H .idata$5                DATA
 0002:000004e0 00000010H .00cfg                  DATA
 0002:000004f0 00000008H .CRT$XCA                DATA
 0002:000004f8 00000008H .CRT$XCZ                DATA
 0002:00000500 00000008H .CRT$XIA                DATA
 0002:00000508 00000020H .CRT$XIC                DATA
 0002:00000528 00000008H .CRT$XIZ                DATA
 0002:00000530 00000008H .CRT$XLA                DATA
 0002:00000538 00000008H .CRT$XLZ                DATA
 0002:00000540 00000008H .CRT$XPA                DATA
 0002:00000548 00000010H .CRT$XPX                DATA
 0002:00000558 00000008H .CRT$XPXA               DATA
 0002:00000560 00000008H .CRT$XPZ                DATA
 0002:00000568 00000008H .CRT$XTA                DATA
 0002:00000570 00000010H .CRT$XTZ                DATA
 0002:00000580 0000c9f8H .rdata                  DATA
 0002:0000cf78 00000028H .rdata$T                DATA
 0002:0000cfa0 00000484H .rdata$r                DATA
 0002:0000d424 00000434H .rdata$zzzdbg           DATA
 0002:0000d858 00000008H .rtc$IAA                DATA
 0002:0000d860 00000008H .rtc$IZZ                DATA
 0002:0000d868 00000008H .rtc$TAA                DATA
 0002:0000d870 00000010H .rtc$TZZ                DATA
 0002:0000d880 00006208H .xdata                  DATA
 0002:00013a88 000002d8H .xdata$x                DATA
 0002:00013d60 00007420H .edata                  DATA
 0002:0001b180 00000050H .idata$2                DATA
 0002:0001b1d0 00000018H .idata$3                DATA
 0002:0001b1e8 000004e0H .idata$4                DATA
 0002:0001b6c8 00000cdcH .idata$6                DATA
 0002:0001c3a4 0000017cH .idata$7                DATA
 0003:00000000 000008e0H .data                   DATA
 0003:000008e0 000001c0H .data$r                 DATA
 0003:00000aa0 00001214H .bss                    DATA
 0004:00000000 000029a0H .pdata                  DATA
 0005:00000000 00000080H .gfids$x                DATA
 0005:00000080 00000068H .gfids$y                DATA
 0006:00000000 00000004H .tls                    DATA
 0006:00000004 00000004H .tls$                   DATA
 0006:00000008 00000001H .tls$ZZZ                DATA
 0007:00000000 00000060H .rsrc$01                DATA
 0007:00000060 00000180H .rsrc$02                DATA

  Address         Publics by Value              Rva+Base               Lib:Object

 0000:00000000       __dynamic_value_reloc_table 0000000000000000     <absolute>
 0000:00000000       __guard_iat_count          0000000000000000     <absolute>
 0000:00000000       __guard_iat_table          0000000000000000     <absolute>
 0000:00000000       __guard_fids_count         0000000000000000     <absolute>
 0000:00000000       __guard_longjmp_table      0000000000000000     <absolute>
 0000:00000000       __guard_longjmp_count      0000000000000000     <absolute>
 0000:00000000       ___safe_se_handler_table   0000000000000000     <absolute>
 0000:00000000       ___safe_se_handler_count   0000000000000000     <absolute>
 0000:00000000       __guard_fids_table         0000000000000000     <absolute>
 0000:00000100       __guard_flags              0000000000000100     <absolute>
 0000:00000000       __ImageBase                0000000180000000     <linker-defined>
 0001:00000000       vips_image_set_int         0000000180001000     libvips:dmrks01471.o
 0001:00000008       vips_image_new_from_memory 0000000180001008     libvips:dmrks01449.o
 0001:00000010       vips_image_set_string      0000000180001010     libvips:dmrks01474.o
 0001:00000018       vips_image_set_blob        0000000180001018     libvips:dmrks01468.o
 0001:00000020       vips_object_get_type       0000000180001020     libvips:dmrks01635.o
 0001:00000028       vips_image_get_xoffset     0000000180001028     libvips:dmrks01423.o
 0001:00000030       vips_image_get_width       0000000180001030     libvips:dmrks01422.o
 0001:00000038       vips_image_get_yres        0000000180001038     libvips:dmrks01426.o
 0001:00000040       vips_image_get_height      0000000180001040     libvips:dmrks01412.o
 0001:00000048       vips_image_new_memory      0000000180001048     libvips:dmrks01454.o
 0001:00000050       vips_image_get_filename    0000000180001050     libvips:dmrks01410.o
 0001:00000058       vips_image_get_string      0000000180001058     libvips:dmrks01419.o
 0001:00000060       vips_image_get_data        0000000180001060     libvips:dmrks01408.o
 0001:00000068       vips_image_guess_interpretation 0000000180001068     libvips:dmrks01428.o
 0001:00000070       vips_image_get_format      0000000180001070     libvips:dmrks01411.o
 0001:00000078       vips_image_get_xres        0000000180001078     libvips:dmrks01424.o
 0001:00000080       vips_image_get_interpretation 0000000180001080     libvips:dmrks01415.o
 0001:00000088       vips_image_write_to_memory 0000000180001088     libvips:dmrks01482.o
 0001:00000090       vips_image_get_bands       0000000180001090     libvips:dmrks01405.o
 0001:00000098       vips_image_get_typeof      0000000180001098     libvips:dmrks01421.o
 0001:000000a0       vips_image_new_matrix_from_array 00000001800010a0     libvips:dmrks01452.o
 0001:000000a8       vips_image_get_coding      00000001800010a8     libvips:dmrks01407.o
 0001:000000b0       vips_error_buffer          00000001800010b0     libvips:dmrks01185.o
 0001:000000b8       vips_image_new_temp_file   00000001800010b8     libvips:dmrks01456.o
 0001:000000c0       vips_image_get_blob        00000001800010c0     libvips:dmrks01406.o
 0001:000000c8       vips_image_get_double      00000001800010c8     libvips:dmrks01409.o
 0001:000000d0       vips_image_set_double      00000001800010d0     libvips:dmrks01470.o
 0001:000000d8       vips_image_get_int         00000001800010d8     libvips:dmrks01414.o
 0001:000000e0       vips_image_get_yoffset     00000001800010e0     libvips:dmrks01425.o
 0001:000000e8       vips_interpolate_new       00000001800010e8     libvips:dmrks01503.o
 0001:000000f0       vips_interpolate_get_type  00000001800010f0     libvips:dmrks01496.o
 0001:000000f8       vips_value_set_array_image 00000001800010f8     libvips:dmrks01930.o
 0001:00000100       vips_value_set_array_double 0000000180001100     libvips:dmrks01929.o
 0001:00000108       vips_foreign_find_load_buffer 0000000180001108     libvips:dmrks01230.o
 0001:00000110       vips_operation_new         0000000180001110     libvips:dmrks01674.o
 0001:00000118       vips_array_image_get_type  0000000180001118     libvips:dmrks00889.o
 0001:00000120       vips__filename_split8      0000000180001120     libvips:dmrks00701.o
 0001:00000128       vips_blob_new              0000000180001128     libvips:dmrks00940.o
 0001:00000130       vips_cache_operation_buildp 0000000180001130     libvips:dmrks00992.o
 0001:00000138       vips_blob_get_type         0000000180001138     libvips:dmrks00939.o
 0001:00000140       vips_enum_from_nick        0000000180001140     libvips:dmrks01175.o
 0001:00000148       vips_array_double_get_type 0000000180001148     libvips:dmrks00883.o
 0001:00000150       vips_format_sizeof_unsafe  0000000180001150     libvips:dmrks01307.o
 0001:00000158       vips_value_get_array_double 0000000180001158     libvips:dmrks01919.o
 0001:00000160       vips_image_new_matrix      0000000180001160     libvips:dmrks01451.o
 0001:00000168       vips_image_get_type        0000000180001168     libvips:dmrks01420.o
 0001:00000170       vips_object_unref_outputs  0000000180001170     libvips:dmrks01659.o
 0001:00000178       vips_foreign_find_save     0000000180001178     libvips:dmrks01231.o
 0001:00000180       vips_warn                  0000000180001180     libvips:dmrks01964.o
 0001:00000188       vips_error_clear           0000000180001188     libvips:dmrks01186.o
 0001:00000190       vips_object_set_from_string 0000000180001190     libvips:dmrks01652.o
 0001:00000198       vips_value_get_array_image 0000000180001198     libvips:dmrks01920.o
 0001:000001a0       vips_image_write           00000001800011a0     libvips:dmrks01477.o
 0001:000001a8       vips_area_unref            00000001800011a8     libvips:dmrks00870.o
 0001:000001b0       vips_foreign_find_save_buffer 00000001800011b0     libvips:dmrks01232.o
 0001:000001b8       vips_object_get_argument   00000001800011b8     libvips:dmrks01629.o
 0001:000001c0       vips_foreign_find_load     00000001800011c0     libvips:dmrks01229.o
 0001:000001d0       g_assertion_message_expr   00000001800011d0     libglib-2.0:dgoks00041.o
 0001:000001e0       g_object_ref               00000001800011e0     libgobject-2.0:dqoks00138.o
 0001:000001e8       g_object_unref             00000001800011e8     libgobject-2.0:dqoks00155.o
 0001:000001f0       g_type_check_instance_is_a 00000001800011f0     libgobject-2.0:dqoks00272.o
 0001:000001f8       g_value_init               00000001800011f8     libgobject-2.0:dqoks00381.o
 0001:00000200       g_value_set_object         0000000180001200     libgobject-2.0:dqoks00399.o
 0001:00000208       g_value_set_boolean        0000000180001208     libgobject-2.0:dqoks00386.o
 0001:00000210       g_value_get_string         0000000180001210     libgobject-2.0:dqoks00374.o
 0001:00000218       g_value_set_double         0000000180001218     libgobject-2.0:dqoks00390.o
 0001:00000220       g_value_set_string         0000000180001220     libgobject-2.0:dqoks00407.o
 0001:00000228       g_type_check_instance_cast 0000000180001228     libgobject-2.0:dqoks00271.o
 0001:00000230       g_value_get_boolean        0000000180001230     libgobject-2.0:dqoks00359.o
 0001:00000238       g_value_set_boxed          0000000180001238     libgobject-2.0:dqoks00387.o
 0001:00000240       g_value_get_object         0000000180001240     libgobject-2.0:dqoks00370.o
 0001:00000248       g_value_set_int            0000000180001248     libgobject-2.0:dqoks00396.o
 0001:00000250       g_value_dup_boxed          0000000180001250     libgobject-2.0:dqoks00353.o
 0001:00000258       g_value_get_int            0000000180001258     libgobject-2.0:dqoks00367.o
 0001:00000260       g_value_set_enum           0000000180001260     libgobject-2.0:dqoks00391.o
 0001:00000268       g_value_get_double         0000000180001268     libgobject-2.0:dqoks00362.o
 0001:00000270       g_object_get_property      0000000180001270     libgobject-2.0:dqoks00125.o
 0001:00000278       g_value_unset              0000000180001278     libgobject-2.0:dqoks00422.o
 0001:00000280       g_object_set_property      0000000180001280     libgobject-2.0:dqoks00148.o
 0001:00000290       ??0exception@stdext@@QEAA@AEBV01@@Z 0000000180001290 f i VError.obj
 0001:000002b0       ??1failure@ios_base@std@@UEAA@XZ 00000001800012b0 f i VError.obj
 0001:000002b0       ??1exception@stdext@@UEAA@XZ 00000001800012b0 f i VError.obj
 0001:000002c0       ?what@exception@stdext@@UEBAPEBDXZ 00000001800012c0 f i VError.obj
 0001:000002e0       ?_Raise@exception@stdext@@QEBAXXZ 00000001800012e0 f i VError.obj
 0001:00000320       _guard_check_icall_nop     0000000180001320 f i LIBCMT:guard_support.obj
 0001:00000320       ?_Doraise@exception@stdext@@MEBAXXZ 0000000180001320 f i VError.obj
 0001:00000320       __except_validate_context_record 0000000180001320 f i libvcruntime:jbcxrval.obj
 0001:00000330       ??_Gruntime_error@std@@UEAAPEAXI@Z 0000000180001330 f i VError.obj
 0001:00000330       ??_Eexception@stdext@@UEAAPEAXI@Z 0000000180001330 f i * CIL library *:* CIL module *
 0001:00000330       ??_Gexception@stdext@@UEAAPEAXI@Z 0000000180001330 f i VError.obj
 0001:00000330       ??_Eruntime_error@std@@UEAAPEAXI@Z 0000000180001330 f i * CIL library *:* CIL module *
 0001:00000360       ?_Doraise@runtime_error@std@@MEBAXXZ 0000000180001360 f i VError.obj
 0001:00000360       ?_Doraise@system_error@std@@MEBAXXZ 0000000180001360 f i VError.obj
 0001:00000360       ?_Doraise@failure@ios_base@std@@MEBAXXZ 0000000180001360 f i VError.obj
 0001:00000380       ??_Eerror_category@std@@UEAAPEAXI@Z 0000000180001380 f i * CIL library *:* CIL module *
 0001:00000380       ??_E_Iostream_error_category@std@@UEAAPEAXI@Z 0000000180001380 f i * CIL library *:* CIL module *
 0001:00000380       ??_Gerror_category@std@@UEAAPEAXI@Z 0000000180001380 f i VError.obj
 0001:00000380       ??_G_Iostream_error_category@std@@UEAAPEAXI@Z 0000000180001380 f i VError.obj
 0001:000003b0       ?message@error_code@std@@QEBA?AV?$basic_string@DU?$char_traits@D@std@@V?$allocator@D@2@@2@XZ 00000001800013b0 f i VError.obj
 0001:000003e0       ?default_error_condition@error_category@std@@UEBA?AVerror_condition@2@H@Z 00000001800013e0 f i VError.obj
 0001:000003f0       ?equivalent@error_category@std@@UEBA_NHAEBVerror_condition@2@@Z 00000001800013f0 f i VError.obj
 0001:00000430       ?equivalent@error_category@std@@UEBA_NAEBVerror_code@2@H@Z 0000000180001430 f i VError.obj
 0001:00000450       ?_Makestr@_System_error@std@@CA?AV?$basic_string@DU?$char_traits@D@std@@V?$allocator@D@2@@2@Verror_code@2@V32@@Z 0000000180001450 f i VError.obj
 0001:000005b0       ??_Gsystem_error@std@@UEAAPEAXI@Z 00000001800015b0 f i VError.obj
 0001:000005b0       ??_Efailure@ios_base@std@@UEAAPEAXI@Z 00000001800015b0 f i * CIL library *:* CIL module *
 0001:000005b0       ??_Esystem_error@std@@UEAAPEAXI@Z 00000001800015b0 f i * CIL library *:* CIL module *
 0001:000005b0       ??_E_System_error@std@@UEAAPEAXI@Z 00000001800015b0 f i * CIL library *:* CIL module *
 0001:000005b0       ??_Gfailure@ios_base@std@@UEAAPEAXI@Z 00000001800015b0 f i VError.obj
 0001:000005b0       ??_G_System_error@std@@UEAAPEAXI@Z 00000001800015b0 f i VError.obj
 0001:000005e0       ??0system_error@std@@QEAA@Verror_code@1@PEBD@Z 00000001800015e0 f i VError.obj
 0001:000007c0       ?message@_Generic_error_category@std@@UEBA?AV?$basic_string@DU?$char_traits@D@std@@V?$allocator@D@2@@2@H@Z 00000001800017c0 f i VError.obj
 0001:00000820       ?name@_Iostream_error_category@std@@UEBAPEBDXZ 0000000180001820 f i VError.obj
 0001:00000830       ?message@_Iostream_error_category@std@@UEBA?AV?$basic_string@DU?$char_traits@D@std@@V?$allocator@D@2@@2@H@Z 0000000180001830 f i VError.obj
 0001:00000880       ?clear@ios_base@std@@QEAAXH_N@Z 0000000180001880 f i VError.obj
 0001:00000980       ??0VError@vips@@QEAA@V?$basic_string@DU?$char_traits@D@std@@V?$allocator@D@2@@std@@@Z 0000000180001980 f i VError.obj
 0001:00000a10       ??0VError@vips@@QEAA@XZ    0000000180001a10 f i VError.obj
 0001:00000a80       ??1VError@vips@@UEAA@XZ    0000000180001a80 f i VError.obj
 0001:00000ab0       ?what@VError@vips@@UEBAPEBDXZ 0000000180001ab0 f i VError.obj
 0001:00000ac0       ??0VError@vips@@QEAA@AEBV01@@Z 0000000180001ac0 f i VError.obj
 0001:00000b30       ??4VError@vips@@QEAAAEAV01@AEBV01@@Z 0000000180001b30 f i VError.obj
 0001:00000b70       ??_EVError@vips@@UEAAPEAXI@Z 0000000180001b70 f i VError.obj
 0001:00000c10       ??0VObject@vips@@QEAA@PEAU_VipsObject@@W4VSteal@1@@Z 0000000180001c10 f i VError.obj
 0001:00000c90       ??4VObject@vips@@QEAAAEAV01@AEBV01@@Z 0000000180001c90 f i VError.obj
 0001:00000d60       ??0VOption@vips@@QEAA@XZ   0000000180001d60 f i VError.obj
 0001:00000dc0       ??0VOption@vips@@QEAA@AEBV01@@Z 0000000180001dc0 f i VError.obj
 0001:00000df0       ??4VOption@vips@@QEAAAEAV01@AEBV01@@Z 0000000180001df0 f i VError.obj
 0001:00000e20       ??_EVOption@vips@@UEAAPEAXI@Z 0000000180001e20 f i VError.obj
 0001:00000eb0       ??0VImage@vips@@QEAA@PEAU_VipsImage@@W4VSteal@1@@Z 0000000180001eb0 f i VError.obj
 0001:00000eb0       ??0VInterpolate@vips@@QEAA@PEAU_VipsInterpolate@@W4VSteal@1@@Z 0000000180001eb0 f i VError.obj
 0001:00000ed0       ??0VImage@vips@@QEAA@XZ    0000000180001ed0 f i VError.obj
 0001:00000ee0       ?get_image@VImage@vips@@QEAAPEAU_VipsImage@@XZ 0000000180001ee0 f i VError.obj
 0001:00000ee0       ?get_interpolate@VInterpolate@vips@@QEAAPEAU_VipsInterpolate@@XZ 0000000180001ee0 f i VError.obj
 0001:00000f40       ?width@VImage@vips@@QEAAHXZ 0000000180001f40 f i VError.obj
 0001:00000fa0       ?height@VImage@vips@@QEAAHXZ 0000000180001fa0 f i VError.obj
 0001:00001000       ?bands@VImage@vips@@QEAAHXZ 0000000180002000 f i VError.obj
 0001:00001060       ?format@VImage@vips@@QEAA?AW4VipsBandFormat@@XZ 0000000180002060 f i VError.obj
 0001:000010c0       ?coding@VImage@vips@@QEAA?AW4VipsCoding@@XZ 00000001800020c0 f i VError.obj
 0001:00001120       ?interpretation@VImage@vips@@QEAA?AW4VipsInterpretation@@XZ 0000000180002120 f i VError.obj
 0001:00001180       ?guess_interpretation@VImage@vips@@QEAA?AW4VipsInterpretation@@XZ 0000000180002180 f i VError.obj
 0001:000011e0       ?xres@VImage@vips@@QEAANXZ 00000001800021e0 f i VError.obj
 0001:00001240       ?yres@VImage@vips@@QEAANXZ 0000000180002240 f i VError.obj
 0001:000012a0       ?xoffset@VImage@vips@@QEAANXZ 00000001800022a0 f i VError.obj
 0001:00001300       ?yoffset@VImage@vips@@QEAANXZ 0000000180002300 f i VError.obj
 0001:00001360       ?filename@VImage@vips@@QEAAPEBDXZ 0000000180002360 f i VError.obj
 0001:000013c0       ?data@VImage@vips@@QEAAPEBXXZ 00000001800023c0 f i VError.obj
 0001:00001420       ?set@VImage@vips@@QEAAXPEBDH@Z 0000000180002420 f i VError.obj
 0001:000014a0       ?set@VImage@vips@@QEAAXPEBDN@Z 00000001800024a0 f i VError.obj
 0001:00001520       ?set@VImage@vips@@QEAAXPEBD0@Z 0000000180002520 f i VError.obj
 0001:000015a0       ?set@VImage@vips@@QEAAXPEBDP6AHPEAX1@Z1_K@Z 00000001800025a0 f i VError.obj
 0001:00001630       ?get_typeof@VImage@vips@@QEAA_KPEBD@Z 0000000180002630 f i VError.obj
 0001:000016a0       ?get_int@VImage@vips@@QEAAHPEBD@Z 00000001800026a0 f i VError.obj
 0001:000017b0       ?get_double@VImage@vips@@QEAANPEBD@Z 00000001800027b0 f i VError.obj
 0001:000018c0       ?get_string@VImage@vips@@QEAAPEBDPEBD@Z 00000001800028c0 f i VError.obj
 0001:000019d0       ?get_blob@VImage@vips@@QEAAPEBXPEBDPEA_K@Z 00000001800029d0 f i VError.obj
 0001:00001ae0       ?option@VImage@vips@@SAPEAVVOption@2@XZ 0000000180002ae0 f i VError.obj
 0001:00001b50       ?new_memory@VImage@vips@@SA?AV12@XZ 0000000180002b50 f i VError.obj
 0001:00001b80       ?new_temp_file@VImage@vips@@SA?AV12@PEBD@Z 0000000180002b80 f i VError.obj
 0001:00001c50       ?new_from_memory@VImage@vips@@SA?AV12@PEAX_KHHHW4VipsBandFormat@@@Z 0000000180002c50 f i VError.obj
 0001:00001d50       ?new_matrix@VImage@vips@@SA?AV12@HHPEANH@Z 0000000180002d50 f i VError.obj
 0001:00001e30       ?write_to_memory@VImage@vips@@QEAAPEAXPEA_K@Z 0000000180002e30 f i VError.obj
 0001:00001f40       ?linear@VImage@vips@@QEAA?AV12@NNPEAVVOption@2@@Z 0000000180002f40 f i VError.obj
 0001:00001fe0       ?linear@VImage@vips@@QEAA?AV12@V?$vector@NV?$allocator@N@std@@@std@@NPEAVVOption@2@@Z 0000000180002fe0 f i VError.obj
 0001:00002110       ?linear@VImage@vips@@QEAA?AV12@NV?$vector@NV?$allocator@N@std@@@std@@PEAVVOption@2@@Z 0000000180003110 f i VError.obj
 0001:00002250       ?bandjoin@VImage@vips@@QEAA?AV12@NPEAVVOption@2@@Z 0000000180003250 f i VError.obj
 0001:000022b0       ?bandjoin@VImage@vips@@QEAA?AV12@V?$vector@NV?$allocator@N@std@@@std@@PEAVVOption@2@@Z 00000001800032b0 f i VError.obj
 0001:000023c0       ?fliphor@VImage@vips@@QEAA?AV12@PEAVVOption@2@@Z 00000001800033c0 f i VError.obj
 0001:000023f0       ?flipver@VImage@vips@@QEAA?AV12@PEAVVOption@2@@Z 00000001800033f0 f i VError.obj
 0001:00002420       ?rot90@VImage@vips@@QEAA?AV12@PEAVVOption@2@@Z 0000000180003420 f i VError.obj
 0001:00002450       ?rot180@VImage@vips@@QEAA?AV12@PEAVVOption@2@@Z 0000000180003450 f i VError.obj
 0001:00002480       ?rot270@VImage@vips@@QEAA?AV12@PEAVVOption@2@@Z 0000000180003480 f i VError.obj
 0001:000024b0       ?dilate@VImage@vips@@QEAA?AV12@V12@PEAVVOption@2@@Z 00000001800034b0 f i VError.obj
 0001:000025b0       ?erode@VImage@vips@@QEAA?AV12@V12@PEAVVOption@2@@Z 00000001800035b0 f i VError.obj
 0001:000026b0       ?median@VImage@vips@@QEAA?AV12@HPEAVVOption@2@@Z 00000001800036b0 f i VError.obj
 0001:000026f0       ?floor@VImage@vips@@QEAA?AV12@PEAVVOption@2@@Z 00000001800036f0 f i VError.obj
 0001:00002720       ?ceil@VImage@vips@@QEAA?AV12@PEAVVOption@2@@Z 0000000180003720 f i VError.obj
 0001:00002750       ?rint@VImage@vips@@QEAA?AV12@PEAVVOption@2@@Z 0000000180003750 f i VError.obj
 0001:00002780       ?real@VImage@vips@@QEAA?AV12@PEAVVOption@2@@Z 0000000180003780 f i VError.obj
 0001:000027b0       ?imag@VImage@vips@@QEAA?AV12@PEAVVOption@2@@Z 00000001800037b0 f i VError.obj
 0001:000027e0       ?polar@VImage@vips@@QEAA?AV12@PEAVVOption@2@@Z 00000001800037e0 f i VError.obj
 0001:00002810       ?rect@VImage@vips@@QEAA?AV12@PEAVVOption@2@@Z 0000000180003810 f i VError.obj
 0001:00002840       ?conj@VImage@vips@@QEAA?AV12@PEAVVOption@2@@Z 0000000180003840 f i VError.obj
 0001:00002870       ?sin@VImage@vips@@QEAA?AV12@PEAVVOption@2@@Z 0000000180003870 f i VError.obj
 0001:000028a0       ?cos@VImage@vips@@QEAA?AV12@PEAVVOption@2@@Z 00000001800038a0 f i VError.obj
 0001:000028d0       ?tan@VImage@vips@@QEAA?AV12@PEAVVOption@2@@Z 00000001800038d0 f i VError.obj
 0001:00002900       ?asin@VImage@vips@@QEAA?AV12@PEAVVOption@2@@Z 0000000180003900 f i VError.obj
 0001:00002930       ?acos@VImage@vips@@QEAA?AV12@PEAVVOption@2@@Z 0000000180003930 f i VError.obj
 0001:00002960       ?atan@VImage@vips@@QEAA?AV12@PEAVVOption@2@@Z 0000000180003960 f i VError.obj
 0001:00002990       ?log@VImage@vips@@QEAA?AV12@PEAVVOption@2@@Z 0000000180003990 f i VError.obj
 0001:000029c0       ?log10@VImage@vips@@QEAA?AV12@PEAVVOption@2@@Z 00000001800039c0 f i VError.obj
 0001:000029f0       ?exp@VImage@vips@@QEAA?AV12@PEAVVOption@2@@Z 00000001800039f0 f i VError.obj
 0001:00002a20       ?exp10@VImage@vips@@QEAA?AV12@PEAVVOption@2@@Z 0000000180003a20 f i VError.obj
 0001:00002a50       ?pow@VImage@vips@@QEAA?AV12@V12@PEAVVOption@2@@Z 0000000180003a50 f i VError.obj
 0001:00002b50       ?pow@VImage@vips@@QEAA?AV12@NPEAVVOption@2@@Z 0000000180003b50 f i VError.obj
 0001:00002bb0       ?pow@VImage@vips@@QEAA?AV12@V?$vector@NV?$allocator@N@std@@@std@@PEAVVOption@2@@Z 0000000180003bb0 f i VError.obj
 0001:00002cc0       ?wop@VImage@vips@@QEAA?AV12@V12@PEAVVOption@2@@Z 0000000180003cc0 f i VError.obj
 0001:00002dc0       ?wop@VImage@vips@@QEAA?AV12@NPEAVVOption@2@@Z 0000000180003dc0 f i VError.obj
 0001:00002e20       ?wop@VImage@vips@@QEAA?AV12@V?$vector@NV?$allocator@N@std@@@std@@PEAVVOption@2@@Z 0000000180003e20 f i VError.obj
 0001:00002f30       ?ifthenelse@VImage@vips@@QEAA?AV12@V?$vector@NV?$allocator@N@std@@@std@@V12@PEAVVOption@2@@Z 0000000180003f30 f i VError.obj
 0001:00003100       ?ifthenelse@VImage@vips@@QEAA?AV12@V12@V?$vector@NV?$allocator@N@std@@@std@@PEAVVOption@2@@Z 0000000180004100 f i VError.obj
 0001:000032c0       ?ifthenelse@VImage@vips@@QEAA?AV12@V?$vector@NV?$allocator@N@std@@@std@@0PEAVVOption@2@@Z 00000001800042c0 f i VError.obj
 0001:00003490       ?ifthenelse@VImage@vips@@QEAA?AV12@NV12@PEAVVOption@2@@Z 0000000180004490 f i VError.obj
 0001:000035c0       ?ifthenelse@VImage@vips@@QEAA?AV12@V12@NPEAVVOption@2@@Z 00000001800045c0 f i VError.obj
 0001:000036e0       ?ifthenelse@VImage@vips@@QEAA?AV12@NNPEAVVOption@2@@Z 00000001800046e0 f i VError.obj
 0001:00003780       ??1VImage@vips@@QEAA@XZ    0000000180004780 f i VError.obj
 0001:00003780       ??1VInterpolate@vips@@QEAA@XZ 0000000180004780 f i VError.obj
 0001:000037f0       ??0VInterpolate@vips@@QEAA@$$QEAV01@@Z 00000001800047f0 f i VError.obj
 0001:000037f0       ??0VImage@vips@@QEAA@$$QEAV01@@Z 00000001800047f0 f i VError.obj
 0001:000037f0       ??0VInterpolate@vips@@QEAA@AEBV01@@Z 00000001800047f0 f i VError.obj
 0001:000037f0       ??0VImage@vips@@QEAA@AEBV01@@Z 00000001800047f0 f i VError.obj
 0001:00003860       ??4VInterpolate@vips@@QEAAAEAV01@AEBV01@@Z 0000000180004860 f i VError.obj
 0001:00003860       ??4VInterpolate@vips@@QEAAAEAV01@$$QEAV01@@Z 0000000180004860 f i VError.obj
 0001:00003860       ??4VImage@vips@@QEAAAEAV01@$$QEAV01@@Z 0000000180004860 f i VError.obj
 0001:00003860       ??4VImage@vips@@QEAAAEAV01@AEBV01@@Z 0000000180004860 f i VError.obj
 0001:00003880       ?ostream_print@VError@vips@@QEBAXAEAV?$basic_ostream@DU?$char_traits@D@std@@@std@@@Z 0000000180004880 f   VError.obj
 0001:00003890       ??0?$list@PEAUPair@VOption@vips@@V?$allocator@PEAUPair@VOption@vips@@@std@@@std@@QEAA@AEBV01@@Z 0000000180004890 f i VError.obj
 0001:00003920       ??1?$vector@NV?$allocator@N@std@@@std@@QEAA@XZ 0000000180004920 f i VError.obj
 0001:00003960       ??1?$basic_string@DU?$char_traits@D@std@@V?$allocator@D@2@@std@@QEAA@XZ 0000000180004960 f i VError.obj
 0001:000039f0       ??1?$_List_buy@PEAUPair@VOption@vips@@V?$allocator@PEAUPair@VOption@vips@@@std@@@std@@QEAA@XZ 00000001800049f0 f i VError.obj
 0001:00003a00       ?assign@?$basic_string@DU?$char_traits@D@std@@V?$allocator@D@2@@std@@QEAAAEAV12@PEBD_K@Z 0000000180004a00 f i VError.obj
 0001:00003b30       ?assign@?$basic_string@DU?$char_traits@D@std@@V?$allocator@D@2@@std@@QEAAAEAV12@AEBV12@_K1@Z 0000000180004b30 f i VError.obj
 0001:00003c60       ?append@?$basic_string@DU?$char_traits@D@std@@V?$allocator@D@2@@std@@QEAAAEAV12@PEBD_K@Z 0000000180004c60 f i VError.obj
 0001:00003db0       ?append@?$basic_string@DU?$char_traits@D@std@@V?$allocator@D@2@@std@@QEAAAEAV12@AEBV12@_K1@Z 0000000180004db0 f i VError.obj
 0001:00003ee0       ?deallocate@?$_Wrap_alloc@V?$allocator@VVImage@vips@@@std@@@std@@QEAAXPEAVVImage@vips@@_K@Z 0000000180004ee0 f i VImage.obj
 0001:00003ee0       ?deallocate@?$_Wrap_alloc@V?$allocator@N@std@@@std@@QEAAXPEAN_K@Z 0000000180004ee0 f i VError.obj
 0001:00003f50       ?allocate@?$_Wrap_alloc@V?$allocator@VVImage@vips@@@std@@@std@@QEAAPEAVVImage@vips@@_K@Z 0000000180004f50 f i VImage.obj
 0001:00003f50       ?allocate@?$_Wrap_alloc@V?$allocator@N@std@@@std@@QEAAPEAN_K@Z 0000000180004f50 f i VError.obj
 0001:00003fc0       ?erase@?$basic_string@DU?$char_traits@D@std@@V?$allocator@D@2@@std@@QEAAAEAV12@_K0@Z 0000000180004fc0 f i VError.obj
 0001:00004060       ?_Copy@?$basic_string@DU?$char_traits@D@std@@V?$allocator@D@2@@std@@QEAAX_K0@Z 0000000180005060 f i VError.obj
 0001:000041e0       ??$_Immortalize@V_Iostream_error_category@std@@@std@@YAAEAV_Iostream_error_category@0@XZ 00000001800051e0 f i VError.obj
 0001:00004260       ??$?6DU?$char_traits@D@std@@V?$allocator@D@1@@std@@YAAEAV?$basic_ostream@DU?$char_traits@D@std@@@0@AEAV10@AEBV?$basic_string@DU?$char_traits@D@std@@V?$allocator@D@2@@0@@Z 0000000180005260 f i VError.obj
 0001:000044c0       ??$assign@V?$_List_const_iterator@V?$_List_val@U?$_List_simple_types@PEAUPair@VOption@vips@@@std@@@std@@@std@@@?$list@PEAUPair@VOption@vips@@V?$allocator@PEAUPair@VOption@vips@@@std@@@std@@QEAAXV?$_List_const_iterator@V?$_List_val@U?$_List_simple_types@PEAUPair@VOption@vips@@@std@@@std@@@1@0@Z 00000001800054c0 f i VError.obj
 0001:000045d0       ??1sentry@?$basic_ostream@DU?$char_traits@D@std@@@std@@QEAA@XZ 00000001800055d0 f i VError.obj
 0001:00004650       ??0sentry@?$basic_ostream@DU?$char_traits@D@std@@@std@@QEAA@AEAV12@@Z 0000000180005650 f i VError.obj
 0001:000046d0       ??1_Sentry_base@?$basic_ostream@DU?$char_traits@D@std@@@std@@QEAA@XZ 00000001800056d0 f i VError.obj
 0001:000046f0       ?flush@?$basic_ostream@DU?$char_traits@D@std@@@std@@QEAAAEAV12@XZ 00000001800056f0 f i VError.obj
 0001:000047e0       ??$_Insert@AEBQEAUPair@VOption@vips@@@?$list@PEAUPair@VOption@vips@@V?$allocator@PEAUPair@VOption@vips@@@std@@@std@@QEAAXV?$_List_unchecked_const_iterator@V?$_List_val@U?$_List_simple_types@PEAUPair@VOption@vips@@@std@@@std@@U_Iterator_base0@2@@1@AEBQEAUPair@VOption@vips@@@Z 00000001800057e0 f i VError.obj
 0001:00004890       ?new_from_name@VInterpolate@vips@@SA?AV12@PEBDPEAVVOption@2@@Z 0000000180005890 f   VInterpolate.obj
 0001:00004990       ?set@VOption@vips@@QEAAPEAV12@PEBDVVInterpolate@2@@Z 0000000180005990 f   VInterpolate.obj
 0001:00004ab0       ?to_vectorv@vips@@YA?AV?$vector@NV?$allocator@N@std@@@std@@HZZ 0000000180005ab0 f   VImage.obj
 0001:00004b20       ?to_vector@vips@@YA?AV?$vector@NV?$allocator@N@std@@@std@@N@Z 0000000180005b20 f   VImage.obj
 0001:00004b50       ?to_vector@vips@@YA?AV?$vector@NV?$allocator@N@std@@@std@@HQEAN@Z 0000000180005b50 f   VImage.obj
 0001:00004c40       ?negate@vips@@YA?AV?$vector@NV?$allocator@N@std@@@std@@V23@@Z 0000000180005c40 f   VImage.obj
 0001:00004d00       ?invert@vips@@YA?AV?$vector@NV?$allocator@N@std@@@std@@V23@@Z 0000000180005d00 f   VImage.obj
 0001:00004dc0       ??1VOption@vips@@UEAA@XZ   0000000180005dc0 f   VImage.obj
 0001:00004e70       ?set@VOption@vips@@QEAAPEAV12@PEBD_N@Z 0000000180005e70 f   VImage.obj
 0001:00004f00       ?set@VOption@vips@@QEAAPEAV12@PEBDH@Z 0000000180005f00 f   VImage.obj
 0001:00004f90       ?set@VOption@vips@@QEAAPEAV12@PEBDN@Z 0000000180005f90 f   VImage.obj
 0001:00005020       ?set@VOption@vips@@QEAAPEAV12@PEBD0@Z 0000000180006020 f   VImage.obj
 0001:000050b0       ?set@VOption@vips@@QEAAPEAV12@PEBDVVImage@2@@Z 00000001800060b0 f   VImage.obj
 0001:000051d0       ?set@VOption@vips@@QEAAPEAV12@PEBDV?$vector@NV?$allocator@N@std@@@std@@@Z 00000001800061d0 f   VImage.obj
 0001:000052e0       ?set@VOption@vips@@QEAAPEAV12@PEBDV?$vector@VVImage@vips@@V?$allocator@VVImage@vips@@@std@@@std@@@Z 00000001800062e0 f   VImage.obj
 0001:00005470       ?set@VOption@vips@@QEAAPEAV12@PEBDPEAU_VipsBlob@@@Z 0000000180006470 f   VImage.obj
 0001:00005500       ?set@VOption@vips@@QEAAPEAV12@PEBDPEA_N@Z 0000000180006500 f   VImage.obj
 0001:00005590       ?set@VOption@vips@@QEAAPEAV12@PEBDPEAH@Z 0000000180006590 f   VImage.obj
 0001:00005620       ?set@VOption@vips@@QEAAPEAV12@PEBDPEAN@Z 0000000180006620 f   VImage.obj
 0001:000056b0       ?set@VOption@vips@@QEAAPEAV12@PEBDPEAVVImage@2@@Z 00000001800066b0 f   VImage.obj
 0001:00005740       ?set@VOption@vips@@QEAAPEAV12@PEBDPEAV?$vector@NV?$allocator@N@std@@@std@@@Z 0000000180006740 f   VImage.obj
 0001:000057d0       ?set@VOption@vips@@QEAAPEAV12@PEBDPEAPEAU_VipsBlob@@@Z 00000001800067d0 f   VImage.obj
 0001:000059b0       ?set_operation@VOption@vips@@QEAAXPEAU_VipsOperation@@@Z 00000001800069b0 f   VImage.obj
 0001:00005a30       ?get_operation@VOption@vips@@QEAAXPEAU_VipsOperation@@@Z 0000000180006a30 f   VImage.obj
 0001:00005c50       ?call_option_string@VImage@vips@@SAXPEBD0PEAVVOption@2@@Z 0000000180006c50 f   VImage.obj
 0001:00005ec0       ?call@VImage@vips@@SAXPEBDPEAVVOption@2@@Z 0000000180006ec0 f   VImage.obj
 0001:00005ed0       ?new_from_file@VImage@vips@@SA?AV12@PEBDPEAVVOption@2@@Z 0000000180006ed0 f   VImage.obj
 0001:000060c0       ?new_from_buffer@VImage@vips@@SA?AV12@PEAX_KPEBDPEAVVOption@2@@Z 00000001800070c0 f   VImage.obj
 0001:00006270       ?new_from_image@VImage@vips@@QEAA?AV12@V?$vector@NV?$allocator@N@std@@@std@@@Z 0000000180007270 f   VImage.obj
 0001:00006aa0       ?new_from_image@VImage@vips@@QEAA?AV12@N@Z 0000000180007aa0 f   VImage.obj
 0001:00006af0       ?new_matrix@VImage@vips@@SA?AV12@HH@Z 0000000180007af0 f   VImage.obj
 0001:00006b20       ?new_matrixv@VImage@vips@@SA?AV12@HHZZ 0000000180007b20 f   VImage.obj
 0001:00006c50       ?write@VImage@vips@@QEAA?AV12@V12@@Z 0000000180007c50 f   VImage.obj
 0001:00006e50       ?write_to_file@VImage@vips@@QEAAXPEBDPEAVVOption@2@@Z 0000000180007e50 f   VImage.obj
 0001:00007040       ?write_to_buffer@VImage@vips@@QEAAXPEBDPEAPEAXPEA_KPEAVVOption@2@@Z 0000000180008040 f   VImage.obj
 0001:00007270       ?system@VImage@vips@@SAXPEADPEAVVOption@2@@Z 0000000180008270 f   VImage.obj
 0001:00007320       ?add@VImage@vips@@QEAA?AV12@V12@PEAVVOption@2@@Z 0000000180008320 f   VImage.obj
 0001:00007520       ?subtract@VImage@vips@@QEAA?AV12@V12@PEAVVOption@2@@Z 0000000180008520 f   VImage.obj
 0001:00007720       ?multiply@VImage@vips@@QEAA?AV12@V12@PEAVVOption@2@@Z 0000000180008720 f   VImage.obj
 0001:00007920       ?divide@VImage@vips@@QEAA?AV12@V12@PEAVVOption@2@@Z 0000000180008920 f   VImage.obj
 0001:00007b20       ?relational@VImage@vips@@QEAA?AV12@V12@W4VipsOperationRelational@@PEAVVOption@2@@Z 0000000180008b20 f   VImage.obj
 0001:00007d90       ?remainder@VImage@vips@@QEAA?AV12@V12@PEAVVOption@2@@Z 0000000180008d90 f   VImage.obj
 0001:00007f90       ?boolean@VImage@vips@@QEAA?AV12@V12@W4VipsOperationBoolean@@PEAVVOption@2@@Z 0000000180008f90 f   VImage.obj
 0001:00008200       ?math2@VImage@vips@@QEAA?AV12@V12@W4VipsOperationMath2@@PEAVVOption@2@@Z 0000000180009200 f   VImage.obj
 0001:00008470       ?complex2@VImage@vips@@QEAA?AV12@V12@W4VipsOperationComplex2@@PEAVVOption@2@@Z 0000000180009470 f   VImage.obj
 0001:000086e0       ?complexform@VImage@vips@@QEAA?AV12@V12@PEAVVOption@2@@Z 00000001800096e0 f   VImage.obj
 0001:000088e0       ?sum@VImage@vips@@SA?AV12@V?$vector@VVImage@vips@@V?$allocator@VVImage@vips@@@std@@@std@@PEAVVOption@2@@Z 00000001800098e0 f   VImage.obj
 0001:00008a60       ?invert@VImage@vips@@QEAA?AV12@PEAVVOption@2@@Z 0000000180009a60 f   VImage.obj
 0001:00008b90       ?linear@VImage@vips@@QEAA?AV12@V?$vector@NV?$allocator@N@std@@@std@@0PEAVVOption@2@@Z 0000000180009b90 f   VImage.obj
 0001:00008e40       ?math@VImage@vips@@QEAA?AV12@W4VipsOperationMath@@PEAVVOption@2@@Z 0000000180009e40 f   VImage.obj
 0001:00008ff0       ?abs@VImage@vips@@QEAA?AV12@PEAVVOption@2@@Z 0000000180009ff0 f   VImage.obj
 0001:00009120       ?sign@VImage@vips@@QEAA?AV12@PEAVVOption@2@@Z 000000018000a120 f   VImage.obj
 0001:00009250       ?round@VImage@vips@@QEAA?AV12@W4VipsOperationRound@@PEAVVOption@2@@Z 000000018000a250 f   VImage.obj
 0001:00009400       ?relational_const@VImage@vips@@QEAA?AV12@V?$vector@NV?$allocator@N@std@@@std@@W4VipsOperationRelational@@PEAVVOption@2@@Z 000000018000a400 f   VImage.obj
 0001:00009680       ?remainder_const@VImage@vips@@QEAA?AV12@V?$vector@NV?$allocator@N@std@@@std@@PEAVVOption@2@@Z 000000018000a680 f   VImage.obj
 0001:00009880       ?boolean_const@VImage@vips@@QEAA?AV12@V?$vector@NV?$allocator@N@std@@@std@@W4VipsOperationBoolean@@PEAVVOption@2@@Z 000000018000a880 f   VImage.obj
 0001:00009b00       ?math2_const@VImage@vips@@QEAA?AV12@V?$vector@NV?$allocator@N@std@@@std@@W4VipsOperationMath2@@PEAVVOption@2@@Z 000000018000ab00 f   VImage.obj
 0001:00009d80       ?complex@VImage@vips@@QEAA?AV12@W4VipsOperationComplex@@PEAVVOption@2@@Z 000000018000ad80 f   VImage.obj
 0001:00009f30       ?complexget@VImage@vips@@QEAA?AV12@W4VipsOperationComplexget@@PEAVVOption@2@@Z 000000018000af30 f   VImage.obj
 0001:0000a0e0       ?avg@VImage@vips@@QEAANPEAVVOption@2@@Z 000000018000b0e0 f   VImage.obj
 0001:0000a1f0       ?min@VImage@vips@@QEAANPEAVVOption@2@@Z 000000018000b1f0 f   VImage.obj
 0001:0000a300       ?max@VImage@vips@@QEAANPEAVVOption@2@@Z 000000018000b300 f   VImage.obj
 0001:0000a410       ?deviate@VImage@vips@@QEAANPEAVVOption@2@@Z 000000018000b410 f   VImage.obj
 0001:0000a520       ?stats@VImage@vips@@QEAA?AV12@PEAVVOption@2@@Z 000000018000b520 f   VImage.obj
 0001:0000a650       ?hist_find@VImage@vips@@QEAA?AV12@PEAVVOption@2@@Z 000000018000b650 f   VImage.obj
 0001:0000a780       ?hist_find_ndim@VImage@vips@@QEAA?AV12@PEAVVOption@2@@Z 000000018000b780 f   VImage.obj
 0001:0000a8b0       ?hist_find_indexed@VImage@vips@@QEAA?AV12@V12@PEAVVOption@2@@Z 000000018000b8b0 f   VImage.obj
 0001:0000aab0       ?hough_line@VImage@vips@@QEAA?AV12@PEAVVOption@2@@Z 000000018000bab0 f   VImage.obj
 0001:0000abe0       ?hough_circle@VImage@vips@@QEAA?AV12@PEAVVOption@2@@Z 000000018000bbe0 f   VImage.obj
 0001:0000ad10       ?project@VImage@vips@@QEAA?AV12@PEAV12@PEAVVOption@2@@Z 000000018000bd10 f   VImage.obj
 0001:0000aeb0       ?profile@VImage@vips@@QEAA?AV12@PEAV12@PEAVVOption@2@@Z 000000018000beb0 f   VImage.obj
 0001:0000b050       ?measure@VImage@vips@@QEAA?AV12@HHPEAVVOption@2@@Z 000000018000c050 f   VImage.obj
 0001:0000b280       ?getpoint@VImage@vips@@QEAA?AV?$vector@NV?$allocator@N@std@@@std@@HHPEAVVOption@2@@Z 000000018000c280 f   VImage.obj
 0001:0000b4b0       ?copy@VImage@vips@@QEAA?AV12@PEAVVOption@2@@Z 000000018000c4b0 f   VImage.obj
 0001:0000b5e0       ?tilecache@VImage@vips@@QEAA?AV12@PEAVVOption@2@@Z 000000018000c5e0 f   VImage.obj
 0001:0000b710       ?linecache@VImage@vips@@QEAA?AV12@PEAVVOption@2@@Z 000000018000c710 f   VImage.obj
 0001:0000b840       ?sequential@VImage@vips@@QEAA?AV12@PEAVVOption@2@@Z 000000018000c840 f   VImage.obj
 0001:0000b970       ?cache@VImage@vips@@QEAA?AV12@PEAVVOption@2@@Z 000000018000c970 f   VImage.obj
 0001:0000baa0       ?embed@VImage@vips@@QEAA?AV12@HHHHPEAVVOption@2@@Z 000000018000caa0 f   VImage.obj
 0001:0000bdb0       ?flip@VImage@vips@@QEAA?AV12@W4VipsDirection@@PEAVVOption@2@@Z 000000018000cdb0 f   VImage.obj
 0001:0000bf60       ?insert@VImage@vips@@QEAA?AV12@V12@HHPEAVVOption@2@@Z 000000018000cf60 f   VImage.obj
 0001:0000c240       ?join@VImage@vips@@QEAA?AV12@V12@W4VipsDirection@@PEAVVOption@2@@Z 000000018000d240 f   VImage.obj
 0001:0000c4b0       ?arrayjoin@VImage@vips@@SA?AV12@V?$vector@VVImage@vips@@V?$allocator@VVImage@vips@@@std@@@std@@PEAVVOption@2@@Z 000000018000d4b0 f   VImage.obj
 0001:0000c630       ?extract_area@VImage@vips@@QEAA?AV12@HHHHPEAVVOption@2@@Z 000000018000d630 f   VImage.obj
 0001:0000c940       ?extract_band@VImage@vips@@QEAA?AV12@HPEAVVOption@2@@Z 000000018000d940 f   VImage.obj
 0001:0000caf0       ?bandjoin@VImage@vips@@SA?AV12@V?$vector@VVImage@vips@@V?$allocator@VVImage@vips@@@std@@@std@@PEAVVOption@2@@Z 000000018000daf0 f   VImage.obj
 0001:0000cc70       ?bandjoin_const@VImage@vips@@QEAA?AV12@V?$vector@NV?$allocator@N@std@@@std@@PEAVVOption@2@@Z 000000018000dc70 f   VImage.obj
 0001:0000ce70       ?bandrank@VImage@vips@@SA?AV12@V?$vector@VVImage@vips@@V?$allocator@VVImage@vips@@@std@@@std@@PEAVVOption@2@@Z 000000018000de70 f   VImage.obj
 0001:0000cff0       ?bandmean@VImage@vips@@QEAA?AV12@PEAVVOption@2@@Z 000000018000dff0 f   VImage.obj
 0001:0000d120       ?bandbool@VImage@vips@@QEAA?AV12@W4VipsOperationBoolean@@PEAVVOption@2@@Z 000000018000e120 f   VImage.obj
 0001:0000d2d0       ?replicate@VImage@vips@@QEAA?AV12@HHPEAVVOption@2@@Z 000000018000e2d0 f   VImage.obj
 0001:0000d500       ?cast@VImage@vips@@QEAA?AV12@W4VipsBandFormat@@PEAVVOption@2@@Z 000000018000e500 f   VImage.obj
 0001:0000d6b0       ?rot@VImage@vips@@QEAA?AV12@W4VipsAngle@@PEAVVOption@2@@Z 000000018000e6b0 f   VImage.obj
 0001:0000d860       ?rot45@VImage@vips@@QEAA?AV12@PEAVVOption@2@@Z 000000018000e860 f   VImage.obj
 0001:0000d990       ?autorot@VImage@vips@@QEAA?AV12@PEAVVOption@2@@Z 000000018000e990 f   VImage.obj
 0001:0000dac0       ?ifthenelse@VImage@vips@@QEAA?AV12@V12@0PEAVVOption@2@@Z 000000018000eac0 f   VImage.obj
 0001:0000dd70       ?recomb@VImage@vips@@QEAA?AV12@V12@PEAVVOption@2@@Z 000000018000ed70 f   VImage.obj
 0001:0000df70       ?bandfold@VImage@vips@@QEAA?AV12@PEAVVOption@2@@Z 000000018000ef70 f   VImage.obj
 0001:0000e0a0       ?bandunfold@VImage@vips@@QEAA?AV12@PEAVVOption@2@@Z 000000018000f0a0 f   VImage.obj
 0001:0000e1d0       ?flatten@VImage@vips@@QEAA?AV12@PEAVVOption@2@@Z 000000018000f1d0 f   VImage.obj
 0001:0000e300       ?premultiply@VImage@vips@@QEAA?AV12@PEAVVOption@2@@Z 000000018000f300 f   VImage.obj
 0001:0000e430       ?unpremultiply@VImage@vips@@QEAA?AV12@PEAVVOption@2@@Z 000000018000f430 f   VImage.obj
 0001:0000e560       ?grid@VImage@vips@@QEAA?AV12@HHHPEAVVOption@2@@Z 000000018000f560 f   VImage.obj
 0001:0000e810       ?scale@VImage@vips@@QEAA?AV12@PEAVVOption@2@@Z 000000018000f810 f   VImage.obj
 0001:0000e940       ?wrap@VImage@vips@@QEAA?AV12@PEAVVOption@2@@Z 000000018000f940 f   VImage.obj
 0001:0000ea70       ?zoom@VImage@vips@@QEAA?AV12@HHPEAVVOption@2@@Z 000000018000fa70 f   VImage.obj
 0001:0000eca0       ?subsample@VImage@vips@@QEAA?AV12@HHPEAVVOption@2@@Z 000000018000fca0 f   VImage.obj
 0001:0000eed0       ?msb@VImage@vips@@QEAA?AV12@PEAVVOption@2@@Z 000000018000fed0 f   VImage.obj
 0001:0000f000       ?byteswap@VImage@vips@@QEAA?AV12@PEAVVOption@2@@Z 0000000180010000 f   VImage.obj
 0001:0000f130       ?falsecolour@VImage@vips@@QEAA?AV12@PEAVVOption@2@@Z 0000000180010130 f   VImage.obj
 0001:0000f260       ?gamma@VImage@vips@@QEAA?AV12@PEAVVOption@2@@Z 0000000180010260 f   VImage.obj
 0001:0000f390       ?black@VImage@vips@@SA?AV12@HHPEAVVOption@2@@Z 0000000180010390 f   VImage.obj
 0001:0000f530       ?gaussnoise@VImage@vips@@SA?AV12@HHPEAVVOption@2@@Z 0000000180010530 f   VImage.obj
 0001:0000f6d0       ?text@VImage@vips@@SA?AV12@PEADPEAVVOption@2@@Z 00000001800106d0 f   VImage.obj
 0001:0000f810       ?xyz@VImage@vips@@SA?AV12@HHPEAVVOption@2@@Z 0000000180010810 f   VImage.obj
 0001:0000f9b0       ?gaussmat@VImage@vips@@SA?AV12@NNPEAVVOption@2@@Z 00000001800109b0 f   VImage.obj
 0001:0000fb80       ?logmat@VImage@vips@@SA?AV12@NNPEAVVOption@2@@Z 0000000180010b80 f   VImage.obj
 0001:0000fd50       ?eye@VImage@vips@@SA?AV12@HHPEAVVOption@2@@Z 0000000180010d50 f   VImage.obj
 0001:0000fef0       ?grey@VImage@vips@@SA?AV12@HHPEAVVOption@2@@Z 0000000180010ef0 f   VImage.obj
 0001:00010090       ?zone@VImage@vips@@SA?AV12@HHPEAVVOption@2@@Z 0000000180011090 f   VImage.obj
 0001:00010230       ?sines@VImage@vips@@SA?AV12@HHPEAVVOption@2@@Z 0000000180011230 f   VImage.obj
 0001:000103d0       ?mask_ideal@VImage@vips@@SA?AV12@HHNPEAVVOption@2@@Z 00000001800113d0 f   VImage.obj
 0001:00010610       ?mask_ideal_ring@VImage@vips@@SA?AV12@HHNNPEAVVOption@2@@Z 0000000180011610 f   VImage.obj
 0001:000108c0       ?mask_ideal_band@VImage@vips@@SA?AV12@HHNNNPEAVVOption@2@@Z 00000001800118c0 f   VImage.obj
 0001:00010be0       ?mask_butterworth@VImage@vips@@SA?AV12@HHNNNPEAVVOption@2@@Z 0000000180011be0 f   VImage.obj
 0001:00010f00       ?mask_butterworth_ring@VImage@vips@@SA?AV12@HHNNNNPEAVVOption@2@@Z 0000000180011f00 f   VImage.obj
 0001:00011290       ?mask_butterworth_band@VImage@vips@@SA?AV12@HHNNNNNPEAVVOption@2@@Z 0000000180012290 f   VImage.obj
 0001:00011690       ?mask_gaussian@VImage@vips@@SA?AV12@HHNNPEAVVOption@2@@Z 0000000180012690 f   VImage.obj
 0001:00011940       ?mask_gaussian_ring@VImage@vips@@SA?AV12@HHNNNPEAVVOption@2@@Z 0000000180012940 f   VImage.obj
 0001:00011c60       ?mask_gaussian_band@VImage@vips@@SA?AV12@HHNNNNPEAVVOption@2@@Z 0000000180012c60 f   VImage.obj
 0001:00011ff0       ?mask_fractal@VImage@vips@@SA?AV12@HHNPEAVVOption@2@@Z 0000000180012ff0 f   VImage.obj
 0001:00012230       ?buildlut@VImage@vips@@QEAA?AV12@PEAVVOption@2@@Z 0000000180013230 f   VImage.obj
 0001:00012360       ?invertlut@VImage@vips@@QEAA?AV12@PEAVVOption@2@@Z 0000000180013360 f   VImage.obj
 0001:00012490       ?tonelut@VImage@vips@@SA?AV12@PEAVVOption@2@@Z 0000000180013490 f   VImage.obj
 0001:00012560       ?identity@VImage@vips@@SA?AV12@PEAVVOption@2@@Z 0000000180013560 f   VImage.obj
 0001:00012630       ?fractsurf@VImage@vips@@SA?AV12@HHNPEAVVOption@2@@Z 0000000180013630 f   VImage.obj
 0001:00012870       ?worley@VImage@vips@@SA?AV12@HHPEAVVOption@2@@Z 0000000180013870 f   VImage.obj
 0001:00012a10       ?perlin@VImage@vips@@SA?AV12@HHPEAVVOption@2@@Z 0000000180013a10 f   VImage.obj
 0001:00012bb0       ?csvload@VImage@vips@@SA?AV12@PEADPEAVVOption@2@@Z 0000000180013bb0 f   VImage.obj
 0001:00012ce0       ?matrixload@VImage@vips@@SA?AV12@PEADPEAVVOption@2@@Z 0000000180013ce0 f   VImage.obj
 0001:00012e10       ?rawload@VImage@vips@@SA?AV12@PEADHHHPEAVVOption@2@@Z 0000000180013e10 f   VImage.obj
 0001:000130b0       ?vipsload@VImage@vips@@SA?AV12@PEADPEAVVOption@2@@Z 00000001800140b0 f   VImage.obj
 0001:000131e0       ?analyzeload@VImage@vips@@SA?AV12@PEADPEAVVOption@2@@Z 00000001800141e0 f   VImage.obj
 0001:00013310       ?ppmload@VImage@vips@@SA?AV12@PEADPEAVVOption@2@@Z 0000000180014310 f   VImage.obj
 0001:00013440       ?radload@VImage@vips@@SA?AV12@PEADPEAVVOption@2@@Z 0000000180014440 f   VImage.obj
 0001:00013570       ?pdfload@VImage@vips@@SA?AV12@PEADPEAVVOption@2@@Z 0000000180014570 f   VImage.obj
 0001:000136a0       ?pdfload_buffer@VImage@vips@@SA?AV12@PEAU_VipsBlob@@PEAVVOption@2@@Z 00000001800146a0 f   VImage.obj
 0001:000137e0       ?svgload@VImage@vips@@SA?AV12@PEADPEAVVOption@2@@Z 00000001800147e0 f   VImage.obj
 0001:00013910       ?svgload_buffer@VImage@vips@@SA?AV12@PEAU_VipsBlob@@PEAVVOption@2@@Z 0000000180014910 f   VImage.obj
 0001:00013a50       ?gifload@VImage@vips@@SA?AV12@PEADPEAVVOption@2@@Z 0000000180014a50 f   VImage.obj
 0001:00013b80       ?gifload_buffer@VImage@vips@@SA?AV12@PEAU_VipsBlob@@PEAVVOption@2@@Z 0000000180014b80 f   VImage.obj
 0001:00013cc0       ?pngload@VImage@vips@@SA?AV12@PEADPEAVVOption@2@@Z 0000000180014cc0 f   VImage.obj
 0001:00013df0       ?pngload_buffer@VImage@vips@@SA?AV12@PEAU_VipsBlob@@PEAVVOption@2@@Z 0000000180014df0 f   VImage.obj
 0001:00013f30       ?matload@VImage@vips@@SA?AV12@PEADPEAVVOption@2@@Z 0000000180014f30 f   VImage.obj
 0001:00014060       ?jpegload@VImage@vips@@SA?AV12@PEADPEAVVOption@2@@Z 0000000180015060 f   VImage.obj
 0001:00014190       ?jpegload_buffer@VImage@vips@@SA?AV12@PEAU_VipsBlob@@PEAVVOption@2@@Z 0000000180015190 f   VImage.obj
 0001:000142d0       ?webpload@VImage@vips@@SA?AV12@PEADPEAVVOption@2@@Z 00000001800152d0 f   VImage.obj
 0001:00014400       ?webpload_buffer@VImage@vips@@SA?AV12@PEAU_VipsBlob@@PEAVVOption@2@@Z 0000000180015400 f   VImage.obj
 0001:00014540       ?tiffload@VImage@vips@@SA?AV12@PEADPEAVVOption@2@@Z 0000000180015540 f   VImage.obj
 0001:00014670       ?tiffload_buffer@VImage@vips@@SA?AV12@PEAU_VipsBlob@@PEAVVOption@2@@Z 0000000180015670 f   VImage.obj
 0001:000147b0       ?openslideload@VImage@vips@@SA?AV12@PEADPEAVVOption@2@@Z 00000001800157b0 f   VImage.obj
 0001:000148e0       ?magickload@VImage@vips@@SA?AV12@PEADPEAVVOption@2@@Z 00000001800158e0 f   VImage.obj
 0001:00014a10       ?magickload_buffer@VImage@vips@@SA?AV12@PEAU_VipsBlob@@PEAVVOption@2@@Z 0000000180015a10 f   VImage.obj
 0001:00014b50       ?fitsload@VImage@vips@@SA?AV12@PEADPEAVVOption@2@@Z 0000000180015b50 f   VImage.obj
 0001:00014c80       ?openexrload@VImage@vips@@SA?AV12@PEADPEAVVOption@2@@Z 0000000180015c80 f   VImage.obj
 0001:00014db0       ?csvsave@VImage@vips@@QEAAXPEADPEAVVOption@2@@Z 0000000180015db0 f   VImage.obj
 0001:00014ed0       ?matrixsave@VImage@vips@@QEAAXPEADPEAVVOption@2@@Z 0000000180015ed0 f   VImage.obj
 0001:00014ff0       ?matrixprint@VImage@vips@@QEAAXPEAVVOption@2@@Z 0000000180015ff0 f   VImage.obj
 0001:00015090       ?rawsave@VImage@vips@@QEAAXPEADPEAVVOption@2@@Z 0000000180016090 f   VImage.obj
 0001:000151b0       ?rawsave_fd@VImage@vips@@QEAAXHPEAVVOption@2@@Z 00000001800161b0 f   VImage.obj
 0001:000152c0       ?vipssave@VImage@vips@@QEAAXPEADPEAVVOption@2@@Z 00000001800162c0 f   VImage.obj
 0001:000153e0       ?ppmsave@VImage@vips@@QEAAXPEADPEAVVOption@2@@Z 00000001800163e0 f   VImage.obj
 0001:00015500       ?radsave@VImage@vips@@QEAAXPEADPEAVVOption@2@@Z 0000000180016500 f   VImage.obj
 0001:00015620       ?radsave_buffer@VImage@vips@@QEAAPEAU_VipsBlob@@PEAVVOption@2@@Z 0000000180016620 f   VImage.obj
 0001:00015730       ?dzsave@VImage@vips@@QEAAXPEADPEAVVOption@2@@Z 0000000180016730 f   VImage.obj
 0001:00015850       ?pngsave@VImage@vips@@QEAAXPEADPEAVVOption@2@@Z 0000000180016850 f   VImage.obj
 0001:00015970       ?pngsave_buffer@VImage@vips@@QEAAPEAU_VipsBlob@@PEAVVOption@2@@Z 0000000180016970 f   VImage.obj
 0001:00015a80       ?jpegsave@VImage@vips@@QEAAXPEADPEAVVOption@2@@Z 0000000180016a80 f   VImage.obj
 0001:00015ba0       ?jpegsave_buffer@VImage@vips@@QEAAPEAU_VipsBlob@@PEAVVOption@2@@Z 0000000180016ba0 f   VImage.obj
 0001:00015cb0       ?jpegsave_mime@VImage@vips@@QEAAXPEAVVOption@2@@Z 0000000180016cb0 f   VImage.obj
 0001:00015d50       ?webpsave@VImage@vips@@QEAAXPEADPEAVVOption@2@@Z 0000000180016d50 f   VImage.obj
 0001:00015e70       ?webpsave_buffer@VImage@vips@@QEAAPEAU_VipsBlob@@PEAVVOption@2@@Z 0000000180016e70 f   VImage.obj
 0001:00015f80       ?tiffsave@VImage@vips@@QEAAXPEADPEAVVOption@2@@Z 0000000180016f80 f   VImage.obj
 0001:000160a0       ?fitssave@VImage@vips@@QEAAXPEADPEAVVOption@2@@Z 00000001800170a0 f   VImage.obj
 0001:000161c0       ?mapim@VImage@vips@@QEAA?AV12@V12@PEAVVOption@2@@Z 00000001800171c0 f   VImage.obj
 0001:000163c0       ?shrink@VImage@vips@@QEAA?AV12@NNPEAVVOption@2@@Z 00000001800173c0 f   VImage.obj
 0001:00016600       ?shrinkh@VImage@vips@@QEAA?AV12@HPEAVVOption@2@@Z 0000000180017600 f   VImage.obj
 0001:000167b0       ?shrinkv@VImage@vips@@QEAA?AV12@HPEAVVOption@2@@Z 00000001800177b0 f   VImage.obj
 0001:00016960       ?reduceh@VImage@vips@@QEAA?AV12@NPEAVVOption@2@@Z 0000000180017960 f   VImage.obj
 0001:00016b10       ?reducev@VImage@vips@@QEAA?AV12@NPEAVVOption@2@@Z 0000000180017b10 f   VImage.obj
 0001:00016cc0       ?reduce@VImage@vips@@QEAA?AV12@NNPEAVVOption@2@@Z 0000000180017cc0 f   VImage.obj
 0001:00016f00       ?quadratic@VImage@vips@@QEAA?AV12@V12@PEAVVOption@2@@Z 0000000180017f00 f   VImage.obj
 0001:00017100       ?affine@VImage@vips@@QEAA?AV12@V?$vector@NV?$allocator@N@std@@@std@@PEAVVOption@2@@Z 0000000180018100 f   VImage.obj
 0001:00017300       ?similarity@VImage@vips@@QEAA?AV12@PEAVVOption@2@@Z 0000000180018300 f   VImage.obj
 0001:00017430       ?resize@VImage@vips@@QEAA?AV12@NPEAVVOption@2@@Z 0000000180018430 f   VImage.obj
 0001:000175e0       ?colourspace@VImage@vips@@QEAA?AV12@W4VipsInterpretation@@PEAVVOption@2@@Z 00000001800185e0 f   VImage.obj
 0001:00017790       ?Lab2XYZ@VImage@vips@@QEAA?AV12@PEAVVOption@2@@Z 0000000180018790 f   VImage.obj
 0001:000178c0       ?XYZ2Lab@VImage@vips@@QEAA?AV12@PEAVVOption@2@@Z 00000001800188c0 f   VImage.obj
 0001:000179f0       ?Lab2LCh@VImage@vips@@QEAA?AV12@PEAVVOption@2@@Z 00000001800189f0 f   VImage.obj
 0001:00017b20       ?LCh2Lab@VImage@vips@@QEAA?AV12@PEAVVOption@2@@Z 0000000180018b20 f   VImage.obj
 0001:00017c50       ?LCh2CMC@VImage@vips@@QEAA?AV12@PEAVVOption@2@@Z 0000000180018c50 f   VImage.obj
 0001:00017d80       ?CMC2LCh@VImage@vips@@QEAA?AV12@PEAVVOption@2@@Z 0000000180018d80 f   VImage.obj
 0001:00017eb0       ?XYZ2Yxy@VImage@vips@@QEAA?AV12@PEAVVOption@2@@Z 0000000180018eb0 f   VImage.obj
 0001:00017fe0       ?Yxy2XYZ@VImage@vips@@QEAA?AV12@PEAVVOption@2@@Z 0000000180018fe0 f   VImage.obj
 0001:00018110       ?scRGB2XYZ@VImage@vips@@QEAA?AV12@PEAVVOption@2@@Z 0000000180019110 f   VImage.obj
 0001:00018240       ?XYZ2scRGB@VImage@vips@@QEAA?AV12@PEAVVOption@2@@Z 0000000180019240 f   VImage.obj
 0001:00018370       ?LabQ2Lab@VImage@vips@@QEAA?AV12@PEAVVOption@2@@Z 0000000180019370 f   VImage.obj
 0001:000184a0       ?Lab2LabQ@VImage@vips@@QEAA?AV12@PEAVVOption@2@@Z 00000001800194a0 f   VImage.obj
 0001:000185d0       ?LabQ2LabS@VImage@vips@@QEAA?AV12@PEAVVOption@2@@Z 00000001800195d0 f   VImage.obj
 0001:00018700       ?LabS2LabQ@VImage@vips@@QEAA?AV12@PEAVVOption@2@@Z 0000000180019700 f   VImage.obj
 0001:00018830       ?LabS2Lab@VImage@vips@@QEAA?AV12@PEAVVOption@2@@Z 0000000180019830 f   VImage.obj
 0001:00018960       ?Lab2LabS@VImage@vips@@QEAA?AV12@PEAVVOption@2@@Z 0000000180019960 f   VImage.obj
 0001:00018a90       ?rad2float@VImage@vips@@QEAA?AV12@PEAVVOption@2@@Z 0000000180019a90 f   VImage.obj
 0001:00018bc0       ?float2rad@VImage@vips@@QEAA?AV12@PEAVVOption@2@@Z 0000000180019bc0 f   VImage.obj
 0001:00018cf0       ?LabQ2sRGB@VImage@vips@@QEAA?AV12@PEAVVOption@2@@Z 0000000180019cf0 f   VImage.obj
 0001:00018e20       ?sRGB2HSV@VImage@vips@@QEAA?AV12@PEAVVOption@2@@Z 0000000180019e20 f   VImage.obj
 0001:00018f50       ?HSV2sRGB@VImage@vips@@QEAA?AV12@PEAVVOption@2@@Z 0000000180019f50 f   VImage.obj
 0001:00019080       ?icc_import@VImage@vips@@QEAA?AV12@PEAVVOption@2@@Z 000000018001a080 f   VImage.obj
 0001:000191b0       ?icc_export@VImage@vips@@QEAA?AV12@PEAVVOption@2@@Z 000000018001a1b0 f   VImage.obj
 0001:000192e0       ?icc_transform@VImage@vips@@QEAA?AV12@PEADPEAVVOption@2@@Z 000000018001a2e0 f   VImage.obj
 0001:00019490       ?dE76@VImage@vips@@QEAA?AV12@V12@PEAVVOption@2@@Z 000000018001a490 f   VImage.obj
 0001:00019690       ?dE00@VImage@vips@@QEAA?AV12@V12@PEAVVOption@2@@Z 000000018001a690 f   VImage.obj
 0001:00019890       ?dECMC@VImage@vips@@QEAA?AV12@V12@PEAVVOption@2@@Z 000000018001a890 f   VImage.obj
 0001:00019a90       ?sRGB2scRGB@VImage@vips@@QEAA?AV12@PEAVVOption@2@@Z 000000018001aa90 f   VImage.obj
 0001:00019bc0       ?scRGB2BW@VImage@vips@@QEAA?AV12@PEAVVOption@2@@Z 000000018001abc0 f   VImage.obj
 0001:00019cf0       ?scRGB2sRGB@VImage@vips@@QEAA?AV12@PEAVVOption@2@@Z 000000018001acf0 f   VImage.obj
 0001:00019e20       ?maplut@VImage@vips@@QEAA?AV12@V12@PEAVVOption@2@@Z 000000018001ae20 f   VImage.obj
 0001:0001a020       ?percent@VImage@vips@@QEAAHNPEAVVOption@2@@Z 000000018001b020 f   VImage.obj
 0001:0001a190       ?stdif@VImage@vips@@QEAA?AV12@HHPEAVVOption@2@@Z 000000018001b190 f   VImage.obj
 0001:0001a3c0       ?hist_cum@VImage@vips@@QEAA?AV12@PEAVVOption@2@@Z 000000018001b3c0 f   VImage.obj
 0001:0001a4f0       ?hist_match@VImage@vips@@QEAA?AV12@V12@PEAVVOption@2@@Z 000000018001b4f0 f   VImage.obj
 0001:0001a6f0       ?hist_norm@VImage@vips@@QEAA?AV12@PEAVVOption@2@@Z 000000018001b6f0 f   VImage.obj
 0001:0001a820       ?hist_equal@VImage@vips@@QEAA?AV12@PEAVVOption@2@@Z 000000018001b820 f   VImage.obj
 0001:0001a950       ?hist_plot@VImage@vips@@QEAA?AV12@PEAVVOption@2@@Z 000000018001b950 f   VImage.obj
 0001:0001aa80       ?hist_local@VImage@vips@@QEAA?AV12@HHPEAVVOption@2@@Z 000000018001ba80 f   VImage.obj
 0001:0001acb0       ?hist_ismonotonic@VImage@vips@@QEAA_NPEAVVOption@2@@Z 000000018001bcb0 f   VImage.obj
 0001:0001adc0       ?hist_entropy@VImage@vips@@QEAANPEAVVOption@2@@Z 000000018001bdc0 f   VImage.obj
 0001:0001aed0       ?conv@VImage@vips@@QEAA?AV12@V12@PEAVVOption@2@@Z 000000018001bed0 f   VImage.obj
 0001:0001b0d0       ?conva@VImage@vips@@QEAA?AV12@V12@PEAVVOption@2@@Z 000000018001c0d0 f   VImage.obj
 0001:0001b2d0       ?convf@VImage@vips@@QEAA?AV12@V12@PEAVVOption@2@@Z 000000018001c2d0 f   VImage.obj
 0001:0001b4d0       ?convi@VImage@vips@@QEAA?AV12@V12@PEAVVOption@2@@Z 000000018001c4d0 f   VImage.obj
 0001:0001b6d0       ?compass@VImage@vips@@QEAA?AV12@V12@PEAVVOption@2@@Z 000000018001c6d0 f   VImage.obj
 0001:0001b8d0       ?convsep@VImage@vips@@QEAA?AV12@V12@PEAVVOption@2@@Z 000000018001c8d0 f   VImage.obj
 0001:0001bad0       ?convasep@VImage@vips@@QEAA?AV12@V12@PEAVVOption@2@@Z 000000018001cad0 f   VImage.obj
 0001:0001bcd0       ?fastcor@VImage@vips@@QEAA?AV12@V12@PEAVVOption@2@@Z 000000018001ccd0 f   VImage.obj
 0001:0001bed0       ?spcor@VImage@vips@@QEAA?AV12@V12@PEAVVOption@2@@Z 000000018001ced0 f   VImage.obj
 0001:0001c0d0       ?sharpen@VImage@vips@@QEAA?AV12@PEAVVOption@2@@Z 000000018001d0d0 f   VImage.obj
 0001:0001c200       ?gaussblur@VImage@vips@@QEAA?AV12@NPEAVVOption@2@@Z 000000018001d200 f   VImage.obj
 0001:0001c3b0       ?fwfft@VImage@vips@@QEAA?AV12@PEAVVOption@2@@Z 000000018001d3b0 f   VImage.obj
 0001:0001c4e0       ?invfft@VImage@vips@@QEAA?AV12@PEAVVOption@2@@Z 000000018001d4e0 f   VImage.obj
 0001:0001c610       ?freqmult@VImage@vips@@QEAA?AV12@V12@PEAVVOption@2@@Z 000000018001d610 f   VImage.obj
 0001:0001c810       ?spectrum@VImage@vips@@QEAA?AV12@PEAVVOption@2@@Z 000000018001d810 f   VImage.obj
 0001:0001c940       ?phasecor@VImage@vips@@QEAA?AV12@V12@PEAVVOption@2@@Z 000000018001d940 f   VImage.obj
 0001:0001cb40       ?morph@VImage@vips@@QEAA?AV12@V12@W4VipsOperationMorphology@@PEAVVOption@2@@Z 000000018001db40 f   VImage.obj
 0001:0001cdb0       ?rank@VImage@vips@@QEAA?AV12@HHHPEAVVOption@2@@Z 000000018001ddb0 f   VImage.obj
 0001:0001d050       ?countlines@VImage@vips@@QEAANW4VipsDirection@@PEAVVOption@2@@Z 000000018001e050 f   VImage.obj
 0001:0001d1b0       ?labelregions@VImage@vips@@QEAA?AV12@PEAVVOption@2@@Z 000000018001e1b0 f   VImage.obj
 0001:0001d2e0       ?draw_rect@VImage@vips@@QEAAXV?$vector@NV?$allocator@N@std@@@std@@HHHHPEAVVOption@2@@Z 000000018001e2e0 f   VImage.obj
 0001:0001d630       ?draw_mask@VImage@vips@@QEAAXV?$vector@NV?$allocator@N@std@@@std@@V12@HHPEAVVOption@2@@Z 000000018001e630 f   VImage.obj
 0001:0001d930       ?draw_line@VImage@vips@@QEAAXV?$vector@NV?$allocator@N@std@@@std@@HHHHPEAVVOption@2@@Z 000000018001e930 f   VImage.obj
 0001:0001dc80       ?draw_circle@VImage@vips@@QEAAXV?$vector@NV?$allocator@N@std@@@std@@HHHPEAVVOption@2@@Z 000000018001ec80 f   VImage.obj
 0001:0001df60       ?draw_flood@VImage@vips@@QEAAXV?$vector@NV?$allocator@N@std@@@std@@HHPEAVVOption@2@@Z 000000018001ef60 f   VImage.obj
 0001:0001e1d0       ?draw_image@VImage@vips@@QEAAXV12@HHPEAVVOption@2@@Z 000000018001f1d0 f   VImage.obj
 0001:0001e430       ?draw_smudge@VImage@vips@@QEAAXHHHHPEAVVOption@2@@Z 000000018001f430 f   VImage.obj
 0001:0001e6a0       ?merge@VImage@vips@@QEAA?AV12@V12@W4VipsDirection@@HHPEAVVOption@2@@Z 000000018001f6a0 f   VImage.obj
 0001:0001e9f0       ?mosaic@VImage@vips@@QEAA?AV12@V12@W4VipsDirection@@HHHHPEAVVOption@2@@Z 000000018001f9f0 f   VImage.obj
 0001:0001ee00       ?mosaic1@VImage@vips@@QEAA?AV12@V12@W4VipsDirection@@HHHHHHHHPEAVVOption@2@@Z 000000018001fe00 f   VImage.obj
 0001:0001f3c0       ?match@VImage@vips@@QEAA?AV12@V12@HHHHHHHHPEAVVOption@2@@Z 00000001800203c0 f   VImage.obj
 0001:0001f910       ?globalbalance@VImage@vips@@QEAA?AV12@PEAVVOption@2@@Z 0000000180020910 f   VImage.obj
 0001:0001fa40       ?bandsplit@VImage@vips@@QEAA?AV?$vector@VVImage@vips@@V?$allocator@VVImage@vips@@@std@@@std@@PEAVVOption@2@@Z 0000000180020a40 f   VImage.obj
 0001:0001fb50       ?bandjoin@VImage@vips@@QEAA?AV12@V12@PEAVVOption@2@@Z 0000000180020b50 f   VImage.obj
 0001:0001fd80       ?minpos@VImage@vips@@QEAA?AV?$complex@N@std@@PEAVVOption@2@@Z 0000000180020d80 f   VImage.obj
 0001:0001fea0       ?maxpos@VImage@vips@@QEAA?AV?$complex@N@std@@PEAVVOption@2@@Z 0000000180020ea0 f   VImage.obj
 0001:0001ffc0       ??AVImage@vips@@QEAA?AV01@H@Z 0000000180020fc0 f   VImage.obj
 0001:0001fff0       ??RVImage@vips@@QEAA?AV?$vector@NV?$allocator@N@std@@@std@@HH@Z 0000000180020ff0 f   VImage.obj
 0001:00020020       ??Hvips@@YA?AVVImage@0@V10@0@Z 0000000180021020 f   VImage.obj
 0001:00020160       ??Hvips@@YA?AVVImage@0@NV10@@Z 0000000180021160 f   VImage.obj
 0001:00020200       ??Hvips@@YA?AVVImage@0@V10@N@Z 0000000180021200 f   VImage.obj
 0001:000202a0       ??Hvips@@YA?AVVImage@0@V?$vector@NV?$allocator@N@std@@@std@@V10@@Z 00000001800212a0 f   VImage.obj
 0001:000203f0       ??Hvips@@YA?AVVImage@0@V10@V?$vector@NV?$allocator@N@std@@@std@@@Z 00000001800213f0 f   VImage.obj
 0001:00020540       ??Yvips@@YAAEAVVImage@0@V10@V10@@Z 0000000180021540 f   VImage.obj
 0001:00020700       ??Yvips@@YAAEAVVImage@0@V10@N@Z 0000000180021700 f   VImage.obj
 0001:00020840       ??Yvips@@YAAEAVVImage@0@V10@V?$vector@NV?$allocator@N@std@@@std@@@Z 0000000180021840 f   VImage.obj
 0001:00020a30       ??Gvips@@YA?AVVImage@0@V10@0@Z 0000000180021a30 f   VImage.obj
 0001:00020b70       ??Gvips@@YA?AVVImage@0@NV10@@Z 0000000180021b70 f   VImage.obj
 0001:00020c10       ??Gvips@@YA?AVVImage@0@V10@N@Z 0000000180021c10 f   VImage.obj
 0001:00020cc0       ??Gvips@@YA?AVVImage@0@V?$vector@NV?$allocator@N@std@@@std@@V10@@Z 0000000180021cc0 f   VImage.obj
 0001:00020e10       ??Gvips@@YA?AVVImage@0@V10@V?$vector@NV?$allocator@N@std@@@std@@@Z 0000000180021e10 f   VImage.obj
 0001:00020f70       ??Zvips@@YAAEAVVImage@0@V10@V10@@Z 0000000180021f70 f   VImage.obj
 0001:00021130       ??Zvips@@YAAEAVVImage@0@V10@N@Z 0000000180022130 f   VImage.obj
 0001:00021270       ??Zvips@@YAAEAVVImage@0@V10@V?$vector@NV?$allocator@N@std@@@std@@@Z 0000000180022270 f   VImage.obj
 0001:00021460       ??Gvips@@YA?AVVImage@0@V10@@Z 0000000180022460 f   VImage.obj
 0001:00021550       ??Dvips@@YA?AVVImage@0@V10@0@Z 0000000180022550 f   VImage.obj
 0001:00021690       ??Dvips@@YA?AVVImage@0@NV10@@Z 0000000180022690 f   VImage.obj
 0001:00021730       ??Dvips@@YA?AVVImage@0@V10@N@Z 0000000180022730 f   VImage.obj
 0001:000217d0       ??Dvips@@YA?AVVImage@0@V?$vector@NV?$allocator@N@std@@@std@@V10@@Z 00000001800227d0 f   VImage.obj
 0001:00021920       ??Dvips@@YA?AVVImage@0@V10@V?$vector@NV?$allocator@N@std@@@std@@@Z 0000000180022920 f   VImage.obj
 0001:00021a70       ??Xvips@@YAAEAVVImage@0@V10@V10@@Z 0000000180022a70 f   VImage.obj
 0001:00021c30       ??Xvips@@YAAEAVVImage@0@V10@N@Z 0000000180022c30 f   VImage.obj
 0001:00021d70       ??Xvips@@YAAEAVVImage@0@V10@V?$vector@NV?$allocator@N@std@@@std@@@Z 0000000180022d70 f   VImage.obj
 0001:00021f60       ??Kvips@@YA?AVVImage@0@V10@0@Z 0000000180022f60 f   VImage.obj
 0001:000220a0       ??Kvips@@YA?AVVImage@0@NV10@@Z 00000001800230a0 f   VImage.obj
 0001:000221c0       ??Kvips@@YA?AVVImage@0@V10@N@Z 00000001800231c0 f   VImage.obj
 0001:00022270       ??Kvips@@YA?AVVImage@0@V?$vector@NV?$allocator@N@std@@@std@@V10@@Z 0000000180023270 f   VImage.obj
 0001:00022440       ??Kvips@@YA?AVVImage@0@V10@V?$vector@NV?$allocator@N@std@@@std@@@Z 0000000180023440 f   VImage.obj
 0001:000225a0       ??_0vips@@YAAEAVVImage@0@V10@V10@@Z 00000001800235a0 f   VImage.obj
 0001:00022760       ??_0vips@@YAAEAVVImage@0@V10@N@Z 0000000180023760 f   VImage.obj
 0001:000228a0       ??_0vips@@YAAEAVVImage@0@V10@V?$vector@NV?$allocator@N@std@@@std@@@Z 00000001800238a0 f   VImage.obj
 0001:00022a90       ??Lvips@@YA?AVVImage@0@V10@0@Z 0000000180023a90 f   VImage.obj
 0001:00022bd0       ??Lvips@@YA?AVVImage@0@V10@N@Z 0000000180023bd0 f   VImage.obj
 0001:00022c80       ??Lvips@@YA?AVVImage@0@V10@V?$vector@NV?$allocator@N@std@@@std@@@Z 0000000180023c80 f   VImage.obj
 0001:00022dd0       ??_1vips@@YAAEAVVImage@0@V10@V10@@Z 0000000180023dd0 f   VImage.obj
 0001:00022f90       ??_1vips@@YAAEAVVImage@0@V10@N@Z 0000000180023f90 f   VImage.obj
 0001:000230d0       ??_1vips@@YAAEAVVImage@0@V10@V?$vector@NV?$allocator@N@std@@@std@@@Z 00000001800240d0 f   VImage.obj
 0001:000232c0       ??Mvips@@YA?AVVImage@0@V10@0@Z 00000001800242c0 f   VImage.obj
 0001:00023400       ??Mvips@@YA?AVVImage@0@NV10@@Z 0000000180024400 f   VImage.obj
 0001:000234b0       ??Mvips@@YA?AVVImage@0@V10@N@Z 00000001800244b0 f   VImage.obj
 0001:00023560       ??Mvips@@YA?AVVImage@0@V?$vector@NV?$allocator@N@std@@@std@@V10@@Z 0000000180024560 f   VImage.obj
 0001:000236b0       ??Mvips@@YA?AVVImage@0@V10@V?$vector@NV?$allocator@N@std@@@std@@@Z 00000001800246b0 f   VImage.obj
 0001:00023800       ??Nvips@@YA?AVVImage@0@V10@0@Z 0000000180024800 f   VImage.obj
 0001:00023940       ??Nvips@@YA?AVVImage@0@NV10@@Z 0000000180024940 f   VImage.obj
 0001:000239f0       ??Nvips@@YA?AVVImage@0@V10@N@Z 00000001800249f0 f   VImage.obj
 0001:00023aa0       ??Nvips@@YA?AVVImage@0@V?$vector@NV?$allocator@N@std@@@std@@V10@@Z 0000000180024aa0 f   VImage.obj
 0001:00023bf0       ??Nvips@@YA?AVVImage@0@V10@V?$vector@NV?$allocator@N@std@@@std@@@Z 0000000180024bf0 f   VImage.obj
 0001:00023d40       ??Ovips@@YA?AVVImage@0@V10@0@Z 0000000180024d40 f   VImage.obj
 0001:00023e80       ??Ovips@@YA?AVVImage@0@NV10@@Z 0000000180024e80 f   VImage.obj
 0001:00023f30       ??Ovips@@YA?AVVImage@0@V10@N@Z 0000000180024f30 f   VImage.obj
 0001:00023fe0       ??Ovips@@YA?AVVImage@0@V?$vector@NV?$allocator@N@std@@@std@@V10@@Z 0000000180024fe0 f   VImage.obj
 0001:00024130       ??Ovips@@YA?AVVImage@0@V10@V?$vector@NV?$allocator@N@std@@@std@@@Z 0000000180025130 f   VImage.obj
 0001:00024280       ??Pvips@@YA?AVVImage@0@V10@0@Z 0000000180025280 f   VImage.obj
 0001:000243c0       ??Pvips@@YA?AVVImage@0@NV10@@Z 00000001800253c0 f   VImage.obj
 0001:00024470       ??Pvips@@YA?AVVImage@0@V10@N@Z 0000000180025470 f   VImage.obj
 0001:00024520       ??Pvips@@YA?AVVImage@0@V?$vector@NV?$allocator@N@std@@@std@@V10@@Z 0000000180025520 f   VImage.obj
 0001:00024670       ??Pvips@@YA?AVVImage@0@V10@V?$vector@NV?$allocator@N@std@@@std@@@Z 0000000180025670 f   VImage.obj
 0001:000247c0       ??8vips@@YA?AVVImage@0@V10@0@Z 00000001800257c0 f   VImage.obj
 0001:00024900       ??8vips@@YA?AVVImage@0@NV10@@Z 0000000180025900 f   VImage.obj
 0001:000249b0       ??8vips@@YA?AVVImage@0@V10@N@Z 00000001800259b0 f   VImage.obj
 0001:00024a60       ??8vips@@YA?AVVImage@0@V?$vector@NV?$allocator@N@std@@@std@@V10@@Z 0000000180025a60 f   VImage.obj
 0001:00024bb0       ??8vips@@YA?AVVImage@0@V10@V?$vector@NV?$allocator@N@std@@@std@@@Z 0000000180025bb0 f   VImage.obj
 0001:00024d00       ??9vips@@YA?AVVImage@0@V10@0@Z 0000000180025d00 f   VImage.obj
 0001:00024e40       ??9vips@@YA?AVVImage@0@NV10@@Z 0000000180025e40 f   VImage.obj
 0001:00024ef0       ??9vips@@YA?AVVImage@0@V10@N@Z 0000000180025ef0 f   VImage.obj
 0001:00024fa0       ??9vips@@YA?AVVImage@0@V?$vector@NV?$allocator@N@std@@@std@@V10@@Z 0000000180025fa0 f   VImage.obj
 0001:000250f0       ??9vips@@YA?AVVImage@0@V10@V?$vector@NV?$allocator@N@std@@@std@@@Z 00000001800260f0 f   VImage.obj
 0001:00025240       ??Ivips@@YA?AVVImage@0@V10@0@Z 0000000180026240 f   VImage.obj
 0001:00025380       ??Ivips@@YA?AVVImage@0@NV10@@Z 0000000180026380 f   VImage.obj
 0001:00025430       ??Ivips@@YA?AVVImage@0@V10@N@Z 0000000180026430 f   VImage.obj
 0001:000254e0       ??Ivips@@YA?AVVImage@0@V?$vector@NV?$allocator@N@std@@@std@@V10@@Z 00000001800264e0 f   VImage.obj
 0001:00025630       ??Ivips@@YA?AVVImage@0@V10@V?$vector@NV?$allocator@N@std@@@std@@@Z 0000000180026630 f   VImage.obj
 0001:00025780       ??_4vips@@YAAEAVVImage@0@V10@V10@@Z 0000000180026780 f   VImage.obj
 0001:00025940       ??_4vips@@YAAEAVVImage@0@V10@N@Z 0000000180026940 f   VImage.obj
 0001:00025a80       ??_4vips@@YAAEAVVImage@0@V10@V?$vector@NV?$allocator@N@std@@@std@@@Z 0000000180026a80 f   VImage.obj
 0001:00025c70       ??Uvips@@YA?AVVImage@0@V10@0@Z 0000000180026c70 f   VImage.obj
 0001:00025db0       ??Uvips@@YA?AVVImage@0@NV10@@Z 0000000180026db0 f   VImage.obj
 0001:00025e60       ??Uvips@@YA?AVVImage@0@V10@N@Z 0000000180026e60 f   VImage.obj
 0001:00025f10       ??Uvips@@YA?AVVImage@0@V?$vector@NV?$allocator@N@std@@@std@@V10@@Z 0000000180026f10 f   VImage.obj
 0001:00026060       ??Uvips@@YA?AVVImage@0@V10@V?$vector@NV?$allocator@N@std@@@std@@@Z 0000000180027060 f   VImage.obj
 0001:000261b0       ??_5vips@@YAAEAVVImage@0@V10@V10@@Z 00000001800271b0 f   VImage.obj
 0001:00026370       ??_5vips@@YAAEAVVImage@0@V10@N@Z 0000000180027370 f   VImage.obj
 0001:000264b0       ??_5vips@@YAAEAVVImage@0@V10@V?$vector@NV?$allocator@N@std@@@std@@@Z 00000001800274b0 f   VImage.obj
 0001:000266a0       ??Tvips@@YA?AVVImage@0@V10@0@Z 00000001800276a0 f   VImage.obj
 0001:000267e0       ??Tvips@@YA?AVVImage@0@NV10@@Z 00000001800277e0 f   VImage.obj
 0001:00026890       ??Tvips@@YA?AVVImage@0@V10@N@Z 0000000180027890 f   VImage.obj
 0001:00026940       ??Tvips@@YA?AVVImage@0@V?$vector@NV?$allocator@N@std@@@std@@V10@@Z 0000000180027940 f   VImage.obj
 0001:00026a90       ??Tvips@@YA?AVVImage@0@V10@V?$vector@NV?$allocator@N@std@@@std@@@Z 0000000180027a90 f   VImage.obj
 0001:00026be0       ??_6vips@@YAAEAVVImage@0@V10@V10@@Z 0000000180027be0 f   VImage.obj
 0001:00026da0       ??_6vips@@YAAEAVVImage@0@V10@N@Z 0000000180027da0 f   VImage.obj
 0001:00026ee0       ??_6vips@@YAAEAVVImage@0@V10@V?$vector@NV?$allocator@N@std@@@std@@@Z 0000000180027ee0 f   VImage.obj
 0001:000270d0       ??6vips@@YA?AVVImage@0@V10@0@Z 00000001800280d0 f   VImage.obj
 0001:00027210       ??6vips@@YA?AVVImage@0@V10@N@Z 0000000180028210 f   VImage.obj
 0001:000272c0       ??6vips@@YA?AVVImage@0@V10@V?$vector@NV?$allocator@N@std@@@std@@@Z 00000001800282c0 f   VImage.obj
 0001:00027410       ??_3vips@@YAAEAVVImage@0@V10@V10@@Z 0000000180028410 f   VImage.obj
 0001:00027410       ??_2vips@@YAAEAVVImage@0@V10@V10@@Z 0000000180028410 f   VImage.obj
 0001:000275d0       ??_2vips@@YAAEAVVImage@0@V10@N@Z 00000001800285d0 f   VImage.obj
 0001:000275d0       ??_3vips@@YAAEAVVImage@0@V10@N@Z 00000001800285d0 f   VImage.obj
 0001:00027710       ??_3vips@@YAAEAVVImage@0@V10@V?$vector@NV?$allocator@N@std@@@std@@@Z 0000000180028710 f   VImage.obj
 0001:00027710       ??_2vips@@YAAEAVVImage@0@V10@V?$vector@NV?$allocator@N@std@@@std@@@Z 0000000180028710 f   VImage.obj
 0001:00027900       ??5vips@@YA?AVVImage@0@V10@0@Z 0000000180028900 f   VImage.obj
 0001:00027a40       ??5vips@@YA?AVVImage@0@V10@N@Z 0000000180028a40 f   VImage.obj
 0001:00027af0       ??5vips@@YA?AVVImage@0@V10@V?$vector@NV?$allocator@N@std@@@std@@@Z 0000000180028af0 f   VImage.obj
 0001:00027c40       ??1?$vector@VVImage@vips@@V?$allocator@VVImage@vips@@@std@@@std@@QEAA@XZ 0000000180028c40 f i VImage.obj
 0001:00027c80       ?push_back@?$vector@VVImage@vips@@V?$allocator@VVImage@vips@@@std@@@std@@QEAAX$$QEAVVImage@vips@@@Z 0000000180028c80 f i VImage.obj
 0001:00027e70       ?resize@?$vector@NV?$allocator@N@std@@@std@@QEAAX_K@Z 0000000180028e70 f i VImage.obj
 0001:00027f60       ??0?$vector@NV?$allocator@N@std@@@std@@QEAA@_K@Z 0000000180028f60 f i VImage.obj
 0001:00027fe0       ?_Reallocate@?$vector@VVImage@vips@@V?$allocator@VVImage@vips@@@std@@@std@@IEAAX_K@Z 0000000180028fe0 f i VImage.obj
 0001:000280d0       ?_Reallocate@?$vector@NV?$allocator@N@std@@@std@@IEAAX_K@Z 00000001800290d0 f i VImage.obj
 0001:000281b0       ??$_Destroy_range1@V?$allocator@VVImage@vips@@@std@@PEAVVImage@vips@@@std@@YAXPEAVVImage@vips@@0AEAU?$_Wrap_alloc@V?$allocator@VVImage@vips@@@std@@@0@U?$integral_constant@_N$0A@@0@@Z 00000001800291b0 f i VImage.obj
 0001:00028240       ??$_Uninitialized_move_al_unchecked1@PEAVVImage@vips@@PEAV12@V?$allocator@VVImage@vips@@@std@@@std@@YAPEAVVImage@vips@@PEAV12@00AEAU?$_Wrap_alloc@V?$allocator@VVImage@vips@@@std@@@0@U_General_ptr_iterator_tag@0@U_Any_tag@0@@Z 0000000180029240 f i VImage.obj
 0001:00028240       ??$_Uninitialized_copy_al_unchecked1@PEBVVImage@vips@@PEAV12@V?$allocator@VVImage@vips@@@std@@@std@@YAPEAVVImage@vips@@PEBV12@0PEAV12@AEAU?$_Wrap_alloc@V?$allocator@VVImage@vips@@@std@@@0@U_General_ptr_iterator_tag@0@U_Any_tag@0@@Z 0000000180029240 f i VImage.obj
 0001:00028240       ??$_Uninitialized_copy_al_unchecked1@PEAVVImage@vips@@PEAV12@V?$allocator@VVImage@vips@@@std@@@std@@YAPEAVVImage@vips@@PEAV12@00AEAU?$_Wrap_alloc@V?$allocator@VVImage@vips@@@std@@@0@U_General_ptr_iterator_tag@0@U_Any_tag@0@@Z 0000000180029240 f i VImage.obj
 0001:000282dc       ??0bad_alloc@std@@QEAA@AEBV01@@Z 00000001800292dc f i libcpmt:xthrow.obj
 0001:0002831c       ??0bad_alloc@std@@QEAA@XZ  000000018002931c f i libcpmt:xthrow.obj
 0001:0002833c       ??0exception@std@@QEAA@AEBV01@@Z 000000018002933c f i libcpmt:xthrow.obj
 0001:00028374       ??0length_error@std@@QEAA@AEBV01@@Z 0000000180029374 f i libcpmt:xthrow.obj
 0001:000283b4       ??0length_error@std@@QEAA@PEBD@Z 00000001800293b4 f i libcpmt:xthrow.obj
 0001:00028400       ??0logic_error@std@@QEAA@AEBV01@@Z 0000000180029400 f i libcpmt:xthrow.obj
 0001:00028440       ??0out_of_range@std@@QEAA@AEBV01@@Z 0000000180029440 f i libcpmt:xthrow.obj
 0001:00028480       ??0out_of_range@std@@QEAA@PEBD@Z 0000000180029480 f i libcpmt:xthrow.obj
 0001:000284cc       ??1out_of_range@std@@UEAA@XZ 00000001800294cc f i libcpmt:xthrow.obj
 0001:000284cc       ??1bad_alloc@std@@UEAA@XZ  00000001800294cc f i libcpmt:xthrow.obj
 0001:000284cc       ??1length_error@std@@UEAA@XZ 00000001800294cc f i libcpmt:xthrow.obj
 0001:000284cc       ??1bad_exception@std@@UEAA@XZ 00000001800294cc f i libvcruntime:frame.obj
 0001:000284cc       ??1bad_array_new_length@std@@UEAA@XZ 00000001800294cc f i LIBCMT:throw_bad_alloc.obj
 0001:000284e0       ??_Ebad_alloc@std@@UEAAPEAXI@Z 00000001800294e0 f i libcpmt:xthrow.obj
 0001:000284e0       ??_Glogic_error@std@@UEAAPEAXI@Z 00000001800294e0 f i libcpmt:xthrow.obj
 0001:000284e0       ??_Elength_error@std@@UEAAPEAXI@Z 00000001800294e0 f i libcpmt:xthrow.obj
 0001:000284e0       ??_Eexception@std@@UEAAPEAXI@Z 00000001800294e0 f i libcpmt:xthrow.obj
 0001:000284e0       ??_Eout_of_range@std@@UEAAPEAXI@Z 00000001800294e0 f i libcpmt:xthrow.obj
 0001:000284e0       ??_Gout_of_range@std@@UEAAPEAXI@Z 00000001800294e0 f i libcpmt:xthrow.obj
 0001:000284e0       ??_Gbad_array_new_length@std@@UEAAPEAXI@Z 00000001800294e0 f i LIBCMT:throw_bad_alloc.obj
 0001:000284e0       ??_Gbad_alloc@std@@UEAAPEAXI@Z 00000001800294e0 f i libcpmt:xthrow.obj
 0001:000284e0       ??_Ebad_array_new_length@std@@UEAAPEAXI@Z 00000001800294e0 f i LIBCMT:throw_bad_alloc.obj
 0001:000284e0       ??_Ebad_exception@std@@UEAAPEAXI@Z 00000001800294e0 f i libvcruntime:frame.obj
 0001:000284e0       ??_Gbad_exception@std@@UEAAPEAXI@Z 00000001800294e0 f i libvcruntime:frame.obj
 0001:000284e0       ??_Gexception@std@@UEAAPEAXI@Z 00000001800294e0 f i libcpmt:xthrow.obj
 0001:000284e0       ??_Elogic_error@std@@UEAAPEAXI@Z 00000001800294e0 f i libcpmt:xthrow.obj
 0001:000284e0       ??_Glength_error@std@@UEAAPEAXI@Z 00000001800294e0 f i libcpmt:xthrow.obj
 0001:00028524       ?_Xlength_error@std@@YAXPEBD@Z 0000000180029524 f   libcpmt:xthrow.obj
 0001:00028548       ?_Xout_of_range@std@@YAXPEBD@Z 0000000180029548 f   libcpmt:xthrow.obj
 0001:0002856c       ?what@exception@std@@UEBAPEBDXZ 000000018002956c f i libcpmt:xthrow.obj
 0001:00028580       ?_Syserror_map@std@@YAPEBDH@Z 0000000180029580 f   libcpmt:syserror.obj
 0001:000285c0       __security_check_cookie    00000001800295c0 f   LIBCMT:_amdsecgs_.obj
 0001:000285e4       ??_V@YAXPEAX_K@Z           00000001800295e4 f   LIBCMT:delete_array_size.obj
 0001:00028734       _Init_thread_footer        0000000180029734 f   LIBCMT:thread_safe_statics.obj
 0001:00028794       _Init_thread_header        0000000180029794 f   LIBCMT:thread_safe_statics.obj
 0001:000287fc       _Init_thread_notify        00000001800297fc f   LIBCMT:thread_safe_statics.obj
 0001:00028858       _Init_thread_wait          0000000180029858 f   LIBCMT:thread_safe_statics.obj
 0001:000288f0       ??2@YAPEAX_K@Z             00000001800298f0 f   LIBCMT:new_scalar.obj
 0001:0002892c       ??_M@YAXPEAX_K1P6AX0@Z@Z   000000018002992c f   LIBCMT:ehvecdtr.obj
 0001:00028998       ?__ArrayUnwind@@YAXPEAX_K1P6AX0@Z@Z 0000000180029998 f   LIBCMT:ehvecdtr.obj
 0001:000289fc       __scrt_acquire_startup_lock 00000001800299fc f   LIBCMT:utility.obj
 0001:00028a38       __scrt_dllmain_after_initialize_c 0000000180029a38 f   LIBCMT:utility.obj
 0001:00028a6c       __scrt_dllmain_before_initialize_c 0000000180029a6c f   LIBCMT:utility.obj
 0001:00028a84       __scrt_dllmain_crt_thread_attach 0000000180029a84 f   LIBCMT:utility.obj
 0001:00028aac       __scrt_dllmain_crt_thread_detach 0000000180029aac f   LIBCMT:utility.obj
 0001:00028ac4       __scrt_dllmain_exception_filter 0000000180029ac4 f   LIBCMT:utility.obj
 0001:00028b28       __scrt_dllmain_uninitialize_c 0000000180029b28 f   LIBCMT:utility.obj
 0001:00028b58       __scrt_dllmain_uninitialize_critical 0000000180029b58 f   LIBCMT:utility.obj
 0001:00028b6c       __scrt_initialize_crt      0000000180029b6c f   LIBCMT:utility.obj
 0001:00028bb8       __scrt_initialize_onexit_tables 0000000180029bb8 f   LIBCMT:utility.obj
 0001:00028c84       __scrt_is_nonwritable_in_current_image 0000000180029c84 f   LIBCMT:utility.obj
 0001:00028d20       __scrt_release_startup_lock 0000000180029d20 f   LIBCMT:utility.obj
 0001:00028d44       __scrt_uninitialize_crt    0000000180029d44 f   LIBCMT:utility.obj
 0001:00028d70       _onexit                    0000000180029d70 f   LIBCMT:utility.obj
 0001:00028dc0       atexit                     0000000180029dc0 f   LIBCMT:utility.obj
 0001:00028dd8       ??3@YAXPEAX@Z              0000000180029dd8 f   LIBCMT:delete_scalar.obj
 0001:00028de0       ??_Gtype_info@@UEAAPEAXI@Z 0000000180029de0 f i LIBCMT:std_type_info_static.obj
 0001:00028de0       ??_Etype_info@@UEAAPEAXI@Z 0000000180029de0 f i LIBCMT:std_type_info_static.obj
 0001:00029158       _DllMainCRTStartup         000000018002a158 f   LIBCMT:dll_dllmain.obj
 0001:00029198       __GSHandlerCheck           000000018002a198 f   LIBCMT:_gshandler_.obj
 0001:000291b8       __GSHandlerCheckCommon     000000018002a1b8 f   LIBCMT:_gshandler_.obj
 0001:00029214       __raise_securityfailure    000000018002a214 f   LIBCMT:gs_report.obj
 0001:00029248       __report_gsfailure         000000018002a248 f   LIBCMT:gs_report.obj
 0001:0002931c       __report_rangecheckfailure 000000018002a31c f   LIBCMT:gs_report.obj
 0001:00029330       __report_securityfailure   000000018002a330 f   LIBCMT:gs_report.obj
 0001:000294b0       ??3@YAXPEAX_K@Z            000000018002a4b0 f   LIBCMT:delete_scalar_size.obj
 0001:000294b0       ??_V@YAXPEAX@Z             000000018002a4b0 f   LIBCMT:delete_array.obj
 0001:000294b8       __crt_debugger_hook        000000018002a4b8 f   LIBCMT:utility_desktop.obj
 0001:000294c0       __scrt_fastfail            000000018002a4c0 f   LIBCMT:utility_desktop.obj
 0001:00029608       _guard_check_icall         000000018002a608 f i LIBCMT:checkcfg.obj
 0001:00029610       ??0bad_array_new_length@std@@QEAA@AEBV01@@Z 000000018002a610 f i LIBCMT:throw_bad_alloc.obj
 0001:00029650       ??0bad_array_new_length@std@@QEAA@XZ 000000018002a650 f i LIBCMT:throw_bad_alloc.obj
 0001:00029670       ?__scrt_throw_std_bad_alloc@@YAXXZ 000000018002a670 f   LIBCMT:throw_bad_alloc.obj
 0001:00029670       ?_Xbad_alloc@std@@YAXXZ    000000018002a670 f   libcpmt:xthrow.obj
 0001:00029690       ?__scrt_throw_std_bad_array_new_length@@YAXXZ 000000018002a690 f   LIBCMT:throw_bad_alloc.obj
 0001:000296b0       __isa_available_init       000000018002a6b0 f   LIBCMT:_cpu_disp_.obj
 0001:00029878       __scrt_is_ucrt_dll_in_use  000000018002a878 f   LIBCMT:ucrt_detection.obj
 0001:00029884       __security_init_cookie     000000018002a884 f   LIBCMT:gs_support.obj
 0001:00029930       DllMain                    000000018002a930 f   LIBCMT:dll_dllmain_stub.obj
 0001:00029930       _get_startup_argv_mode     000000018002a930 f   LIBCMT:argv_mode.obj
 0001:00029938       ?__scrt_initialize_type_info@@YAXXZ 000000018002a938 f   LIBCMT:tncleanup.obj
 0001:00029948       ?__scrt_uninitialize_type_info@@YAXXZ 000000018002a948 f   LIBCMT:tncleanup.obj
 0001:00029954       __local_stdio_printf_options 000000018002a954 f i LIBCMT:default_local_stdio_options.obj
 0001:0002995c       __local_stdio_scanf_options 000000018002a95c f i LIBCMT:default_local_stdio_options.obj
 0001:00029964       __scrt_initialize_default_local_stdio_options 000000018002a964 f   LIBCMT:default_local_stdio_options.obj
 0001:00029980       __scrt_get_dyn_tls_init_callback 000000018002a980 f   LIBCMT:dyn_tls_init.obj
 0001:00029988       _RTC_Initialize            000000018002a988 f   LIBCMT:_initsect_.obj
 0001:000299d4       _RTC_Terminate             000000018002a9d4 f   LIBCMT:_initsect_.obj
 0001:00029a30       memcpy                     000000018002aa30 f   libvcruntime:memcpy.obj
 0001:00029a30       memmove                    000000018002aa30 f   libvcruntime:memcpy.obj
 0001:00029e68       _purecall                  000000018002ae68 f   libvcruntime:purevirt.obj
 0001:00029ea4       __DestructExceptionObject  000000018002aea4 f   libvcruntime:frame.obj
 0001:00029f2c       ??0bad_exception@std@@QEAA@AEBV01@@Z 000000018002af2c f i libvcruntime:frame.obj
 0001:00029f6c       ??0bad_exception@std@@QEAA@XZ 000000018002af6c f i libvcruntime:frame.obj
 0001:0002a8e8       ?_CallMemberFunction0@@YAXPEAXP6AX0@Z@Z 000000018002b8e8 f i libvcruntime:frame.obj
 0001:0002a8ec       ?_CallMemberFunction1@@YAXPEAXP6AX0@Z0@Z 000000018002b8ec f i libvcruntime:frame.obj
 0001:0002a8f8       ?_CallMemberFunction2@@YAXPEAXP6AX0@Z0H@Z 000000018002b8f8 f i libvcruntime:frame.obj
 0001:0002a908       __AdjustPointer            000000018002b908 f   libvcruntime:frame.obj
 0001:0002a92c       __BuildCatchObject         000000018002b92c f   libvcruntime:frame.obj
 0001:0002a9f0       __BuildCatchObjectHelper   000000018002b9f0 f   libvcruntime:frame.obj
 0001:0002abd0       __CxxCallCatchBlock        000000018002bbd0 f   libvcruntime:frame.obj
 0001:0002adbc       __FrameUnwindFilter        000000018002bdbc f   libvcruntime:frame.obj
 0001:0002ae08       __FrameUnwindToState       000000018002be08 f   libvcruntime:frame.obj
 0001:0002af9c       __InternalCxxFrameHandler  000000018002bf9c f   libvcruntime:frame.obj
 0001:0002b1f4       __TypeMatch                000000018002c1f4 f   libvcruntime:frame.obj
 0001:0002b334       __std_exception_copy       000000018002c334 f   libvcruntime:std_exception.obj
 0001:0002b3c4       __std_exception_destroy    000000018002c3c4 f   libvcruntime:std_exception.obj
 0001:0002b3ec       _CxxThrowException         000000018002c3ec f   libvcruntime:throw.obj
 0001:0002b4c4       ?_ExecutionInCatch@@YAHPEAU_xDISPATCHER_CONTEXT@@PEBU_s_FuncInfo@@@Z 000000018002c4c4 f   libvcruntime:trnsctrl.obj
 0001:0002b538       ?_GetEstablisherFrame@@YAPEA_KPEA_KPEAU_xDISPATCHER_CONTEXT@@PEBU_s_FuncInfo@@0@Z 000000018002c538 f   libvcruntime:trnsctrl.obj
 0001:0002b604       ?_GetRangeOfTrysToCheck@@YAPEBU_s_TryBlockMapEntry@@PEA_KPEBU_s_FuncInfo@@HHPEAI2PEAU_xDISPATCHER_CONTEXT@@@Z 000000018002c604 f   libvcruntime:trnsctrl.obj
 0001:0002b730       ?__FrameUnwindToEmptyState@@YAXPEA_KPEAU_xDISPATCHER_CONTEXT@@PEBU_s_FuncInfo@@@Z 000000018002c730 f   libvcruntime:trnsctrl.obj
 0001:0002b7c4       ?__SehTransFilter@@YAHPEAU_EXCEPTION_POINTERS@@PEAUEHExceptionRecord@@PEA_KPEAU_CONTEXT@@PEAU_xDISPATCHER_CONTEXT@@PEBU_s_FuncInfo@@PEAH@Z 000000018002c7c4 f   libvcruntime:trnsctrl.obj
 0001:0002b85c       _CallSETranslator          000000018002c85c f   libvcruntime:trnsctrl.obj
 0001:0002b8b4       _CreateFrameInfo           000000018002c8b4 f   libvcruntime:trnsctrl.obj
 0001:0002b8f0       _FindAndUnlinkFrame        000000018002c8f0 f   libvcruntime:trnsctrl.obj
 0001:0002b948       _GetImageBase              000000018002c948 f   libvcruntime:trnsctrl.obj
 0001:0002b95c       _GetThrowImageBase         000000018002c95c f   libvcruntime:trnsctrl.obj
 0001:0002b970       _IsExceptionObjectToBeDestroyed 000000018002c970 f   libvcruntime:trnsctrl.obj
 0001:0002b9a0       _SetImageBase              000000018002c9a0 f   libvcruntime:trnsctrl.obj
 0001:0002b9b8       _SetThrowImageBase         000000018002c9b8 f   libvcruntime:trnsctrl.obj
 0001:0002b9d0       _UnwindNestedFrames        000000018002c9d0 f   libvcruntime:trnsctrl.obj
 0001:0002baf4       __CxxFrameHandler3         000000018002caf4 f   libvcruntime:trnsctrl.obj
 0001:0002bd3c       __vcrt_FlsAlloc            000000018002cd3c f   libvcruntime:winapi_downlevel.obj
 0001:0002bd90       __vcrt_FlsFree             000000018002cd90 f   libvcruntime:winapi_downlevel.obj
 0001:0002bde4       __vcrt_FlsGetValue         000000018002cde4 f   libvcruntime:winapi_downlevel.obj
 0001:0002be38       __vcrt_FlsSetValue         000000018002ce38 f   libvcruntime:winapi_downlevel.obj
 0001:0002bea0       __vcrt_InitializeCriticalSectionEx 000000018002cea0 f   libvcruntime:winapi_downlevel.obj
 0001:0002bf18       __vcrt_initialize_winapi_thunks 000000018002cf18 f   libvcruntime:winapi_downlevel.obj
 0001:0002bf64       __vcrt_uninitialize_winapi_thunks 000000018002cf64 f   libvcruntime:winapi_downlevel.obj
 0001:0002bfa4       __C_specific_handler       000000018002cfa4 f   libvcruntime:_chandler_.obj
 0001:0002c1a0       __vcrt_initialize          000000018002d1a0 f   libvcruntime:initialization.obj
 0001:0002c1d4       __vcrt_thread_attach       000000018002d1d4 f   libvcruntime:initialization.obj
 0001:0002c1e8       __vcrt_thread_detach       000000018002d1e8 f   libvcruntime:initialization.obj
 0001:0002c1fc       __vcrt_uninitialize        000000018002d1fc f   libvcruntime:initialization.obj
 0001:0002c21c       __vcrt_uninitialize_critical 000000018002d21c f   libvcruntime:initialization.obj
 0001:0002c240       memset                     000000018002d240 f   libvcruntime:memset.obj
 0001:0002c3e0       __std_type_info_compare    000000018002d3e0 f   libvcruntime:std_type_info.obj
 0001:0002c408       __std_type_info_destroy_list 000000018002d408 f   libvcruntime:std_type_info.obj
 0001:0002c434       __vcrt_initialize_pure_virtual_call_handler 000000018002d434 f   libvcruntime:purevirt_data.obj
 0001:0002c458       __vcrt_freefls             000000018002d458 f   libvcruntime:per_thread_data.obj
 0001:0002c478       __vcrt_freeptd             000000018002d478 f   libvcruntime:per_thread_data.obj
 0001:0002c4c8       __vcrt_getptd              000000018002d4c8 f   libvcruntime:per_thread_data.obj
 0001:0002c4e4       __vcrt_getptd_noexit       000000018002d4e4 f   libvcruntime:per_thread_data.obj
 0001:0002c59c       __vcrt_initialize_ptd      000000018002d59c f   libvcruntime:per_thread_data.obj
 0001:0002c5dc       __vcrt_uninitialize_ptd    000000018002d5dc f   libvcruntime:per_thread_data.obj
 0001:0002c600       ?__GetCurrentState@@YAHPEA_KPEAU_xDISPATCHER_CONTEXT@@PEBU_s_FuncInfo@@@Z 000000018002d600 f   libvcruntime:ehstate.obj
 0001:0002c628       ?__GetUnwindTryBlock@@YAHPEA_KPEAU_xDISPATCHER_CONTEXT@@PEBU_s_FuncInfo@@@Z 000000018002d628 f   libvcruntime:ehstate.obj
 0001:0002c654       ?__SetState@@YAXPEA_KPEAU_xDISPATCHER_CONTEXT@@PEBU_s_FuncInfo@@H@Z 000000018002d654 f   libvcruntime:ehstate.obj
 0001:0002c660       ?__SetUnwindTryBlock@@YAXPEA_KPEAU_xDISPATCHER_CONTEXT@@PEBU_s_FuncInfo@@H@Z 000000018002d660 f   libvcruntime:ehstate.obj
 0001:0002c69c       ?__StateFromControlPc@@YAHPEBU_s_FuncInfo@@PEAU_xDISPATCHER_CONTEXT@@@Z 000000018002d69c f   libvcruntime:ehstate.obj
 0001:0002c6a4       ?__StateFromIp@@YAHPEBU_s_FuncInfo@@PEAU_xDISPATCHER_CONTEXT@@_J@Z 000000018002d6a4 f   libvcruntime:ehstate.obj
 0001:0002c720       _CallSettingFrame          000000018002d720 f   libvcruntime:handlers.obj
 0001:0002c770       _local_unwind              000000018002d770 f   libvcruntime:_jmpuwind_.obj
 0001:0002c7a0       _NLG_Notify                000000018002d7a0 f   libvcruntime:_jmpuwind_.obj
 0001:0002c7c0       __NLG_Dispatch2            000000018002d7c0 f   libvcruntime:_jmpuwind_.obj
 0001:0002c7d0       __NLG_Return2              000000018002d7d0 f   libvcruntime:_jmpuwind_.obj
 0001:0002c7d4       __vcrt_initialize_locks    000000018002d7d4 f   libvcruntime:locks.obj
 0001:0002c81c       __vcrt_uninitialize_locks  000000018002d81c f   libvcruntime:locks.obj
 0001:0002c854       __acrt_call_reportfault    000000018002d854 f   libucrt:invalid_parameter.obj
 0001:0002c9b0       __acrt_initialize_invalid_parameter_handler 000000018002d9b0 f   libucrt:invalid_parameter.obj
 0001:0002c9b8       _invalid_parameter         000000018002d9b8 f   libucrt:invalid_parameter.obj
 0001:0002ca60       _invalid_parameter_noinfo  000000018002da60 f   libucrt:invalid_parameter.obj
 0001:0002ca80       _invalid_parameter_noinfo_noreturn 000000018002da80 f   libucrt:invalid_parameter.obj
 0001:0002cab0       _invoke_watson             000000018002dab0 f   libucrt:invalid_parameter.obj
 0001:0002caf8       ??0_LocaleUpdate@@QEAA@QEAU__crt_locale_pointers@@@Z 000000018002daf8 f i libucrt:stricmp.obj
 0001:0002cb88       __acrt_initialize_new_handler 000000018002db88 f   libucrt:new_handler.obj
 0001:0002cb90       _callnewh                  000000018002db90 f   libucrt:new_handler.obj
 0001:0002cbd0       _query_new_handler         000000018002dbd0 f   libucrt:new_handler.obj
 0001:0002cc04       malloc                     000000018002dc04 f   libucrt:malloc.obj
 0001:0002cc0c       terminate                  000000018002dc0c f   libucrt:terminate.obj
 0001:0002cc34       _seh_filter_dll            000000018002dc34 f   libucrt:exception_filter.obj
 0001:0002cc48       _seh_filter_exe            000000018002dc48 f   libucrt:exception_filter.obj
 0001:0002d008       __acrt_initialize_thread_local_exit_callback 000000018002e008 f   libucrt:exit.obj
 0001:0002d010       _cexit                     000000018002e010 f   libucrt:exit.obj
 0001:0002d020       _exit                      000000018002e020 f   libucrt:exit.obj
 0001:0002d02c       _is_c_termination_complete 000000018002e02c f   libucrt:exit.obj
 0001:0002d1f0       __acrt_allocate_buffer_for_argv 000000018002e1f0 f   libucrt:argv_parsing.obj
 0001:0002d254       _configure_narrow_argv     000000018002e254 f   libucrt:argv_parsing.obj
 0001:0002d5b0       __dcrt_uninitialize_environments_nolock 000000018002e5b0 f   libucrt:environment_initialization.obj
 0001:0002d5e8       _initialize_narrow_environment 000000018002e5e8 f   libucrt:environment_initialization.obj
 0001:0002d5f0       ??$?RV<lambda_b8c45f8f788dd370798f47cfe8ac3a86>@@AEAV<lambda_4e60a939b0d047cfe11ddc22648dfba9>@@V<lambda_332c3edc96d0294ec56c57d38c1cdfd5>@@@?$__crt_seh_guarded_call@H@@QEAAH$$QEAV<lambda_b8c45f8f788dd370798f47cfe8ac3a86>@@AEAV<lambda_4e60a939b0d047cfe11ddc22648dfba9>@@$$QEAV<lambda_332c3edc96d0294ec56c57d38c1cdfd5>@@@Z 000000018002e5f0 f i libucrt:onexit.obj
 0001:0002d62c       ??$?RV<lambda_e24bbb7b643b32fcea6fa61b31d4c984>@@AEAV<lambda_275893d493268fdec8709772e3fcec0e>@@V<lambda_9d71df4d7cf3f480f8d633942495c3b0>@@@?$__crt_seh_guarded_call@H@@QEAAH$$QEAV<lambda_e24bbb7b643b32fcea6fa61b31d4c984>@@AEAV<lambda_275893d493268fdec8709772e3fcec0e>@@$$QEAV<lambda_9d71df4d7cf3f480f8d633942495c3b0>@@@Z 000000018002e62c f i libucrt:onexit.obj
 0001:0002d9a8       _crt_atexit                000000018002e9a8 f   libucrt:onexit.obj
 0001:0002d9b8       _execute_onexit_table      000000018002e9b8 f   libucrt:onexit.obj
 0001:0002d9f4       _initialize_onexit_table   000000018002e9f4 f   libucrt:onexit.obj
 0001:0002da34       _register_onexit_function  000000018002ea34 f   libucrt:onexit.obj
 0001:0002dbb0       __acrt_initialize          000000018002ebb0 f   libucrt:initialization.obj
 0001:0002dbc4       __acrt_thread_attach       000000018002ebc4 f   libucrt:initialization.obj
 0001:0002dbd8       __acrt_thread_detach       000000018002ebd8 f   libucrt:initialization.obj
 0001:0002dbe8       __acrt_uninitialize        000000018002ebe8 f   libucrt:initialization.obj
 0001:0002dbfc       __acrt_uninitialize_critical 000000018002ebfc f   libucrt:initialization.obj
 0001:0002dc0c       free                       000000018002ec0c f   libucrt:free.obj
 0001:0002dc14       _initterm                  000000018002ec14 f   libucrt:initterm.obj
 0001:0002dc8c       _initterm_e                000000018002ec8c f   libucrt:initterm.obj
 0001:0002dcd8       abort                      000000018002ecd8 f   libucrt:abort.obj
 0001:0002dd30       strcpy_s                   000000018002ed30 f   libucrt:strcpy_s.obj
 0001:0002dd90       _free_base                 000000018002ed90 f   libucrt:free_base.obj
 0001:0002ddd0       _malloc_base               000000018002edd0 f   libucrt:malloc_base.obj
 0001:0002de30       _calloc_base               000000018002ee30 f   libucrt:calloc_base.obj
 0001:0002dea8       ??$?RV<lambda_46352004c1216016012b18bd6f87e700>@@AEAV<lambda_3bd07e1a1191394380780325891bf33f>@@V<lambda_334532d3f185bcaa59b5be82d7d22bff>@@@?$__crt_seh_guarded_call@X@@QEAAX$$QEAV<lambda_46352004c1216016012b18bd6f87e700>@@AEAV<lambda_3bd07e1a1191394380780325891bf33f>@@$$QEAV<lambda_334532d3f185bcaa59b5be82d7d22bff>@@@Z 000000018002eea8 f i libucrt:per_thread_data.obj
 0001:0002df08       ??$?RV<lambda_5e887d1dcbef67a5eb4283622ba103bf>@@AEAV<lambda_4466841279450cc726390878d4a41900>@@V<lambda_341c25c0346d94847f1f3c463c57e077>@@@?$__crt_seh_guarded_call@X@@QEAAX$$QEAV<lambda_5e887d1dcbef67a5eb4283622ba103bf>@@AEAV<lambda_4466841279450cc726390878d4a41900>@@$$QEAV<lambda_341c25c0346d94847f1f3c463c57e077>@@@Z 000000018002ef08 f i libucrt:per_thread_data.obj
 0001:0002df50       ??$?RV<lambda_72d1df2b273a38828b1ce30cbf4cdab5>@@AEAV<lambda_876a65b173b8412d3a47c70a915b0cf4>@@V<lambda_41932305e351933ebe8f8be3ed8bb5dc>@@@?$__crt_seh_guarded_call@X@@QEAAX$$QEAV<lambda_72d1df2b273a38828b1ce30cbf4cdab5>@@AEAV<lambda_876a65b173b8412d3a47c70a915b0cf4>@@$$QEAV<lambda_41932305e351933ebe8f8be3ed8bb5dc>@@@Z 000000018002ef50 f i libucrt:per_thread_data.obj
 0001:0002df90       ??$?RV<lambda_fb3a7dec4e47f37f22dae91bb15c9095>@@AEAV<lambda_698284760c8add0bfb0756c19673e34b>@@V<lambda_dfb8eca1e75fef3034a8fb18dd509707>@@@?$__crt_seh_guarded_call@X@@QEAAX$$QEAV<lambda_fb3a7dec4e47f37f22dae91bb15c9095>@@AEAV<lambda_698284760c8add0bfb0756c19673e34b>@@$$QEAV<lambda_dfb8eca1e75fef3034a8fb18dd509707>@@@Z 000000018002ef90 f i libucrt:per_thread_data.obj
 0001:0002e220       __acrt_freeptd             000000018002f220 f   libucrt:per_thread_data.obj
 0001:0002e264       __acrt_getptd              000000018002f264 f   libucrt:per_thread_data.obj
 0001:0002e2f8       __acrt_getptd_noexit       000000018002f2f8 f   libucrt:per_thread_data.obj
 0001:0002e398       __acrt_initialize_ptd      000000018002f398 f   libucrt:per_thread_data.obj
 0001:0002e3d4       __acrt_uninitialize_ptd    000000018002f3d4 f   libucrt:per_thread_data.obj
 0001:0002e3f8       __acrt_errno_from_os_error 000000018002f3f8 f   libucrt:errno.obj
 0001:0002e440       __acrt_errno_map_os_error  000000018002f440 f   libucrt:errno.obj
 0001:0002e490       __doserrno                 000000018002f490 f   libucrt:errno.obj
 0001:0002e4b0       _errno                     000000018002f4b0 f   libucrt:errno.obj
 0001:0002e4d0       __acrt_update_locale_info  000000018002f4d0 f   libucrt:locale_update.obj
 0001:0002e504       __acrt_update_multibyte_info 000000018002f504 f   libucrt:locale_update.obj
 0001:0002e538       __acrt_set_locale_changed  000000018002f538 f   libucrt:wsetlocale.obj
 0001:0002e544       __acrt_uninitialize_locale 000000018002f544 f   libucrt:wsetlocale.obj
 0001:0002e58c       __acrt_initialize_locks    000000018002f58c f   libucrt:locks.obj
 0001:0002e5d4       __acrt_lock                000000018002f5d4 f   libucrt:locks.obj
 0001:0002e5f0       __acrt_uninitialize_locks  000000018002f5f0 f   libucrt:locks.obj
 0001:0002e628       __acrt_unlock              000000018002f628 f   libucrt:locks.obj
 0001:0002e7e4       __acrt_FlsAlloc            000000018002f7e4 f   libucrt:winapi_thunks.obj
 0001:0002e83c       __acrt_FlsFree             000000018002f83c f   libucrt:winapi_thunks.obj
 0001:0002e894       __acrt_FlsGetValue         000000018002f894 f   libucrt:winapi_thunks.obj
 0001:0002e8ec       __acrt_FlsSetValue         000000018002f8ec f   libucrt:winapi_thunks.obj
 0001:0002e954       __acrt_InitializeCriticalSectionEx 000000018002f954 f   libucrt:winapi_thunks.obj
 0001:0002e9cc       __acrt_LCMapStringEx       000000018002f9cc f   libucrt:winapi_thunks.obj
 0001:0002eabc       __acrt_LocaleNameToLCID    000000018002fabc f   libucrt:winapi_thunks.obj
 0001:0002eb24       __acrt_initialize_winapi_thunks 000000018002fb24 f   libucrt:winapi_thunks.obj
 0001:0002eb5c       __acrt_is_packaged_app     000000018002fb5c f   libucrt:winapi_thunks.obj
 0001:0002ebe4       __acrt_uninitialize_winapi_thunks 000000018002fbe4 f   libucrt:winapi_thunks.obj
 0001:0002f104       ?expand_if_necessary@?$argument_list@D@?A0xca0879c4@@AEAAHXZ 0000000180030104 f i libucrt:argv_wildcards.obj
 0001:0002f1cc       __acrt_expand_narrow_argv_wildcards 00000001800301cc f   libucrt:argv_wildcards.obj
 0001:0002f1d4       ??$?RV<lambda_99476a1ad63dd22509b5d3e65b0ffc95>@@AEAV<lambda_ad1ced32f4ac17aa236e5ef05d6b3b7c>@@V<lambda_f7424dd8d45958661754dc4f2697e9c3>@@@?$__crt_seh_guarded_call@X@@QEAAX$$QEAV<lambda_99476a1ad63dd22509b5d3e65b0ffc95>@@AEAV<lambda_ad1ced32f4ac17aa236e5ef05d6b3b7c>@@$$QEAV<lambda_f7424dd8d45958661754dc4f2697e9c3>@@@Z 00000001800301d4 f i libucrt:mbctype.obj
 0001:0002f8d0       __acrt_initialize_multibyte 00000001800308d0 f   libucrt:mbctype.obj
 0001:0002f8f8       __acrt_update_thread_multibyte_data 00000001800308f8 f   libucrt:mbctype.obj
 0001:0002f9b8       _setmbcp_nolock            00000001800309b8 f   libucrt:mbctype.obj
 0001:0002fcd8       _ismbblead                 0000000180030cd8 f   libucrt:ismbbyte.obj
 0001:0002fcec       __acrt_initialize_command_line 0000000180030cec f   libucrt:argv_data.obj
 0001:0002fd14       __acrt_uninitialize_command_line 0000000180030d14 f   libucrt:argv_data.obj
 0001:0002fd18       __dcrt_get_narrow_environment_from_os 0000000180030d18 f   libucrt:get_environment_from_os.obj
 0001:0002fe1c       _recalloc                  0000000180030e1c f   libucrt:recalloc.obj
 0001:0002fe24       _recalloc_base             0000000180030e24 f   libucrt:recalloc.obj
 0001:0002febc       __acrt_initialize_heap     0000000180030ebc f   libucrt:heap_handle.obj
 0001:0002fed8       __acrt_uninitialize_heap   0000000180030ed8 f   libucrt:heap_handle.obj
 0001:000300cc       __acrt_initialize_lowio    00000001800310cc f   libucrt:ioinit.obj
 0001:00030108       __acrt_uninitialize_lowio  0000000180031108 f   libucrt:ioinit.obj
 0001:00030148       __acrt_execute_initializers 0000000180031148 f   libucrt:shared_initialization.obj
 0001:000301dc       __acrt_execute_uninitializers 00000001800311dc f   libucrt:shared_initialization.obj
 0001:0003022c       ??$?RV<lambda_c36588078e9f5dfd39652860aa6b3aaf>@@AEAV<lambda_ec61778202f4f5fc7e7711acc23c3bca>@@V<lambda_dc9d2797ccde5d239b4a0efae8ebd7db>@@@?$__crt_seh_guarded_call@P6AXH@Z@@QEAAP6AXH@Z$$QEAV<lambda_c36588078e9f5dfd39652860aa6b3aaf>@@AEAV<lambda_ec61778202f4f5fc7e7711acc23c3bca>@@$$QEAV<lambda_dc9d2797ccde5d239b4a0efae8ebd7db>@@@Z 000000018003122c f i libucrt:signal.obj
 0001:00030274       __acrt_get_sigabrt_handler 0000000180031274 f   libucrt:signal.obj
 0001:000302a4       __acrt_initialize_signal_handlers 00000001800312a4 f   libucrt:signal.obj
 0001:000302c4       raise                      00000001800312c4 f   libucrt:signal.obj
 0001:00030560       __acrt_has_user_matherr    0000000180031560 f   libucrt:matherr.obj
 0001:00030580       __acrt_initialize_user_matherr 0000000180031580 f   libucrt:matherr.obj
 0001:00030588       __acrt_invoke_user_matherr 0000000180031588 f   libucrt:matherr.obj
 0001:000305d0       _query_new_mode            00000001800315d0 f   libucrt:new_mode.obj
 0001:000305d8       _mbtowc_l                  00000001800315d8 f   libucrt:mbtowc.obj
 0001:00030720       mbtowc                     0000000180031720 f   libucrt:mbtowc.obj
 0001:00030728       _fileno                    0000000180031728 f   libucrt:fileno.obj
 0001:00030750       __acrt_initialize_stdio    0000000180031750 f   libucrt:_file.obj
 0001:00030870       __acrt_uninitialize_stdio  0000000180031870 f   libucrt:_file.obj
 0001:000308cc       _lock_file                 00000001800318cc f   libucrt:_file.obj
 0001:000308d8       _unlock_file               00000001800318d8 f   libucrt:_file.obj
 0001:000308e4       __pctype_func              00000001800318e4 f   libucrt:ctype.obj
 0001:00030914       __acrt_add_locale_ref      0000000180031914 f   libucrt:locale_refcounting.obj
 0001:000309a0       __acrt_free_locale         00000001800319a0 f   libucrt:locale_refcounting.obj
 0001:00030b18       __acrt_locale_add_lc_time_reference 0000000180031b18 f   libucrt:locale_refcounting.obj
 0001:00030b40       __acrt_locale_free_lc_time_if_unreferenced 0000000180031b40 f   libucrt:locale_refcounting.obj
 0001:00030b78       __acrt_locale_release_lc_time_reference 0000000180031b78 f   libucrt:locale_refcounting.obj
 0001:00030ba0       __acrt_release_locale_ref  0000000180031ba0 f   libucrt:locale_refcounting.obj
 0001:00030c48       __acrt_update_thread_locale_data 0000000180031c48 f   libucrt:locale_refcounting.obj
 0001:00030cb8       _updatetlocinfoEx_nolock   0000000180031cb8 f   libucrt:locale_refcounting.obj
 0001:00030d20       _isleadbyte_l              0000000180031d20 f i libucrt:_wctype.obj
 0001:000310bc       __acrt_LCMapStringA        00000001800320bc f   libucrt:lcmapstringa.obj
 0001:00031154       __acrt_locale_free_monetary 0000000180032154 f   libucrt:initmon.obj
 0001:00031260       __acrt_locale_free_numeric 0000000180032260 f   libucrt:initnum.obj
 0001:00031324       __acrt_locale_free_time    0000000180032324 f   libucrt:inittime.obj
 0001:0003142c       __acrt_GetStringTypeA      000000018003242c f   libucrt:getstringtypea.obj
 0001:000316a8       __acrt_DownlevelLocaleNameToLCID 00000001800326a8 f   libucrt:lcidtoname_downlevel.obj
 0001:000317b0       qsort                      00000001800327b0 f   libucrt:qsort.obj
 0001:00031ae4       strncpy_s                  0000000180032ae4 f   libucrt:strncpy_s.obj
 0001:00031bb8       strpbrk                    0000000180032bb8 f   libucrt:strpbrk.obj
 0001:00031c58       _mbsdec                    0000000180032c58 f   libucrt:mbsdec.obj
 0001:00031c60       _mbsdec_l                  0000000180032c60 f   libucrt:mbsdec.obj
 0001:00031d10       _msize                     0000000180032d10 f   libucrt:msize.obj
 0001:00031d4c       _realloc_base              0000000180032d4c f   libucrt:realloc_base.obj
 0001:00031dd0       __acrt_lowio_create_handle_array 0000000180032dd0 f   libucrt:osfinfo.obj
 0001:00031e68       __acrt_lowio_destroy_handle_array 0000000180032e68 f   libucrt:osfinfo.obj
 0001:00031eb8       __acrt_lowio_ensure_fh_exists 0000000180032eb8 f   libucrt:osfinfo.obj
 0001:00031f70       __acrt_lowio_lock_fh       0000000180032f70 f   libucrt:osfinfo.obj
 0001:00031f94       __acrt_lowio_unlock_fh     0000000180032f94 f   libucrt:osfinfo.obj
 0001:00031fb8       _free_osfhnd               0000000180032fb8 f   libucrt:osfinfo.obj
 0001:00032074       _get_osfhandle             0000000180033074 f   libucrt:osfinfo.obj
 0001:000320ec       _isatty                    00000001800330ec f   libucrt:isatty.obj
 0001:0003214c       __acrt_stdio_flush_nolock  000000018003314c f   libucrt:fflush.obj
 0001:000321c4       _fflush_nolock             00000001800331c4 f   libucrt:fflush.obj
 0001:00032210       _flushall                  0000000180033210 f   libucrt:fflush.obj
 0001:00032300       _fcloseall                 0000000180033300 f   libucrt:closeall.obj
 0001:000323b4       __acrt_stdio_free_buffer_nolock 00000001800333b4 f   libucrt:_freebuf.obj
 0001:000323f4       __strncnt                  00000001800333f4 f   libucrt:strncnt.obj
 0001:0003240c       _query_app_type            000000018003340c f   libucrt:report_runtime_error.obj
 0001:00032414       ??$?RV<lambda_b521505b218e5242e90febf6bfebc422>@@AEAV<lambda_6978c1fb23f02e42e1d9e99668cc68aa>@@V<lambda_314360699dd331753a4119843814e9a7>@@@?$__crt_seh_guarded_call@H@@QEAAH$$QEAV<lambda_b521505b218e5242e90febf6bfebc422>@@AEAV<lambda_6978c1fb23f02e42e1d9e99668cc68aa>@@$$QEAV<lambda_314360699dd331753a4119843814e9a7>@@@Z 0000000180033414 f i libucrt:commit.obj
 0001:000324a0       _commit                    00000001800334a0 f   libucrt:commit.obj
 0001:00032ad4       _write                     0000000180033ad4 f   libucrt:write.obj
 0001:00032bc0       _write_nolock              0000000180033bc0 f   libucrt:write.obj
 0001:00032eb0       log10                      0000000180033eb0 f   libucrt:log10.obj
 0001:000334f8       _lseeki64_nolock           00000001800344f8 f   libucrt:lseek.obj
 0001:00033500       _fclose_nolock             0000000180034500 f   libucrt:fclose.obj
 0001:00033584       fclose                     0000000180034584 f   libucrt:fclose.obj
 0001:000335f0       _putwch_nolock             00000001800345f0 f   libucrt:putwch.obj
 0001:00033770       _handle_error              0000000180034770 f   libucrt:libm_error.obj
 0001:000338a0       __acrt_initialize_fma3     00000001800348a0 f   libucrt:fma3_available.obj
 0001:00033910       _log10_special             0000000180034910 f   libucrt:log_special.obj
 0001:000339c8       ??$?RV<lambda_bfedae4ebbf01fab1bb6dcc6a9e276e0>@@AEAV<lambda_2fe9b910cf3cbf4a0ab98a02ba45b3ec>@@V<lambda_237c231691f317818eb88cc1d5d642d6>@@@?$__crt_seh_guarded_call@H@@QEAAH$$QEAV<lambda_bfedae4ebbf01fab1bb6dcc6a9e276e0>@@AEAV<lambda_2fe9b910cf3cbf4a0ab98a02ba45b3ec>@@$$QEAV<lambda_237c231691f317818eb88cc1d5d642d6>@@@Z 00000001800349c8 f i libucrt:close.obj
 0001:00033a3c       _close                     0000000180034a3c f   libucrt:close.obj
 0001:00033ae0       _close_nolock              0000000180034ae0 f   libucrt:close.obj
 0001:00033b9c       ?__acrt_stdio_free_stream@@YAXV__crt_stdio_stream@@@Z 0000000180034b9c f   libucrt:stream.obj
 0001:00033be0       __dcrt_lowio_initialize_console_output 0000000180034be0 f   libucrt:initcon.obj
 0001:00033c1c       __dcrt_terminate_console_output 0000000180034c1c f   libucrt:initcon.obj
 0001:00033c50       _get_fpsr                  0000000180034c50 f   libucrt:fpsr.obj
 0001:00033c60       _set_fpsr                  0000000180034c60 f   libucrt:fpsr.obj
 0001:00033c6a       _fclrf                     0000000180034c6a f   libucrt:fpsr.obj
 0001:00033c7e       _frnd                      0000000180034c7e f   libucrt:fpsr.obj
 0001:00033ca0       _raise_exc                 0000000180034ca0 f   libucrt:fpexcept.obj
 0001:00033cc8       _raise_exc_ex              0000000180034cc8 f   libucrt:fpexcept.obj
 0001:00033fd0       _set_errno_from_matherr    0000000180034fd0 f   libucrt:fpexcept.obj
 0001:00034000       _clrfp                     0000000180035000 f   libucrt:fpctrl.obj
 0001:00034020       _ctrlfp                    0000000180035020 f   libucrt:fpctrl.obj
 0001:0003409c       _set_statfp                000000018003509c f   libucrt:fpctrl.obj
 0001:000340bc       _statfp                    00000001800350bc f   libucrt:fpctrl.obj
 0001:000340ce       IsProcessorFeaturePresent  00000001800350ce f   kernel32:KERNEL32.dll
 0001:000340d4       RtlUnwindEx                00000001800350d4 f   kernel32:KERNEL32.dll
 0001:000340e0       _FindPESection             00000001800350e0 f   LIBCMT:pesect.obj
 0001:00034130       _IsNonwritableInCurrentImage 0000000180035130 f   LIBCMT:pesect.obj
 0001:00034180       _ValidateImageBase         0000000180035180 f   LIBCMT:pesect.obj
 0001:000341c0       _alloca_probe              00000001800351c0 f   LIBCMT:_chkstk_.obj
 0001:000341c0       __chkstk                   00000001800351c0 f   LIBCMT:_chkstk_.obj
 0001:00034230       memcmp                     0000000180035230 f   libvcruntime:memcmp.obj
 0001:000342f8       __GSHandlerCheck_EH        00000001800352f8 f   LIBCMT:gshandlereh.obj
 0001:00034390       _guard_dispatch_icall_nop  0000000180035390 f   LIBCMT:_guard_dispatch_.obj
 0001:00035220       ??__F_Static@?1???$_Immortalize@V_Iostream_error_category@std@@@std@@YAAEAV_Iostream_error_category@0@XZ@YAXXZ 0000000180036220 f i VError.obj
 0002:00000000       __imp_WriteConsoleW        0000000180037000     kernel32:KERNEL32.dll
 0002:00000008       __imp_SetFilePointerEx     0000000180037008     kernel32:KERNEL32.dll
 0002:00000010       __imp_GetConsoleMode       0000000180037010     kernel32:KERNEL32.dll
 0002:00000018       __imp_GetConsoleCP         0000000180037018     kernel32:KERNEL32.dll
 0002:00000020       __imp_FlushFileBuffers     0000000180037020     kernel32:KERNEL32.dll
 0002:00000028       __imp_WriteFile            0000000180037028     kernel32:KERNEL32.dll
 0002:00000030       __imp_SetStdHandle         0000000180037030     kernel32:KERNEL32.dll
 0002:00000038       __imp_HeapReAlloc          0000000180037038     kernel32:KERNEL32.dll
 0002:00000040       __imp_HeapSize             0000000180037040     kernel32:KERNEL32.dll
 0002:00000048       __imp_GetStringTypeW       0000000180037048     kernel32:KERNEL32.dll
 0002:00000050       __imp_GetFileType          0000000180037050     kernel32:KERNEL32.dll
 0002:00000058       __imp_GetStdHandle         0000000180037058     kernel32:KERNEL32.dll
 0002:00000060       __imp_GetProcessHeap       0000000180037060     kernel32:KERNEL32.dll
 0002:00000068       __imp_FreeEnvironmentStringsW 0000000180037068     kernel32:KERNEL32.dll
 0002:00000070       __imp_GetEnvironmentStringsW 0000000180037070     kernel32:KERNEL32.dll
 0002:00000078       __imp_GetCommandLineW      0000000180037078     kernel32:KERNEL32.dll
 0002:00000080       __imp_GetCommandLineA      0000000180037080     kernel32:KERNEL32.dll
 0002:00000088       __imp_GetCPInfo            0000000180037088     kernel32:KERNEL32.dll
 0002:00000090       __imp_GetOEMCP             0000000180037090     kernel32:KERNEL32.dll
 0002:00000098       __imp_IsValidCodePage      0000000180037098     kernel32:KERNEL32.dll
 0002:000000a0       __imp_FindNextFileA        00000001800370a0     kernel32:KERNEL32.dll
 0002:000000a8       __imp_FindFirstFileExA     00000001800370a8     kernel32:KERNEL32.dll
 0002:000000b0       __imp_FindClose            00000001800370b0     kernel32:KERNEL32.dll
 0002:000000b8       __imp_LCMapStringW         00000001800370b8     kernel32:KERNEL32.dll
 0002:000000c0       __imp_GetACP               00000001800370c0     kernel32:KERNEL32.dll
 0002:000000c8       __imp_HeapAlloc            00000001800370c8     kernel32:KERNEL32.dll
 0002:000000d0       __imp_HeapFree             00000001800370d0     kernel32:KERNEL32.dll
 0002:000000d8       __imp_MultiByteToWideChar  00000001800370d8     kernel32:KERNEL32.dll
 0002:000000e0       __imp_GetModuleFileNameA   00000001800370e0     kernel32:KERNEL32.dll
 0002:000000e8       __imp_GetModuleHandleExW   00000001800370e8     kernel32:KERNEL32.dll
 0002:000000f0       __imp_ExitProcess          00000001800370f0     kernel32:KERNEL32.dll
 0002:000000f8       __imp_SetLastError         00000001800370f8     kernel32:KERNEL32.dll
 0002:00000100       __imp_InterlockedFlushSList 0000000180037100     kernel32:KERNEL32.dll
 0002:00000108       __imp_LoadLibraryExW       0000000180037108     kernel32:KERNEL32.dll
 0002:00000110       __imp_FreeLibrary          0000000180037110     kernel32:KERNEL32.dll
 0002:00000118       __imp_TlsFree              0000000180037118     kernel32:KERNEL32.dll
 0002:00000120       __imp_TlsSetValue          0000000180037120     kernel32:KERNEL32.dll
 0002:00000128       __imp_TlsGetValue          0000000180037128     kernel32:KERNEL32.dll
 0002:00000130       __imp_TlsAlloc             0000000180037130     kernel32:KERNEL32.dll
 0002:00000138       __imp_InitializeCriticalSectionAndSpinCount 0000000180037138     kernel32:KERNEL32.dll
 0002:00000140       __imp_GetLastError         0000000180037140     kernel32:KERNEL32.dll
 0002:00000148       __imp_RtlUnwindEx          0000000180037148     kernel32:KERNEL32.dll
 0002:00000150       __imp_RaiseException       0000000180037150     kernel32:KERNEL32.dll
 0002:00000158       __imp_EncodePointer        0000000180037158     kernel32:KERNEL32.dll
 0002:00000160       __imp_RtlPcToFileHeader    0000000180037160     kernel32:KERNEL32.dll
 0002:00000168       __imp_InitializeSListHead  0000000180037168     kernel32:KERNEL32.dll
 0002:00000170       __imp_GetSystemTimeAsFileTime 0000000180037170     kernel32:KERNEL32.dll
 0002:00000178       __imp_GetCurrentThreadId   0000000180037178     kernel32:KERNEL32.dll
 0002:00000180       __imp_GetCurrentProcessId  0000000180037180     kernel32:KERNEL32.dll
 0002:00000188       __imp_QueryPerformanceCounter 0000000180037188     kernel32:KERNEL32.dll
 0002:00000190       __imp_GetStartupInfoW      0000000180037190     kernel32:KERNEL32.dll
 0002:00000198       __imp_IsDebuggerPresent    0000000180037198     kernel32:KERNEL32.dll
 0002:000001a0       __imp_IsProcessorFeaturePresent 00000001800371a0     kernel32:KERNEL32.dll
 0002:000001a8       __imp_TerminateProcess     00000001800371a8     kernel32:KERNEL32.dll
 0002:000001b0       __imp_GetCurrentProcess    00000001800371b0     kernel32:KERNEL32.dll
 0002:000001b8       __imp_SetUnhandledExceptionFilter 00000001800371b8     kernel32:KERNEL32.dll
 0002:000001c0       __imp_UnhandledExceptionFilter 00000001800371c0     kernel32:KERNEL32.dll
 0002:000001c8       __imp_RtlVirtualUnwind     00000001800371c8     kernel32:KERNEL32.dll
 0002:000001d0       __imp_RtlLookupFunctionEntry 00000001800371d0     kernel32:KERNEL32.dll
 0002:000001d8       __imp_RtlCaptureContext    00000001800371d8     kernel32:KERNEL32.dll
 0002:000001e0       __imp_GetProcAddress       00000001800371e0     kernel32:KERNEL32.dll
 0002:000001e8       __imp_GetModuleHandleW     00000001800371e8     kernel32:KERNEL32.dll
 0002:000001f0       __imp_CreateEventW         00000001800371f0     kernel32:KERNEL32.dll
 0002:000001f8       __imp_WaitForSingleObjectEx 00000001800371f8     kernel32:KERNEL32.dll
 0002:00000200       __imp_ResetEvent           0000000180037200     kernel32:KERNEL32.dll
 0002:00000208       __imp_SetEvent             0000000180037208     kernel32:KERNEL32.dll
 0002:00000210       __imp_DeleteCriticalSection 0000000180037210     kernel32:KERNEL32.dll
 0002:00000218       __imp_LeaveCriticalSection 0000000180037218     kernel32:KERNEL32.dll
 0002:00000220       __imp_WideCharToMultiByte  0000000180037220     kernel32:KERNEL32.dll
 0002:00000228       __imp_CloseHandle          0000000180037228     kernel32:KERNEL32.dll
 0002:00000230       __imp_EnterCriticalSection 0000000180037230     kernel32:KERNEL32.dll
 0002:00000238       __imp_CreateFileW          0000000180037238     kernel32:KERNEL32.dll
 0002:00000240       \177KERNEL32_NULL_THUNK_DATA 0000000180037240     kernel32:KERNEL32.dll
 0002:00000248       __imp_g_assertion_message_expr 0000000180037248     libglib-2.0:dgoks00041.o
 0002:00000258       __imp_vips__filename_split8 0000000180037258     libvips:dmrks00701.o
 0002:00000260       __imp_vips_area_unref      0000000180037260     libvips:dmrks00870.o
 0002:00000268       __imp_vips_array_double_get_type 0000000180037268     libvips:dmrks00883.o
 0002:00000270       __imp_vips_array_image_get_type 0000000180037270     libvips:dmrks00889.o
 0002:00000278       __imp_vips_blob_get_type   0000000180037278     libvips:dmrks00939.o
 0002:00000280       __imp_vips_blob_new        0000000180037280     libvips:dmrks00940.o
 0002:00000288       __imp_vips_cache_operation_buildp 0000000180037288     libvips:dmrks00992.o
 0002:00000290       __imp_vips_enum_from_nick  0000000180037290     libvips:dmrks01175.o
 0002:00000298       __imp_vips_error_buffer    0000000180037298     libvips:dmrks01185.o
 0002:000002a0       __imp_vips_error_clear     00000001800372a0     libvips:dmrks01186.o
 0002:000002a8       __imp_vips_foreign_find_load 00000001800372a8     libvips:dmrks01229.o
 0002:000002b0       __imp_vips_foreign_find_load_buffer 00000001800372b0     libvips:dmrks01230.o
 0002:000002b8       __imp_vips_foreign_find_save 00000001800372b8     libvips:dmrks01231.o
 0002:000002c0       __imp_vips_foreign_find_save_buffer 00000001800372c0     libvips:dmrks01232.o
 0002:000002c8       __imp_vips_format_sizeof_unsafe 00000001800372c8     libvips:dmrks01307.o
 0002:000002d0       __imp_vips_image_get_bands 00000001800372d0     libvips:dmrks01405.o
 0002:000002d8       __imp_vips_image_get_blob  00000001800372d8     libvips:dmrks01406.o
 0002:000002e0       __imp_vips_image_get_coding 00000001800372e0     libvips:dmrks01407.o
 0002:000002e8       __imp_vips_image_get_data  00000001800372e8     libvips:dmrks01408.o
 0002:000002f0       __imp_vips_image_get_double 00000001800372f0     libvips:dmrks01409.o
 0002:000002f8       __imp_vips_image_get_filename 00000001800372f8     libvips:dmrks01410.o
 0002:00000300       __imp_vips_image_get_format 0000000180037300     libvips:dmrks01411.o
 0002:00000308       __imp_vips_image_get_height 0000000180037308     libvips:dmrks01412.o
 0002:00000310       __imp_vips_image_get_int   0000000180037310     libvips:dmrks01414.o
 0002:00000318       __imp_vips_image_get_interpretation 0000000180037318     libvips:dmrks01415.o
 0002:00000320       __imp_vips_image_get_string 0000000180037320     libvips:dmrks01419.o
 0002:00000328       __imp_vips_image_get_type  0000000180037328     libvips:dmrks01420.o
 0002:00000330       __imp_vips_image_get_typeof 0000000180037330     libvips:dmrks01421.o
 0002:00000338       __imp_vips_image_get_width 0000000180037338     libvips:dmrks01422.o
 0002:00000340       __imp_vips_image_get_xoffset 0000000180037340     libvips:dmrks01423.o
 0002:00000348       __imp_vips_image_get_xres  0000000180037348     libvips:dmrks01424.o
 0002:00000350       __imp_vips_image_get_yoffset 0000000180037350     libvips:dmrks01425.o
 0002:00000358       __imp_vips_image_get_yres  0000000180037358     libvips:dmrks01426.o
 0002:00000360       __imp_vips_image_guess_interpretation 0000000180037360     libvips:dmrks01428.o
 0002:00000368       __imp_vips_image_new_from_memory 0000000180037368     libvips:dmrks01449.o
 0002:00000370       __imp_vips_image_new_matrix 0000000180037370     libvips:dmrks01451.o
 0002:00000378       __imp_vips_image_new_matrix_from_array 0000000180037378     libvips:dmrks01452.o
 0002:00000380       __imp_vips_image_new_memory 0000000180037380     libvips:dmrks01454.o
 0002:00000388       __imp_vips_image_new_temp_file 0000000180037388     libvips:dmrks01456.o
 0002:00000390       __imp_vips_image_set_blob  0000000180037390     libvips:dmrks01468.o
 0002:00000398       __imp_vips_image_set_double 0000000180037398     libvips:dmrks01470.o
 0002:000003a0       __imp_vips_image_set_int   00000001800373a0     libvips:dmrks01471.o
 0002:000003a8       __imp_vips_image_set_string 00000001800373a8     libvips:dmrks01474.o
 0002:000003b0       __imp_vips_image_write     00000001800373b0     libvips:dmrks01477.o
 0002:000003b8       __imp_vips_image_write_to_memory 00000001800373b8     libvips:dmrks01482.o
 0002:000003c0       __imp_vips_interpolate_get_type 00000001800373c0     libvips:dmrks01496.o
 0002:000003c8       __imp_vips_interpolate_new 00000001800373c8     libvips:dmrks01503.o
 0002:000003d0       __imp_vips_object_get_argument 00000001800373d0     libvips:dmrks01629.o
 0002:000003d8       __imp_vips_object_get_type 00000001800373d8     libvips:dmrks01635.o
 0002:000003e0       __imp_vips_object_set_from_string 00000001800373e0     libvips:dmrks01652.o
 0002:000003e8       __imp_vips_object_unref_outputs 00000001800373e8     libvips:dmrks01659.o
 0002:000003f0       __imp_vips_operation_new   00000001800373f0     libvips:dmrks01674.o
 0002:000003f8       __imp_vips_value_get_array_double 00000001800373f8     libvips:dmrks01919.o
 0002:00000400       __imp_vips_value_get_array_image 0000000180037400     libvips:dmrks01920.o
 0002:00000408       __imp_vips_value_set_array_double 0000000180037408     libvips:dmrks01929.o
 0002:00000410       __imp_vips_value_set_array_image 0000000180037410     libvips:dmrks01930.o
 0002:00000418       __imp_vips_warn            0000000180037418     libvips:dmrks01964.o
 0002:00000428       __imp_g_object_get_property 0000000180037428     libgobject-2.0:dqoks00125.o
 0002:00000430       __imp_g_object_ref         0000000180037430     libgobject-2.0:dqoks00138.o
 0002:00000438       __imp_g_object_set_property 0000000180037438     libgobject-2.0:dqoks00148.o
 0002:00000440       __imp_g_object_unref       0000000180037440     libgobject-2.0:dqoks00155.o
 0002:00000448       __imp_g_param_spec_types   0000000180037448     libgobject-2.0:dqoks00196.o
 0002:00000450       __imp_g_type_check_instance_cast 0000000180037450     libgobject-2.0:dqoks00271.o
 0002:00000458       __imp_g_type_check_instance_is_a 0000000180037458     libgobject-2.0:dqoks00272.o
 0002:00000460       __imp_g_value_dup_boxed    0000000180037460     libgobject-2.0:dqoks00353.o
 0002:00000468       __imp_g_value_get_boolean  0000000180037468     libgobject-2.0:dqoks00359.o
 0002:00000470       __imp_g_value_get_double   0000000180037470     libgobject-2.0:dqoks00362.o
 0002:00000478       __imp_g_value_get_int      0000000180037478     libgobject-2.0:dqoks00367.o
 0002:00000480       __imp_g_value_get_object   0000000180037480     libgobject-2.0:dqoks00370.o
 0002:00000488       __imp_g_value_get_string   0000000180037488     libgobject-2.0:dqoks00374.o
 0002:00000490       __imp_g_value_init         0000000180037490     libgobject-2.0:dqoks00381.o
 0002:00000498       __imp_g_value_set_boolean  0000000180037498     libgobject-2.0:dqoks00386.o
 0002:000004a0       __imp_g_value_set_boxed    00000001800374a0     libgobject-2.0:dqoks00387.o
 0002:000004a8       __imp_g_value_set_double   00000001800374a8     libgobject-2.0:dqoks00390.o
 0002:000004b0       __imp_g_value_set_enum     00000001800374b0     libgobject-2.0:dqoks00391.o
 0002:000004b8       __imp_g_value_set_int      00000001800374b8     libgobject-2.0:dqoks00396.o
 0002:000004c0       __imp_g_value_set_object   00000001800374c0     libgobject-2.0:dqoks00399.o
 0002:000004c8       __imp_g_value_set_string   00000001800374c8     libgobject-2.0:dqoks00407.o
 0002:000004d0       __imp_g_value_unset        00000001800374d0     libgobject-2.0:dqoks00422.o
 0002:000004e0       __guard_check_icall_fptr   00000001800374e0     LIBCMT:guard_support.obj
 0002:000004e8       __guard_dispatch_icall_fptr 00000001800374e8     LIBCMT:guard_support.obj
 0002:000004f0       __xc_a                     00000001800374f0     LIBCMT:initializers.obj
 0002:000004f8       __xc_z                     00000001800374f8     LIBCMT:initializers.obj
 0002:00000500       __xi_a                     0000000180037500     LIBCMT:initializers.obj
 0002:00000510       __acrt_multibyte_initializer 0000000180037510     libucrt:multibyte_initializer.obj
 0002:00000518       __acrt_stdio_initializer   0000000180037518     libucrt:stdio_initializer.obj
 0002:00000520       __acrt_tran_fma3_initializer 0000000180037520     libucrt:fma3_initializer.obj
 0002:00000528       __xi_z                     0000000180037528     LIBCMT:initializers.obj
 0002:00000530       __xl_a                     0000000180037530     LIBCMT:tlssup.obj
 0002:00000538       __xl_z                     0000000180037538     LIBCMT:tlssup.obj
 0002:00000540       __xp_a                     0000000180037540     LIBCMT:initializers.obj
 0002:00000548       __acrt_locale_terminator   0000000180037548     libucrt:locale_initializer.obj
 0002:00000550       __dcrt_console_output_terminator 0000000180037550     libucrt:console_output_initializer.obj
 0002:00000558       __acrt_stdio_terminator    0000000180037558     libucrt:stdio_initializer.obj
 0002:00000560       __xp_z                     0000000180037560     LIBCMT:initializers.obj
 0002:00000568       __xt_a                     0000000180037568     LIBCMT:initializers.obj
 0002:00000570       __xt_z                     0000000180037570     LIBCMT:initializers.obj
 0002:00000588       ??_7exception@std@@6B@     0000000180037588     libcpmt:xthrow.obj
 0002:00000598       ??_C@_0BC@EOODALEL@Unknown?5exception?$AA@ 0000000180037598     libcpmt:xthrow.obj
 0002:000005b8       ??_7bad_alloc@std@@6B@     00000001800375b8     libcpmt:xthrow.obj
 0002:000005c8       ??_C@_0P@GHFPNOJB@bad?5allocation?$AA@ 00000001800375c8     libcpmt:xthrow.obj
 0002:000005e0       ??_7logic_error@std@@6B@   00000001800375e0     libcpmt:xthrow.obj
 0002:000005f8       ??_7length_error@std@@6B@  00000001800375f8     libcpmt:xthrow.obj
 0002:00000610       ??_7out_of_range@std@@6B@  0000000180037610     libcpmt:xthrow.obj
 0002:00000628       ??_7runtime_error@std@@6B@ 0000000180037628     libcpmt:xthrow.obj
 0002:00000d70       ??_C@_0BN@LKKBCCDB@address?5family?5not?5supported?$AA@ 0000000180037d70     libcpmt:syserror.obj
 0002:00000d90       ??_C@_0P@LDMLAFHI@address?5in?5use?$AA@ 0000000180037d90     libcpmt:syserror.obj
 0002:00000da0       ??_C@_0BG@DHPCNBJB@address?5not?5available?$AA@ 0000000180037da0     libcpmt:syserror.obj
 0002:00000db8       ??_C@_0BC@DFIBIBIL@already?5connected?$AA@ 0000000180037db8     libcpmt:syserror.obj
 0002:00000dd0       ??_C@_0BH@CAKOHOMI@argument?5list?5too?5long?$AA@ 0000000180037dd0     libcpmt:syserror.obj
 0002:00000de8       ??_C@_0BH@CGIMPKIM@argument?5out?5of?5domain?$AA@ 0000000180037de8     libcpmt:syserror.obj
 0002:00000e00       ??_C@_0M@KGHGGJGL@bad?5address?$AA@ 0000000180037e00     libcpmt:syserror.obj
 0002:00000e10       ??_C@_0BE@MPJPGCEO@bad?5file?5descriptor?$AA@ 0000000180037e10     libcpmt:syserror.obj
 0002:00000e28       ??_C@_0M@PMMIEFCP@bad?5message?$AA@ 0000000180037e28     libcpmt:syserror.obj
 0002:00000e38       ??_C@_0M@KPHOFDBE@broken?5pipe?$AA@ 0000000180037e38     libcpmt:syserror.obj
 0002:00000e48       ??_C@_0BD@MGNDDEGM@connection?5aborted?$AA@ 0000000180037e48     libcpmt:syserror.obj
 0002:00000e60       ??_C@_0BP@KAIHPOGN@connection?5already?5in?5progress?$AA@ 0000000180037e60     libcpmt:syserror.obj
 0002:00000e80       ??_C@_0BD@PJLIIJEL@connection?5refused?$AA@ 0000000180037e80     libcpmt:syserror.obj
 0002:00000e98       ??_C@_0BB@IECNJNOI@connection?5reset?$AA@ 0000000180037e98     libcpmt:syserror.obj
 0002:00000eb0       ??_C@_0BC@PPHBOELF@cross?5device?5link?$AA@ 0000000180037eb0     libcpmt:syserror.obj
 0002:00000ec8       ??_C@_0BN@KDMIFEIP@destination?5address?5required?$AA@ 0000000180037ec8     libcpmt:syserror.obj
 0002:00000ee8       ??_C@_0BI@NGCEHDD@device?5or?5resource?5busy?$AA@ 0000000180037ee8     libcpmt:syserror.obj
 0002:00000f00       ??_C@_0BE@JIDOCPHM@directory?5not?5empty?$AA@ 0000000180037f00     libcpmt:syserror.obj
 0002:00000f18       ??_C@_0BI@BNCLIGPB@executable?5format?5error?$AA@ 0000000180037f18     libcpmt:syserror.obj
 0002:00000f30       ??_C@_0M@MIDIAGJP@file?5exists?$AA@ 0000000180037f30     libcpmt:syserror.obj
 0002:00000f40       ??_C@_0P@DNAJLBJK@file?5too?5large?$AA@ 0000000180037f40     libcpmt:syserror.obj
 0002:00000f50       ??_C@_0BC@EJHOMAAK@filename?5too?5long?$AA@ 0000000180037f50     libcpmt:syserror.obj
 0002:00000f68       ??_C@_0BH@KEFGLDAF@function?5not?5supported?$AA@ 0000000180037f68     libcpmt:syserror.obj
 0002:00000f80       ??_C@_0BB@DHFDFGDM@host?5unreachable?$AA@ 0000000180037f80     libcpmt:syserror.obj
 0002:00000f98       ??_C@_0BD@JPHBMONG@identifier?5removed?$AA@ 0000000180037f98     libcpmt:syserror.obj
 0002:00000fb0       ??_C@_0BG@CDNPAGJK@illegal?5byte?5sequence?$AA@ 0000000180037fb0     libcpmt:syserror.obj
 0002:00000fc8       ??_C@_0CD@BNPLBMNA@inappropriate?5io?5control?5operati@ 0000000180037fc8     libcpmt:syserror.obj
 0002:00000ff0       ??_C@_0M@EGEKIIMP@interrupted?$AA@ 0000000180037ff0     libcpmt:syserror.obj
 0002:00001000       ??_C@_0BB@FCMFBGOM@invalid?5argument?$AA@ 0000000180038000     libcpmt:syserror.obj
 0002:00001018       ??_C@_0N@OHAFKDEK@invalid?5seek?$AA@ 0000000180038018     libcpmt:syserror.obj
 0002:00001028       ??_C@_08GLNPIFBN@io?5error?$AA@ 0000000180038028     libcpmt:syserror.obj
 0002:00001038       ??_C@_0P@FLLDBIDK@is?5a?5directory?$AA@ 0000000180038038     libcpmt:syserror.obj
 0002:00001048       ??_C@_0N@IFLPBIOP@message?5size?$AA@ 0000000180038048     libcpmt:syserror.obj
 0002:00001058       ??_C@_0N@KIIEAAIO@network?5down?$AA@ 0000000180038058     libcpmt:syserror.obj
 0002:00001068       ??_C@_0O@FNPDBHEE@network?5reset?$AA@ 0000000180038068     libcpmt:syserror.obj
 0002:00001078       ??_C@_0BE@IFNCKGE@network?5unreachable?$AA@ 0000000180038078     libcpmt:syserror.obj
 0002:00001090       ??_C@_0BA@PFFCAOFK@no?5buffer?5space?$AA@ 0000000180038090     libcpmt:syserror.obj
 0002:000010a0       ??_C@_0BB@IEPBLJHK@no?5child?5process?$AA@ 00000001800380a0     libcpmt:syserror.obj
 0002:000010b8       ??_C@_07PLECNNKG@no?5link?$AA@ 00000001800380b8     libcpmt:syserror.obj
 0002:000010c0       ??_C@_0BC@NJECKMKE@no?5lock?5available?$AA@ 00000001800380c0     libcpmt:syserror.obj
 0002:000010d8       ??_C@_0BF@PBGGPKKE@no?5message?5available?$AA@ 00000001800380d8     libcpmt:syserror.obj
 0002:000010f0       ??_C@_0L@EDOLMPAK@no?5message?$AA@ 00000001800380f0     libcpmt:syserror.obj
 0002:00001100       ??_C@_0BD@EAMBFIDF@no?5protocol?5option?$AA@ 0000000180038100     libcpmt:syserror.obj
 0002:00001118       ??_C@_0BD@IJDJKDEA@no?5space?5on?5device?$AA@ 0000000180038118     libcpmt:syserror.obj
 0002:00001130       ??_C@_0BE@MKFDAFMP@no?5stream?5resources?$AA@ 0000000180038130     libcpmt:syserror.obj
 0002:00001148       ??_C@_0BK@IMCPHCBI@no?5such?5device?5or?5address?$AA@ 0000000180038148     libcpmt:syserror.obj
 0002:00001168       ??_C@_0P@FDINDDOK@no?5such?5device?$AA@ 0000000180038168     libcpmt:syserror.obj
 0002:00001178       ??_C@_0BK@NDOCBPGE@no?5such?5file?5or?5directory?$AA@ 0000000180038178     libcpmt:syserror.obj
 0002:00001198       ??_C@_0BA@ENLPPKBN@no?5such?5process?$AA@ 0000000180038198     libcpmt:syserror.obj
 0002:000011a8       ??_C@_0BA@DOCPFFJG@not?5a?5directory?$AA@ 00000001800381a8     libcpmt:syserror.obj
 0002:000011b8       ??_C@_0N@POEIPGGF@not?5a?5socket?$AA@ 00000001800381b8     libcpmt:syserror.obj
 0002:000011c8       ??_C@_0N@LGAPMMPI@not?5a?5stream?$AA@ 00000001800381c8     libcpmt:syserror.obj
 0002:000011d8       ??_C@_0O@GLMIBBEG@not?5connected?$AA@ 00000001800381d8     libcpmt:syserror.obj
 0002:000011e8       ??_C@_0BC@ENOOLCNF@not?5enough?5memory?$AA@ 00000001800381e8     libcpmt:syserror.obj
 0002:00001200       ??_C@_0O@NHEDABJP@not?5supported?$AA@ 0000000180038200     libcpmt:syserror.obj
 0002:00001210       ??_C@_0BD@MOLBPMEA@operation?5canceled?$AA@ 0000000180038210     libcpmt:syserror.obj
 0002:00001228       ??_C@_0BG@KDKHOPCO@operation?5in?5progress?$AA@ 0000000180038228     libcpmt:syserror.obj
 0002:00001240       ??_C@_0BI@OHIEJAAB@operation?5not?5permitted?$AA@ 0000000180038240     libcpmt:syserror.obj
 0002:00001258       ??_C@_0BI@LNEGIFLN@operation?5not?5supported?$AA@ 0000000180038258     libcpmt:syserror.obj
 0002:00001270       ??_C@_0BG@OEMDKMEE@operation?5would?5block?$AA@ 0000000180038270     libcpmt:syserror.obj
 0002:00001288       ??_C@_0L@BLPOFLNJ@owner?5dead?$AA@ 0000000180038288     libcpmt:syserror.obj
 0002:00001298       ??_C@_0BC@CIJDGCDI@permission?5denied?$AA@ 0000000180038298     libcpmt:syserror.obj
 0002:000012b0       ??_C@_0P@FNPOCJBE@protocol?5error?$AA@ 00000001800382b0     libcpmt:syserror.obj
 0002:000012c0       ??_C@_0BH@JPPPLHJB@protocol?5not?5supported?$AA@ 00000001800382c0     libcpmt:syserror.obj
 0002:000012d8       ??_C@_0BG@EICBIHDP@read?5only?5file?5system?$AA@ 00000001800382d8     libcpmt:syserror.obj
 0002:000012f0       ??_C@_0BO@BJBOMOEJ@resource?5deadlock?5would?5occur?$AA@ 00000001800382f0     libcpmt:syserror.obj
 0002:00001310       ??_C@_0BP@LKNGHENJ@resource?5unavailable?5try?5again?$AA@ 0000000180038310     libcpmt:syserror.obj
 0002:00001330       ??_C@_0BE@GOIPJJHG@result?5out?5of?5range?$AA@ 0000000180038330     libcpmt:syserror.obj
 0002:00001348       ??_C@_0BG@MPLKFPAE@state?5not?5recoverable?$AA@ 0000000180038348     libcpmt:syserror.obj
 0002:00001360       ??_C@_0P@DIIFGFCG@stream?5timeout?$AA@ 0000000180038360     libcpmt:syserror.obj
 0002:00001370       ??_C@_0P@IPFDMIFL@text?5file?5busy?$AA@ 0000000180038370     libcpmt:syserror.obj
 0002:00001380       ??_C@_09KJPPMAOI@timed?5out?$AA@ 0000000180038380     libcpmt:syserror.obj
 0002:00001390       ??_C@_0BO@HACHBEKI@too?5many?5files?5open?5in?5system?$AA@ 0000000180038390     libcpmt:syserror.obj
 0002:000013b0       ??_C@_0BE@GHAFMPAH@too?5many?5files?5open?$AA@ 00000001800383b0     libcpmt:syserror.obj
 0002:000013c8       ??_C@_0P@HCOMKFCC@too?5many?5links?$AA@ 00000001800383c8     libcpmt:syserror.obj
 0002:000013d8       ??_C@_0BO@EFGOJEF@too?5many?5symbolic?5link?5levels?$AA@ 00000001800383d8     libcpmt:syserror.obj
 0002:000013f8       ??_C@_0BA@KGKGOOJA@value?5too?5large?$AA@ 00000001800383f8     libcpmt:syserror.obj
 0002:00001408       ??_C@_0BE@MIEJDDNH@wrong?5protocol?5type?$AA@ 0000000180038408     libcpmt:syserror.obj
 0002:00001420       ??_C@_0O@BFJCFAAK@unknown?5error?$AA@ 0000000180038420     libcpmt:syserror.obj
 0002:00001430       ??_C@_1BK@MGMFAEKH@?$AAk?$AAe?$AAr?$AAn?$AAe?$AAl?$AA3?$AA2?$AA?4?$AAd?$AAl?$AAl?$AA?$AA@ 0000000180038430     LIBCMT:thread_safe_statics.obj
 0002:00001450       ??_C@_0BM@HLJJNPAH@InitializeConditionVariable?$AA@ 0000000180038450     LIBCMT:thread_safe_statics.obj
 0002:00001470       ??_C@_0BJ@JEBJOJFJ@SleepConditionVariableCS?$AA@ 0000000180038470     LIBCMT:thread_safe_statics.obj
 0002:00001490       ??_C@_0BJ@PGPPEPCC@WakeAllConditionVariable?$AA@ 0000000180038490     LIBCMT:thread_safe_statics.obj
 0002:000014b8       ??_7type_info@@6B@         00000001800384b8     LIBCMT:std_type_info_static.obj
 0002:000014c0       _pRawDllMain               00000001800384c0     LIBCMT:dll_dllmain.obj
 0002:000014c0       _pDefaultRawDllMain        00000001800384c0     LIBCMT:dll_dllmain.obj
 0002:000014e0       ??_7bad_array_new_length@std@@6B@ 00000001800384e0     LIBCMT:throw_bad_alloc.obj
 0002:000014f0       ??_C@_0BF@KINCDENJ@bad?5array?5new?5length?$AA@ 00000001800384f0     LIBCMT:throw_bad_alloc.obj
 0002:00001508       _pDestructExceptionObject  0000000180038508     libvcruntime:frame.obj
 0002:00001518       ??_7bad_exception@std@@6B@ 0000000180038518     libvcruntime:frame.obj
 0002:00001528       ??_C@_0O@DPKOEFFH@bad?5exception?$AA@ 0000000180038528     libvcruntime:frame.obj
 0002:00001638       ??_C@_1BC@DNHGCMLG@?$AAa?$AAd?$AAv?$AAa?$AAp?$AAi?$AA3?$AA2?$AA?$AA@ 0000000180038638     libvcruntime:winapi_downlevel.obj
 0002:00001650       ??_C@_1DM@KHCHBNEB@?$AAa?$AAp?$AAi?$AA?9?$AAm?$AAs?$AA?9?$AAw?$AAi?$AAn?$AA?9?$AAc?$AAo?$AAr?$AAe?$AA?9?$AAf?$AAi?$AAb?$AAe?$AAr?$AAs?$AA?9?$AAl?$AA1?$AA?9?$AA1?$AA?9?$AA1?$AA?$AA@ 0000000180038650     libvcruntime:winapi_downlevel.obj
 0002:00001690       ??_C@_1DK@LPPGFMPP@?$AAa?$AAp?$AAi?$AA?9?$AAm?$AAs?$AA?9?$AAw?$AAi?$AAn?$AA?9?$AAc?$AAo?$AAr?$AAe?$AA?9?$AAs?$AAy?$AAn?$AAc?$AAh?$AA?9?$AAl?$AA1?$AA?9?$AA2?$AA?9?$AA0?$AA?$AA@ 0000000180038690     libvcruntime:winapi_downlevel.obj
 0002:000016d0       ??_C@_1BC@GDMECMAK@?$AAk?$AAe?$AAr?$AAn?$AAe?$AAl?$AA3?$AA2?$AA?$AA@ 00000001800386d0     libvcruntime:winapi_downlevel.obj
 0002:000016f0       ??_C@_08KNHFBNJ@FlsAlloc?$AA@ 00000001800386f0     libvcruntime:winapi_downlevel.obj
 0002:00001708       ??_C@_07PEJMOBNF@FlsFree?$AA@ 0000000180038708     libvcruntime:winapi_downlevel.obj
 0002:00001718       ??_C@_0M@GDNOONDI@FlsGetValue?$AA@ 0000000180038718     libvcruntime:winapi_downlevel.obj
 0002:00001730       ??_C@_0M@JCPCPOEF@FlsSetValue?$AA@ 0000000180038730     libvcruntime:winapi_downlevel.obj
 0002:00001748       ??_C@_0BM@HCFOFFN@InitializeCriticalSectionEx?$AA@ 0000000180038748     libvcruntime:winapi_downlevel.obj
 0002:00001a90       ??_C@_08EHJDFFNH@__based?$CI?$AA@ 0000000180038a90     libvcruntime:undname.obj
 0002:00001aa0       ??_C@_07KOLFKCDI@__cdecl?$AA@ 0000000180038aa0     libvcruntime:undname.obj
 0002:00001aa8       ??_C@_08GHMPAG@__pascal?$AA@ 0000000180038aa8     libvcruntime:undname.obj
 0002:00001ab8       ??_C@_09IFJBGAPI@__stdcall?$AA@ 0000000180038ab8     libvcruntime:undname.obj
 0002:00001ac8       ??_C@_0L@NPHFGOKO@__thiscall?$AA@ 0000000180038ac8     libvcruntime:undname.obj
 0002:00001ad8       ??_C@_0L@JMKHOMEK@__fastcall?$AA@ 0000000180038ad8     libvcruntime:undname.obj
 0002:00001ae8       ??_C@_0N@BCKKPABJ@__vectorcall?$AA@ 0000000180038ae8     libvcruntime:undname.obj
 0002:00001af8       ??_C@_09HIJEGCPM@__clrcall?$AA@ 0000000180038af8     libvcruntime:undname.obj
 0002:00001b04       ??_C@_06GHPCKEAG@__eabi?$AA@ 0000000180038b04     libvcruntime:undname.obj
 0002:00001b10       ??_C@_07JOMMBBKO@__ptr64?$AA@ 0000000180038b10     libvcruntime:undname.obj
 0002:00001b18       ??_C@_0L@PILCLIHE@__restrict?$AA@ 0000000180038b18     libvcruntime:undname.obj
 0002:00001b28       ??_C@_0M@GFIIJFMG@__unaligned?$AA@ 0000000180038b28     libvcruntime:undname.obj
 0002:00001b38       ??_C@_09DHDLOLLB@restrict?$CI?$AA@ 0000000180038b38     libvcruntime:undname.obj
 0002:00001b42       ??_C@_00CNPNBAHC@?$AA@     0000000180038b42     libvcruntime:undname.obj
 0002:00001b44       ??_C@_04NIHEBCM@?5new?$AA@ 0000000180038b44     libvcruntime:undname.obj
 0002:00001b50       ??_C@_07FPCDHGMM@?5delete?$AA@ 0000000180038b50     libvcruntime:undname.obj
 0002:00001b58       ??_C@_01NEMOKFLO@?$DN?$AA@ 0000000180038b58     libvcruntime:undname.obj
 0002:00001b5c       ??_C@_02GPIOPFAK@?$DO?$DO?$AA@ 0000000180038b5c     libvcruntime:undname.obj
 0002:00001b60       ??_C@_02FODMEDOG@?$DM?$DM?$AA@ 0000000180038b60     libvcruntime:undname.obj
 0002:00001b64       ??_C@_01DCLJPIOD@?$CB?$AA@ 0000000180038b64     libvcruntime:undname.obj
 0002:00001b68       ??_C@_02EGOFBIJA@?$DN?$DN?$AA@ 0000000180038b68     libvcruntime:undname.obj
 0002:00001b6c       ??_C@_02FDNJECIE@?$CB?$DN?$AA@ 0000000180038b6c     libvcruntime:undname.obj
 0002:00001b70       ??_C@_02GPECMEKF@?$FL?$FN?$AA@ 0000000180038b70     libvcruntime:undname.obj
 0002:00001b78       ??_C@_08LHJFAFGD@operator?$AA@ 0000000180038b78     libvcruntime:undname.obj
 0002:00001b84       ??_C@_02HBOOOICD@?9?$DO?$AA@ 0000000180038b84     libvcruntime:undname.obj
 0002:00001b88       ??_C@_01NBENCBCI@?$CK?$AA@ 0000000180038b88     libvcruntime:undname.obj
 0002:00001b8c       ??_C@_02ECNGHCIF@?$CL?$CL?$AA@ 0000000180038b8c     libvcruntime:undname.obj
 0002:00001b90       ??_C@_02BAABKJLB@?9?9?$AA@ 0000000180038b90     libvcruntime:undname.obj
 0002:00001b94       ??_C@_01JOAMLHOP@?9?$AA@   0000000180038b94     libvcruntime:undname.obj
 0002:00001b98       ??_C@_01MIFGBAGJ@?$CL?$AA@ 0000000180038b98     libvcruntime:undname.obj
 0002:00001b9c       ??_C@_01HNPIGOCE@?$CG?$AA@ 0000000180038b9c     libvcruntime:undname.obj
 0002:00001ba0       ??_C@_03MNHNFDLC@?9?$DO?$CK?$AA@ 0000000180038ba0     libvcruntime:undname.obj
 0002:00001ba4       ??_C@_01KMDKNFGN@?1?$AA@   0000000180038ba4     libvcruntime:undname.obj
 0002:00001ba8       ??_C@_01FGNFDNOH@?$CF?$AA@ 0000000180038ba8     libvcruntime:undname.obj
 0002:00001bac       ??_C@_01MNNFJEPP@?$DM?$AA@ 0000000180038bac     libvcruntime:undname.obj
 0002:00001bb0       ??_C@_02EHCHHCKH@?$DM?$DN?$AA@ 0000000180038bb0     libvcruntime:undname.obj
 0002:00001bb4       ??_C@_01PPODPGHN@?$DO?$AA@ 0000000180038bb4     libvcruntime:undname.obj
 0002:00001bb8       ??_C@_02EEKDKGMJ@?$DO?$DN?$AA@ 0000000180038bb8     libvcruntime:undname.obj
 0002:00001bbc       ??_C@_01IHBHIGKO@?0?$AA@   0000000180038bbc     libvcruntime:undname.obj
 0002:00001bc0       ??_C@_02HCKGKOFO@?$CI?$CJ?$AA@ 0000000180038bc0     libvcruntime:undname.obj
 0002:00001bc4       ??_C@_01PJKLJHI@?$HO?$AA@  0000000180038bc4     libvcruntime:undname.obj
 0002:00001bc8       ??_C@_01JKBOJNNK@?$FO?$AA@ 0000000180038bc8     libvcruntime:undname.obj
 0002:00001bcc       ??_C@_01DNKMNLPK@?$HM?$AA@ 0000000180038bcc     libvcruntime:undname.obj
 0002:00001bd0       ??_C@_02PPKAJPJL@?$CG?$CG?$AA@ 0000000180038bd0     libvcruntime:undname.obj
 0002:00001bd4       ??_C@_02NONPIBCD@?$HM?$HM?$AA@ 0000000180038bd4     libvcruntime:undname.obj
 0002:00001bd8       ??_C@_02FPIMKNGF@?$CK?$DN?$AA@ 0000000180038bd8     libvcruntime:undname.obj
 0002:00001bdc       ??_C@_02FOEOMHFC@?$CL?$DN?$AA@ 0000000180038bdc     libvcruntime:undname.obj
 0002:00001be0       ??_C@_02FKMDLLOA@?9?$DN?$AA@ 0000000180038be0     libvcruntime:undname.obj
 0002:00001be4       ??_C@_02FJEHGPIO@?1?$DN?$AA@ 0000000180038be4     libvcruntime:undname.obj
 0002:00001be8       ??_C@_02FENAOKFI@?$CF?$DN?$AA@ 0000000180038be8     libvcruntime:undname.obj
 0002:00001bec       ??_C@_03IKFCCPFF@?$DO?$DO?$DN?$AA@ 0000000180038bec     libvcruntime:undname.obj
 0002:00001bf0       ??_C@_03CDNPDDLA@?$DM?$DM?$DN?$AA@ 0000000180038bf0     libvcruntime:undname.obj
 0002:00001bf4       ??_C@_02FGJGFEAB@?$CG?$DN?$AA@ 0000000180038bf4     libvcruntime:undname.obj
 0002:00001bf8       ??_C@_02DHLNPPGH@?$HM?$DN?$AA@ 0000000180038bf8     libvcruntime:undname.obj
 0002:00001bfc       ??_C@_02MHEGNOJ@?$FO?$DN?$AA@ 0000000180038bfc     libvcruntime:undname.obj
 0002:00001c00       ??_C@_09IFPLHPGF@?$GAvftable?8?$AA@ 0000000180038c00     libvcruntime:undname.obj
 0002:00001c10       ??_C@_09BLBHBJP@?$GAvbtable?8?$AA@ 0000000180038c10     libvcruntime:undname.obj
 0002:00001c20       ??_C@_07FEEIOKP@?$GAvcall?8?$AA@ 0000000180038c20     libvcruntime:undname.obj
 0002:00001c28       ??_C@_08LLFFHHDJ@?$GAtypeof?8?$AA@ 0000000180038c28     libvcruntime:undname.obj
 0002:00001c38       ??_C@_0BF@KDPPACIK@?$GAlocal?5static?5guard?8?$AA@ 0000000180038c38     libvcruntime:undname.obj
 0002:00001c50       ??_C@_08OBABFOLI@?$GAstring?8?$AA@ 0000000180038c50     libvcruntime:undname.obj
 0002:00001c60       ??_C@_0BD@JDLKDPAB@?$GAvbase?5destructor?8?$AA@ 0000000180038c60     libvcruntime:undname.obj
 0002:00001c78       ??_C@_0BN@DEGPLNFK@?$GAvector?5deleting?5destructor?8?$AA@ 0000000180038c78     libvcruntime:undname.obj
 0002:00001c98       ??_C@_0BO@OBMKPJIG@?$GAdefault?5constructor?5closure?8?$AA@ 0000000180038c98     libvcruntime:undname.obj
 0002:00001cb8       ??_C@_0BN@IMDCHIKM@?$GAscalar?5deleting?5destructor?8?$AA@ 0000000180038cb8     libvcruntime:undname.obj
 0002:00001cd8       ??_C@_0BO@PFGOCPJJ@?$GAvector?5constructor?5iterator?8?$AA@ 0000000180038cd8     libvcruntime:undname.obj
 0002:00001cf8       ??_C@_0BN@LFPFMEDL@?$GAvector?5destructor?5iterator?8?$AA@ 0000000180038cf8     libvcruntime:undname.obj
 0002:00001d18       ??_C@_0CE@IKBNEHA@?$GAvector?5vbase?5constructor?5iterat@ 0000000180038d18     libvcruntime:undname.obj
 0002:00001d40       ??_C@_0BL@NILFHHPC@?$GAvirtual?5displacement?5map?8?$AA@ 0000000180038d40     libvcruntime:undname.obj
 0002:00001d60       ??_C@_0CB@JONCMFFK@?$GAeh?5vector?5constructor?5iterator?8@ 0000000180038d60     libvcruntime:undname.obj
 0002:00001d88       ??_C@_0CA@GCEOPDGL@?$GAeh?5vector?5destructor?5iterator?8?$AA@ 0000000180038d88     libvcruntime:undname.obj
 0002:00001da8       ??_C@_0CH@OOJPLCPH@?$GAeh?5vector?5vbase?5constructor?5ite@ 0000000180038da8     libvcruntime:undname.obj
 0002:00001dd0       ??_C@_0BL@LLKPOHJI@?$GAcopy?5constructor?5closure?8?$AA@ 0000000180038dd0     libvcruntime:undname.obj
 0002:00001df0       ??_C@_0BA@KBCDOMBN@?$GAudt?5returning?8?$AA@ 0000000180038df0     libvcruntime:undname.obj
 0002:00001e00       ??_C@_03KLGMFNMG@?$GAEH?$AA@ 0000000180038e00     libvcruntime:undname.obj
 0002:00001e04       ??_C@_05KHLCHHI@?$GARTTI?$AA@ 0000000180038e04     libvcruntime:undname.obj
 0002:00001e10       ??_C@_0BA@KKLDJDLB@?$GAlocal?5vftable?8?$AA@ 0000000180038e10     libvcruntime:undname.obj
 0002:00001e20       ??_C@_0CE@IIHCMGGL@?$GAlocal?5vftable?5constructor?5closu@ 0000000180038e20     libvcruntime:undname.obj
 0002:00001e44       ??_C@_06FHBGPFGH@?5new?$FL?$FN?$AA@ 0000000180038e44     libvcruntime:undname.obj
 0002:00001e50       ??_C@_09LBNFPBCA@?5delete?$FL?$FN?$AA@ 0000000180038e50     libvcruntime:undname.obj
 0002:00001e60       ??_C@_0P@HJKNJFNN@?$GAomni?5callsig?8?$AA@ 0000000180038e60     libvcruntime:undname.obj
 0002:00001e70       ??_C@_0BL@CNOONJFP@?$GAplacement?5delete?5closure?8?$AA@ 0000000180038e70     libvcruntime:undname.obj
 0002:00001e90       ??_C@_0BN@CKNJLHMB@?$GAplacement?5delete?$FL?$FN?5closure?8?$AA@ 0000000180038e90     libvcruntime:undname.obj
 0002:00001eb0       ??_C@_0CG@CFDHKGGD@?$GAmanaged?5vector?5constructor?5iter@ 0000000180038eb0     libvcruntime:undname.obj
 0002:00001ed8       ??_C@_0CF@IMGKMJNO@?$GAmanaged?5vector?5destructor?5itera@ 0000000180038ed8     libvcruntime:undname.obj
 0002:00001f00       ??_C@_0CG@HLDDJMAG@?$GAeh?5vector?5copy?5constructor?5iter@ 0000000180038f00     libvcruntime:undname.obj
 0002:00001f28       ??_C@_0CM@FCBBDIGB@?$GAeh?5vector?5vbase?5copy?5constructo@ 0000000180038f28     libvcruntime:undname.obj
 0002:00001f58       ??_C@_0BL@CLIPGLGB@?$GAdynamic?5initializer?5for?5?8?$AA@ 0000000180038f58     libvcruntime:undname.obj
 0002:00001f78       ??_C@_0CB@PDBIFEP@?$GAdynamic?5atexit?5destructor?5for?5?8@ 0000000180038f78     libvcruntime:undname.obj
 0002:00001fa0       ??_C@_0CD@CGAJBKEJ@?$GAvector?5copy?5constructor?5iterato@ 0000000180038fa0     libvcruntime:undname.obj
 0002:00001fc8       ??_C@_0CJ@GJELGAMM@?$GAvector?5vbase?5copy?5constructor?5i@ 0000000180038fc8     libvcruntime:undname.obj
 0002:00001ff8       ??_C@_0CL@FGIJHLCE@?$GAmanaged?5vector?5copy?5constructor@ 0000000180038ff8     libvcruntime:undname.obj
 0002:00002028       ??_C@_0BM@PMGGMLDN@?$GAlocal?5static?5thread?5guard?8?$AA@ 0000000180039028     libvcruntime:undname.obj
 0002:00002048       ??_C@_0N@BDNMDMOL@operator?5?$CC?$CC?5?$AA@ 0000000180039048     libvcruntime:undname.obj
 0002:00002058       ??_C@_0BC@DAFEJGAK@?5Type?5Descriptor?8?$AA@ 0000000180039058     libvcruntime:undname.obj
 0002:00002070       ??_C@_0BM@LDKODKLH@?5Base?5Class?5Descriptor?5at?5?$CI?$AA@ 0000000180039070     libvcruntime:undname.obj
 0002:00002090       ??_C@_0BD@LGICGFMM@?5Base?5Class?5Array?8?$AA@ 0000000180039090     libvcruntime:undname.obj
 0002:000020a8       ??_C@_0BN@MECKDCOJ@?5Class?5Hierarchy?5Descriptor?8?$AA@ 00000001800390a8     libvcruntime:undname.obj
 0002:000020c8       ??_C@_0BK@CFCOFLF@?5Complete?5Object?5Locator?8?$AA@ 00000001800390c8     libvcruntime:undname.obj
 0002:000020f0       __acrt_exception_action_table 00000001800390f0     libucrt:exception_filter.obj
 0002:000021b0       __acrt_signal_action_table_count 00000001800391b0     libucrt:exception_filter.obj
 0002:000021b8       __acrt_signal_action_first_fpe_index 00000001800391b8     libucrt:exception_filter.obj
 0002:000021c0       __acrt_signal_action_fpe_count 00000001800391c0     libucrt:exception_filter.obj
 0002:000021c8       ??_C@_1BI@BGOHAHKC@?$AAm?$AAs?$AAc?$AAo?$AAr?$AAe?$AAe?$AA?4?$AAd?$AAl?$AAl?$AA?$AA@ 00000001800391c8     libucrt:exit.obj
 0002:000021e0       ??_C@_0P@MIGLKIOC@CorExitProcess?$AA@ 00000001800391e0     libucrt:exit.obj
 0002:00002450       __lc_time_c                0000000180039450     libucrt:nlsdata.obj
 0002:00002710       ??_C@_03KOEHGMDN@Sun?$AA@  0000000180039710     libucrt:nlsdata.obj
 0002:00002714       ??_C@_03PDAGKDH@Mon?$AA@   0000000180039714     libucrt:nlsdata.obj
 0002:00002718       ??_C@_03NAGEINEP@Tue?$AA@  0000000180039718     libucrt:nlsdata.obj
 0002:0000271c       ??_C@_03MHOMLAJA@Wed?$AA@  000000018003971c     libucrt:nlsdata.obj
 0002:00002720       ??_C@_03IOFIKPDN@Thu?$AA@  0000000180039720     libucrt:nlsdata.obj
 0002:00002724       ??_C@_03IDIOELNC@Fri?$AA@  0000000180039724     libucrt:nlsdata.obj
 0002:00002728       ??_C@_03FEFJNEK@Sat?$AA@   0000000180039728     libucrt:nlsdata.obj
 0002:0000272c       ??_C@_06OOPIFAJ@Sunday?$AA@ 000000018003972c     libucrt:nlsdata.obj
 0002:00002734       ??_C@_06JLEDEDGH@Monday?$AA@ 0000000180039734     libucrt:nlsdata.obj
 0002:00002740       ??_C@_07BAAGCFCM@Tuesday?$AA@ 0000000180039740     libucrt:nlsdata.obj
 0002:00002748       ??_C@_09DLIGFAKA@Wednesday?$AA@ 0000000180039748     libucrt:nlsdata.obj
 0002:00002758       ??_C@_08HACCIKIA@Thursday?$AA@ 0000000180039758     libucrt:nlsdata.obj
 0002:00002764       ??_C@_06JECMNKMI@Friday?$AA@ 0000000180039764     libucrt:nlsdata.obj
 0002:00002770       ??_C@_08INBOOONO@Saturday?$AA@ 0000000180039770     libucrt:nlsdata.obj
 0002:0000277c       ??_C@_03JIHJHPIE@Jan?$AA@  000000018003977c     libucrt:nlsdata.obj
 0002:00002780       ??_C@_03HJBDCHOM@Feb?$AA@  0000000180039780     libucrt:nlsdata.obj
 0002:00002784       ??_C@_03ODNJBKGA@Mar?$AA@  0000000180039784     libucrt:nlsdata.obj
 0002:00002788       ??_C@_03LEOLGMJP@Apr?$AA@  0000000180039788     libucrt:nlsdata.obj
 0002:0000278c       ??_C@_03CNMDKL@May?$AA@    000000018003978c     libucrt:nlsdata.obj
 0002:00002790       ??_C@_03IDFGHECI@Jun?$AA@  0000000180039790     libucrt:nlsdata.obj
 0002:00002794       ??_C@_03LBGABGKK@Jul?$AA@  0000000180039794     libucrt:nlsdata.obj
 0002:00002798       ??_C@_03IFJFEIGA@Aug?$AA@  0000000180039798     libucrt:nlsdata.obj
 0002:0000279c       ??_C@_03GGCAPAJC@Sep?$AA@  000000018003979c     libucrt:nlsdata.obj
 0002:000027a0       ??_C@_03BMAOKBAD@Oct?$AA@  00000001800397a0     libucrt:nlsdata.obj
 0002:000027a4       ??_C@_03JPJOFNIA@Nov?$AA@  00000001800397a4     libucrt:nlsdata.obj
 0002:000027a8       ??_C@_03MKABNOCG@Dec?$AA@  00000001800397a8     libucrt:nlsdata.obj
 0002:000027b0       ??_C@_07CGJPFGJA@January?$AA@ 00000001800397b0     libucrt:nlsdata.obj
 0002:000027b8       ??_C@_08GNJGEPFN@February?$AA@ 00000001800397b8     libucrt:nlsdata.obj
 0002:000027c4       ??_C@_05HPCKOFNC@March?$AA@ 00000001800397c4     libucrt:nlsdata.obj
 0002:000027cc       ??_C@_05DMJDNLEJ@April?$AA@ 00000001800397cc     libucrt:nlsdata.obj
 0002:000027d4       ??_C@_04CNLMGBGM@June?$AA@ 00000001800397d4     libucrt:nlsdata.obj
 0002:000027dc       ??_C@_04MIEPOIFP@July?$AA@ 00000001800397dc     libucrt:nlsdata.obj
 0002:000027e4       ??_C@_06LBBHFDDG@August?$AA@ 00000001800397e4     libucrt:nlsdata.obj
 0002:000027f0       ??_C@_09BHHEALKD@September?$AA@ 00000001800397f0     libucrt:nlsdata.obj
 0002:00002800       ??_C@_07JJNFCEND@October?$AA@ 0000000180039800     libucrt:nlsdata.obj
 0002:00002808       ??_C@_08HCHEGEOA@November?$AA@ 0000000180039808     libucrt:nlsdata.obj
 0002:00002818       ??_C@_08EDHMEBNP@December?$AA@ 0000000180039818     libucrt:nlsdata.obj
 0002:00002824       ??_C@_02DEDBPAFC@AM?$AA@   0000000180039824     libucrt:nlsdata.obj
 0002:00002828       ??_C@_02CJNFDJBF@PM?$AA@   0000000180039828     libucrt:nlsdata.obj
 0002:00002830       ??_C@_08BPBNCDIB@MM?1dd?1yy?$AA@ 0000000180039830     libucrt:nlsdata.obj
 0002:00002840       ??_C@_0BE@CKGJFCPC@dddd?0?5MMMM?5dd?0?5yyyy?$AA@ 0000000180039840     libucrt:nlsdata.obj
 0002:00002858       ??_C@_08JCCMCCIL@HH?3mm?3ss?$AA@ 0000000180039858     libucrt:nlsdata.obj
 0002:00002868       ??_C@_17MBGCMIPB@?$AAS?$AAu?$AAn?$AA?$AA@ 0000000180039868     libucrt:nlsdata.obj
 0002:00002870       ??_C@_17KBOMKBF@?$AAM?$AAo?$AAn?$AA?$AA@ 0000000180039870     libucrt:nlsdata.obj
 0002:00002878       ??_C@_17BMKGEGOJ@?$AAT?$AAu?$AAe?$AA?$AA@ 0000000180039878     libucrt:nlsdata.obj
 0002:00002880       ??_C@_17CJEDCEPE@?$AAW?$AAe?$AAd?$AA?$AA@ 0000000180039880     libucrt:nlsdata.obj
 0002:00002888       ??_C@_17PDPHAADD@?$AAT?$AAh?$AAu?$AA?$AA@ 0000000180039888     libucrt:nlsdata.obj
 0002:00002890       ??_C@_17HFOLPPLP@?$AAF?$AAr?$AAi?$AA?$AA@ 0000000180039890     libucrt:nlsdata.obj
 0002:00002898       ??_C@_17GGIBDPIH@?$AAS?$AAa?$AAt?$AA?$AA@ 0000000180039898     libucrt:nlsdata.obj
 0002:000028a0       ??_C@_1O@IHNHDHPB@?$AAS?$AAu?$AAn?$AAd?$AAa?$AAy?$AA?$AA@ 00000001800398a0     libucrt:nlsdata.obj
 0002:000028b0       ??_C@_1O@MMNBFLIA@?$AAM?$AAo?$AAn?$AAd?$AAa?$AAy?$AA?$AA@ 00000001800398b0     libucrt:nlsdata.obj
 0002:000028c0       ??_C@_1BA@ENFBFFEK@?$AAT?$AAu?$AAe?$AAs?$AAd?$AAa?$AAy?$AA?$AA@ 00000001800398c0     libucrt:nlsdata.obj
 0002:000028d0       ??_C@_1BE@EBOGMDOH@?$AAW?$AAe?$AAd?$AAn?$AAe?$AAs?$AAd?$AAa?$AAy?$AA?$AA@ 00000001800398d0     libucrt:nlsdata.obj
 0002:000028e8       ??_C@_1BC@HHMNLIHE@?$AAT?$AAh?$AAu?$AAr?$AAs?$AAd?$AAa?$AAy?$AA?$AA@ 00000001800398e8     libucrt:nlsdata.obj
 0002:00002900       ??_C@_1O@PDICJHAG@?$AAF?$AAr?$AAi?$AAd?$AAa?$AAy?$AA?$AA@ 0000000180039900     libucrt:nlsdata.obj
 0002:00002910       ??_C@_1BC@ENMNNPAJ@?$AAS?$AAa?$AAt?$AAu?$AAr?$AAd?$AAa?$AAy?$AA?$AA@ 0000000180039910     libucrt:nlsdata.obj
 0002:00002928       ??_C@_17DKNBKCHM@?$AAJ?$AAa?$AAn?$AA?$AA@ 0000000180039928     libucrt:nlsdata.obj
 0002:00002930       ??_C@_17LMDJEKJN@?$AAF?$AAe?$AAb?$AA?$AA@ 0000000180039930     libucrt:nlsdata.obj
 0002:00002938       ??_C@_17CKNLEDEC@?$AAM?$AAa?$AAr?$AA?$AA@ 0000000180039938     libucrt:nlsdata.obj
 0002:00002940       ??_C@_17LFPOIHDD@?$AAA?$AAp?$AAr?$AA?$AA@ 0000000180039940     libucrt:nlsdata.obj
 0002:00002948       ??_C@_17PNNKMEED@?$AAM?$AAa?$AAy?$AA?$AA@ 0000000180039948     libucrt:nlsdata.obj
 0002:00002950       ??_C@_17KCJGOCPB@?$AAJ?$AAu?$AAn?$AA?$AA@ 0000000180039950     libucrt:nlsdata.obj
 0002:00002958       ??_C@_17IJPCKHK@?$AAJ?$AAu?$AAl?$AA?$AA@ 0000000180039958     libucrt:nlsdata.obj
 0002:00002960       ??_C@_17ICPELBCN@?$AAA?$AAu?$AAg?$AA?$AA@ 0000000180039960     libucrt:nlsdata.obj
 0002:00002968       ??_C@_17HCHCOKMG@?$AAS?$AAe?$AAp?$AA?$AA@ 0000000180039968     libucrt:nlsdata.obj
 0002:00002970       ??_C@_17FNLKOI@?$AAO?$AAc?$AAt?$AA?$AA@ 0000000180039970     libucrt:nlsdata.obj
 0002:00002978       ??_C@_17BBDMLCIG@?$AAN?$AAo?$AAv?$AA?$AA@ 0000000180039978     libucrt:nlsdata.obj
 0002:00002980       ??_C@_17EGKACKIF@?$AAD?$AAe?$AAc?$AA?$AA@ 0000000180039980     libucrt:nlsdata.obj
 0002:00002988       ??_C@_1BA@EFMEIEBA@?$AAJ?$AAa?$AAn?$AAu?$AAa?$AAr?$AAy?$AA?$AA@ 0000000180039988     libucrt:nlsdata.obj
 0002:00002998       ??_C@_1BC@JGDDFFAM@?$AAF?$AAe?$AAb?$AAr?$AAu?$AAa?$AAr?$AAy?$AA?$AA@ 0000000180039998     libucrt:nlsdata.obj
 0002:000029b0       ??_C@_1M@IKEENEDF@?$AAM?$AAa?$AAr?$AAc?$AAh?$AA?$AA@ 00000001800399b0     libucrt:nlsdata.obj
 0002:000029c0       ??_C@_1M@GJNLMHFD@?$AAA?$AAp?$AAr?$AAi?$AAl?$AA?$AA@ 00000001800399c0     libucrt:nlsdata.obj
 0002:000029d0       ??_C@_19EPFLPGAP@?$AAJ?$AAu?$AAn?$AAe?$AA?$AA@ 00000001800399d0     libucrt:nlsdata.obj
 0002:000029e0       ??_C@_19BIFMLPCD@?$AAJ?$AAu?$AAl?$AAy?$AA?$AA@ 00000001800399e0     libucrt:nlsdata.obj
 0002:000029f0       ??_C@_1O@PAHLKOAC@?$AAA?$AAu?$AAg?$AAu?$AAs?$AAt?$AA?$AA@ 00000001800399f0     libucrt:nlsdata.obj
 0002:00002a00       ??_C@_1BE@DKAAMBJL@?$AAS?$AAe?$AAp?$AAt?$AAe?$AAm?$AAb?$AAe?$AAr?$AA?$AA@ 0000000180039a00     libucrt:nlsdata.obj
 0002:00002a18       ??_C@_1BA@EPANDLNG@?$AAO?$AAc?$AAt?$AAo?$AAb?$AAe?$AAr?$AA?$AA@ 0000000180039a18     libucrt:nlsdata.obj
 0002:00002a28       ??_C@_1BC@BGLIFPF@?$AAN?$AAo?$AAv?$AAe?$AAm?$AAb?$AAe?$AAr?$AA?$AA@ 0000000180039a28     libucrt:nlsdata.obj
 0002:00002a40       ??_C@_1BC@FEMKIFH@?$AAD?$AAe?$AAc?$AAe?$AAm?$AAb?$AAe?$AAr?$AA?$AA@ 0000000180039a40     libucrt:nlsdata.obj
 0002:00002a54       ??_C@_15ODEHAHHF@?$AAA?$AAM?$AA?$AA@ 0000000180039a54     libucrt:nlsdata.obj
 0002:00002a5c       ??_C@_15CLMNNGEL@?$AAP?$AAM?$AA?$AA@ 0000000180039a5c     libucrt:nlsdata.obj
 0002:00002a68       ??_C@_1BC@IEBCMHCM@?$AAM?$AAM?$AA?1?$AAd?$AAd?$AA?1?$AAy?$AAy?$AA?$AA@ 0000000180039a68     libucrt:nlsdata.obj
 0002:00002a80       ??_C@_1CI@KNAKOEBC@?$AAd?$AAd?$AAd?$AAd?$AA?0?$AA?5?$AAM?$AAM?$AAM?$AAM?$AA?5?$AAd?$AAd?$AA?0?$AA?5?$AAy?$AAy?$AAy?$AAy?$AA?$AA@ 0000000180039a80     libucrt:nlsdata.obj
 0002:00002aa8       ??_C@_1BC@GDGBMEMK@?$AAH?$AAH?$AA?3?$AAm?$AAm?$AA?3?$AAs?$AAs?$AA?$AA@ 0000000180039aa8     libucrt:nlsdata.obj
 0002:00002ac0       ??_C@_1M@BMHNFIME@?$AAe?$AAn?$AA?9?$AAU?$AAS?$AA?$AA@ 0000000180039ac0     libucrt:nlsdata.obj
 0002:00002b70       ??_C@_1EG@CNNIPFIM@?$AAa?$AAp?$AAi?$AA?9?$AAm?$AAs?$AA?9?$AAw?$AAi?$AAn?$AA?9?$AAa?$AAp?$AAp?$AAm?$AAo?$AAd?$AAe?$AAl?$AA?9?$AAr?$AAu?$AAn?$AAt?$AAi?$AAm?$AAe?$AA?9?$AAl?$AA1?$AA?9?$AA1@ 0000000180039b70     libucrt:winapi_thunks.obj
 0002:00002bc0       ??_C@_1EA@JGEFHKEI@?$AAa?$AAp?$AAi?$AA?9?$AAm?$AAs?$AA?9?$AAw?$AAi?$AAn?$AA?9?$AAc?$AAo?$AAr?$AAe?$AA?9?$AAd?$AAa?$AAt?$AAe?$AAt?$AAi?$AAm?$AAe?$AA?9?$AAl?$AA1?$AA?9?$AA1?$AA?9?$AA1?$AA?$AA@ 0000000180039bc0     libucrt:winapi_thunks.obj
 0002:00002c00       ??_C@_1DI@GCIAAENM@?$AAa?$AAp?$AAi?$AA?9?$AAm?$AAs?$AA?9?$AAw?$AAi?$AAn?$AA?9?$AAc?$AAo?$AAr?$AAe?$AA?9?$AAf?$AAi?$AAl?$AAe?$AA?9?$AAl?$AA2?$AA?9?$AA1?$AA?9?$AA1?$AA?$AA@ 0000000180039c00     libucrt:winapi_thunks.obj
 0002:00002c40       ??_C@_1EI@MPIAOHOC@?$AAa?$AAp?$AAi?$AA?9?$AAm?$AAs?$AA?9?$AAw?$AAi?$AAn?$AA?9?$AAc?$AAo?$AAr?$AAe?$AA?9?$AAl?$AAo?$AAc?$AAa?$AAl?$AAi?$AAz?$AAa?$AAt?$AAi?$AAo?$AAn?$AA?9?$AAl?$AA1?$AA?9@ 0000000180039c40     libucrt:winapi_thunks.obj
 0002:00002c90       ??_C@_1FK@FPHCKFIE@?$AAa?$AAp?$AAi?$AA?9?$AAm?$AAs?$AA?9?$AAw?$AAi?$AAn?$AA?9?$AAc?$AAo?$AAr?$AAe?$AA?9?$AAl?$AAo?$AAc?$AAa?$AAl?$AAi?$AAz?$AAa?$AAt?$AAi?$AAo?$AAn?$AA?9?$AAo?$AAb?$AAs@ 0000000180039c90     libucrt:winapi_thunks.obj
 0002:00002cf0       ??_C@_1EM@DILCGIIO@?$AAa?$AAp?$AAi?$AA?9?$AAm?$AAs?$AA?9?$AAw?$AAi?$AAn?$AA?9?$AAc?$AAo?$AAr?$AAe?$AA?9?$AAp?$AAr?$AAo?$AAc?$AAe?$AAs?$AAs?$AAt?$AAh?$AAr?$AAe?$AAa?$AAd?$AAs?$AA?9?$AAl@ 0000000180039cf0     libucrt:winapi_thunks.obj
 0002:00002d40       ??_C@_1DM@LNCGDDPN@?$AAa?$AAp?$AAi?$AA?9?$AAm?$AAs?$AA?9?$AAw?$AAi?$AAn?$AA?9?$AAc?$AAo?$AAr?$AAe?$AA?9?$AAs?$AAt?$AAr?$AAi?$AAn?$AAg?$AA?9?$AAl?$AA1?$AA?9?$AA1?$AA?9?$AA0?$AA?$AA@ 0000000180039d40     libucrt:winapi_thunks.obj
 0002:00002d80       ??_C@_1DO@FPAPJEMD@?$AAa?$AAp?$AAi?$AA?9?$AAm?$AAs?$AA?9?$AAw?$AAi?$AAn?$AA?9?$AAc?$AAo?$AAr?$AAe?$AA?9?$AAs?$AAy?$AAs?$AAi?$AAn?$AAf?$AAo?$AA?9?$AAl?$AA1?$AA?9?$AA2?$AA?9?$AA1?$AA?$AA@ 0000000180039d80     libucrt:winapi_thunks.obj
 0002:00002dc0       ??_C@_1DK@NDHNAHIO@?$AAa?$AAp?$AAi?$AA?9?$AAm?$AAs?$AA?9?$AAw?$AAi?$AAn?$AA?9?$AAc?$AAo?$AAr?$AAe?$AA?9?$AAw?$AAi?$AAn?$AAr?$AAt?$AA?9?$AAl?$AA1?$AA?9?$AA1?$AA?9?$AA0?$AA?$AA@ 0000000180039dc0     libucrt:winapi_thunks.obj
 0002:00002e00       ??_C@_1DM@KGHDGBCM@?$AAa?$AAp?$AAi?$AA?9?$AAm?$AAs?$AA?9?$AAw?$AAi?$AAn?$AA?9?$AAc?$AAo?$AAr?$AAe?$AA?9?$AAx?$AAs?$AAt?$AAa?$AAt?$AAe?$AA?9?$AAl?$AA2?$AA?9?$AA1?$AA?9?$AA0?$AA?$AA@ 0000000180039e00     libucrt:winapi_thunks.obj
 0002:00002e40       ??_C@_1EO@IJIOEFOH@?$AAa?$AAp?$AAi?$AA?9?$AAm?$AAs?$AA?9?$AAw?$AAi?$AAn?$AA?9?$AAr?$AAt?$AAc?$AAo?$AAr?$AAe?$AA?9?$AAn?$AAt?$AAu?$AAs?$AAe?$AAr?$AA?9?$AAw?$AAi?$AAn?$AAd?$AAo?$AAw?$AA?9@ 0000000180039e40     libucrt:winapi_thunks.obj
 0002:00002e90       ??_C@_1FG@HHGEKANL@?$AAa?$AAp?$AAi?$AA?9?$AAm?$AAs?$AA?9?$AAw?$AAi?$AAn?$AA?9?$AAs?$AAe?$AAc?$AAu?$AAr?$AAi?$AAt?$AAy?$AA?9?$AAs?$AAy?$AAs?$AAt?$AAe?$AAm?$AAf?$AAu?$AAn?$AAc?$AAt?$AAi@ 0000000180039e90     libucrt:winapi_thunks.obj
 0002:00002ef0       ??_C@_1FG@NCKKOLKO@?$AAe?$AAx?$AAt?$AA?9?$AAm?$AAs?$AA?9?$AAw?$AAi?$AAn?$AA?9?$AAk?$AAe?$AAr?$AAn?$AAe?$AAl?$AA3?$AA2?$AA?9?$AAp?$AAa?$AAc?$AAk?$AAa?$AAg?$AAe?$AA?9?$AAc?$AAu?$AAr?$AAr@ 0000000180039ef0     libucrt:winapi_thunks.obj
 0002:00002f50       ??_C@_1EG@DBIOJECG@?$AAe?$AAx?$AAt?$AA?9?$AAm?$AAs?$AA?9?$AAw?$AAi?$AAn?$AA?9?$AAn?$AAt?$AAu?$AAs?$AAe?$AAr?$AA?9?$AAd?$AAi?$AAa?$AAl?$AAo?$AAg?$AAb?$AAo?$AAx?$AA?9?$AAl?$AA1?$AA?9?$AA1@ 0000000180039f50     libucrt:winapi_thunks.obj
 0002:00002fa0       ??_C@_1EO@FIHMJCLF@?$AAe?$AAx?$AAt?$AA?9?$AAm?$AAs?$AA?9?$AAw?$AAi?$AAn?$AA?9?$AAn?$AAt?$AAu?$AAs?$AAe?$AAr?$AA?9?$AAw?$AAi?$AAn?$AAd?$AAo?$AAw?$AAs?$AAt?$AAa?$AAt?$AAi?$AAo?$AAn?$AA?9@ 0000000180039fa0     libucrt:winapi_thunks.obj
 0002:00002ff0       ??_C@_1O@BCCLBEOE@?$AAu?$AAs?$AAe?$AAr?$AA3?$AA2?$AA?$AA@ 0000000180039ff0     libucrt:winapi_thunks.obj
 0002:00003028       ??_C@_0BE@JOGNEJCI@GetCurrentPackageId?$AA@ 000000018003a028     libucrt:winapi_thunks.obj
 0002:00003050       ??_C@_0O@KKBNKAPF@LCMapStringEx?$AA@ 000000018003a050     libucrt:winapi_thunks.obj
 0002:00003068       ??_C@_0BB@HBDEELFH@LocaleNameToLCID?$AA@ 000000018003a068     libucrt:winapi_thunks.obj
 0002:000030a0       ??_C@_1M@HPNHIDJI@?$AAj?$AAa?$AA?9?$AAJ?$AAP?$AA?$AA@ 000000018003a0a0     libucrt:mbctype.obj
 0002:000030b0       ??_C@_1M@BIBDDEMK@?$AAz?$AAh?$AA?9?$AAC?$AAN?$AA?$AA@ 000000018003a0b0     libucrt:mbctype.obj
 0002:000030c0       ??_C@_1M@JLOOOEGK@?$AAk?$AAo?$AA?9?$AAK?$AAR?$AA?$AA@ 000000018003a0c0     libucrt:mbctype.obj
 0002:000030d0       ??_C@_1M@CLNBBOPM@?$AAz?$AAh?$AA?9?$AAT?$AAW?$AA?$AA@ 000000018003a0d0     libucrt:mbctype.obj
 0002:000030e0       __newctype                 000000018003a0e0     libucrt:ctype.obj
 0002:000033e0       __newclmap                 000000018003a3e0     libucrt:ctype.obj
 0002:00003560       __newcumap                 000000018003a560     libucrt:ctype.obj
 0002:000036e0       ??_C@_15PJPFLCCM@?$AAu?$AAk?$AA?$AA@ 000000018003a6e0     libucrt:get_qualified_locale.obj
 0002:00004530       ??_C@_15EMKDOKLE@?$AAa?$AAr?$AA?$AA@ 000000018003b530     libucrt:lcidtoname_downlevel.obj
 0002:00004538       ??_C@_15KNPADPLH@?$AAb?$AAg?$AA?$AA@ 000000018003b538     libucrt:lcidtoname_downlevel.obj
 0002:00004540       ??_C@_15EDMHLDMO@?$AAc?$AAa?$AA?$AA@ 000000018003b540     libucrt:lcidtoname_downlevel.obj
 0002:00004548       ??_C@_1O@BPEAJADD@?$AAz?$AAh?$AA?9?$AAC?$AAH?$AAS?$AA?$AA@ 000000018003b548     libucrt:lcidtoname_downlevel.obj
 0002:00004558       ??_C@_15LJNHCMNK@?$AAc?$AAs?$AA?$AA@ 000000018003b558     libucrt:lcidtoname_downlevel.obj
 0002:00004560       ??_C@_15FOMCIDHG@?$AAd?$AAa?$AA?$AA@ 000000018003b560     libucrt:lcidtoname_downlevel.obj
 0002:00004568       ??_C@_15NBKABECB@?$AAd?$AAe?$AA?$AA@ 000000018003b568     libucrt:lcidtoname_downlevel.obj
 0002:00004570       ??_C@_15GHPEIIAO@?$AAe?$AAl?$AA?$AA@ 000000018003b570     libucrt:lcidtoname_downlevel.obj
 0002:00004578       ??_C@_15MNPNEAIF@?$AAe?$AAn?$AA?$AA@ 000000018003b578     libucrt:lcidtoname_downlevel.obj
 0002:00004580       ??_C@_15GPIOMPMH@?$AAe?$AAs?$AA?$AA@ 000000018003b580     libucrt:lcidtoname_downlevel.obj
 0002:00004588       ??_C@_15NGLOAKJC@?$AAf?$AAi?$AA?$AA@ 000000018003b588     libucrt:lcidtoname_downlevel.obj
 0002:00004590       ??_C@_15FBKGNKAM@?$AAf?$AAr?$AA?$AA@ 000000018003b590     libucrt:lcidtoname_downlevel.obj
 0002:00004598       ??_C@_15KGGCNEFK@?$AAh?$AAe?$AA?$AA@ 000000018003b598     libucrt:lcidtoname_downlevel.obj
 0002:000045a0       ??_C@_15PGHLIDMF@?$AAh?$AAu?$AA?$AA@ 000000018003b5a0     libucrt:lcidtoname_downlevel.obj
 0002:000045a8       ??_C@_15BIEMAPLM@?$AAi?$AAs?$AA?$AA@ 000000018003b5a8     libucrt:lcidtoname_downlevel.obj
 0002:000045b0       ??_C@_15IFJLDHAF@?$AAi?$AAt?$AA?$AA@ 000000018003b5b0     libucrt:lcidtoname_downlevel.obj
 0002:000045b8       ??_C@_15GEMIOCAG@?$AAj?$AAa?$AA?$AA@ 000000018003b5b8     libucrt:lcidtoname_downlevel.obj
 0002:000045c0       ??_C@_15EPELEGJA@?$AAk?$AAo?$AA?$AA@ 000000018003b5c0     libucrt:lcidtoname_downlevel.obj
 0002:000045c8       ??_C@_15NDDHIMN@?$AAn?$AAl?$AA?$AA@ 000000018003b5c8     libucrt:lcidtoname_downlevel.obj
 0002:000045d0       ??_C@_15BPIGNHCD@?$AAn?$AAo?$AA?$AA@ 000000018003b5d0     libucrt:lcidtoname_downlevel.obj
 0002:000045d8       ??_C@_15DEOPBLCG@?$AAp?$AAl?$AA?$AA@ 000000018003b5d8     libucrt:lcidtoname_downlevel.obj
 0002:000045e0       ??_C@_15KBECGEFG@?$AAp?$AAt?$AA?$AA@ 000000018003b5e0     libucrt:lcidtoname_downlevel.obj
 0002:000045e8       ??_C@_15GLJCBFMD@?$AAr?$AAo?$AA?$AA@ 000000018003b5e8     libucrt:lcidtoname_downlevel.obj
 0002:000045f0       ??_C@_15FEDGKCDI@?$AAr?$AAu?$AA?$AA@ 000000018003b5f0     libucrt:lcidtoname_downlevel.obj
 0002:000045f8       ??_C@_15GLKMLLHM@?$AAh?$AAr?$AA?$AA@ 000000018003b5f8     libucrt:lcidtoname_downlevel.obj
 0002:00004600       ??_C@_15CPKMFBDB@?$AAs?$AAk?$AA?$AA@ 000000018003b600     libucrt:lcidtoname_downlevel.obj
 0002:00004608       ??_C@_15BAAIOGMK@?$AAs?$AAq?$AA?$AA@ 000000018003b608     libucrt:lcidtoname_downlevel.obj
 0002:00004610       ??_C@_15INNPNOHD@?$AAs?$AAv?$AA?$AA@ 000000018003b610     libucrt:lcidtoname_downlevel.obj
 0002:00004618       ??_C@_15CABMMOGH@?$AAt?$AAh?$AA?$AA@ 000000018003b618     libucrt:lcidtoname_downlevel.obj
 0002:00004620       ??_C@_15BPLIHJJM@?$AAt?$AAr?$AA?$AA@ 000000018003b620     libucrt:lcidtoname_downlevel.obj
 0002:00004628       ??_C@_15NEOEKKDJ@?$AAu?$AAr?$AA?$AA@ 000000018003b628     libucrt:lcidtoname_downlevel.obj
 0002:00004630       ??_C@_15NFICGAJK@?$AAi?$AAd?$AA?$AA@ 000000018003b630     libucrt:lcidtoname_downlevel.obj
 0002:00004638       ??_C@_15HPJPHDM@?$AAb?$AAe?$AA?$AA@ 000000018003b638     libucrt:lcidtoname_downlevel.obj
 0002:00004640       ??_C@_15LCHLGJII@?$AAs?$AAl?$AA?$AA@ 000000018003b640     libucrt:lcidtoname_downlevel.obj
 0002:00004648       ??_C@_15PCFJPHHO@?$AAe?$AAt?$AA?$AA@ 000000018003b648     libucrt:lcidtoname_downlevel.obj
 0002:00004650       ??_C@_15HPFPGODN@?$AAl?$AAv?$AA?$AA@ 000000018003b650     libucrt:lcidtoname_downlevel.obj
 0002:00004658       ??_C@_15NFFGKGLG@?$AAl?$AAt?$AA?$AA@ 000000018003b658     libucrt:lcidtoname_downlevel.obj
 0002:00004660       ??_C@_15BDAKCCHN@?$AAf?$AAa?$AA?$AA@ 000000018003b660     libucrt:lcidtoname_downlevel.obj
 0002:00004668       ??_C@_15NFGIAIAJ@?$AAv?$AAi?$AA?$AA@ 000000018003b668     libucrt:lcidtoname_downlevel.obj
 0002:00004670       ??_C@_15LMKNDMHN@?$AAh?$AAy?$AA?$AA@ 000000018003b670     libucrt:lcidtoname_downlevel.obj
 0002:00004678       ??_C@_15IJBHMCFL@?$AAa?$AAz?$AA?$AA@ 000000018003b678     libucrt:lcidtoname_downlevel.obj
 0002:00004680       ??_C@_15EKOFJABL@?$AAe?$AAu?$AA?$AA@ 000000018003b680     libucrt:lcidtoname_downlevel.obj
 0002:00004688       ??_C@_15BGHADCNK@?$AAm?$AAk?$AA?$AA@ 000000018003b688     libucrt:lcidtoname_downlevel.obj
 0002:00004690       ??_C@_15JDNICKHM@?$AAa?$AAf?$AA?$AA@ 000000018003b690     libucrt:lcidtoname_downlevel.obj
 0002:00004698       ??_C@_15KPJEDBKD@?$AAk?$AAa?$AA?$AA@ 000000018003b698     libucrt:lcidtoname_downlevel.obj
 0002:000046a0       ??_C@_15PDNFFFEO@?$AAf?$AAo?$AA?$AA@ 000000018003b6a0     libucrt:lcidtoname_downlevel.obj
 0002:000046a8       ??_C@_15OMLEGLOC@?$AAh?$AAi?$AA?$AA@ 000000018003b6a8     libucrt:lcidtoname_downlevel.obj
 0002:000046b0       ??_C@_15IDNNENKK@?$AAm?$AAs?$AA?$AA@ 000000018003b6b0     libucrt:lcidtoname_downlevel.obj
 0002:000046b8       ??_C@_15MACJNBMH@?$AAk?$AAk?$AA?$AA@ 000000018003b6b8     libucrt:lcidtoname_downlevel.obj
 0002:000046c0       ??_C@_15DKDJEOND@?$AAk?$AAy?$AA?$AA@ 000000018003b6c0     libucrt:lcidtoname_downlevel.obj
 0002:000046c8       ??_C@_15DFGDLJBG@?$AAs?$AAw?$AA?$AA@ 000000018003b6c8     libucrt:lcidtoname_downlevel.obj
 0002:000046d0       ??_C@_15BBFAICNG@?$AAu?$AAz?$AA?$AA@ 000000018003b6d0     libucrt:lcidtoname_downlevel.obj
 0002:000046d8       ??_C@_15DKNDCGEA@?$AAt?$AAt?$AA?$AA@ 000000018003b6d8     libucrt:lcidtoname_downlevel.obj
 0002:000046e0       ??_C@_15MGIFMDPL@?$AAp?$AAa?$AA?$AA@ 000000018003b6e0     libucrt:lcidtoname_downlevel.obj
 0002:000046e8       ??_C@_15HCNDBBA@?$AAg?$AAu?$AA?$AA@ 000000018003b6e8     libucrt:lcidtoname_downlevel.obj
 0002:000046f0       ??_C@_15FNBEIBON@?$AAt?$AAa?$AA?$AA@ 000000018003b6f0     libucrt:lcidtoname_downlevel.obj
 0002:000046f8       ??_C@_15NCHGBGLK@?$AAt?$AAe?$AA?$AA@ 000000018003b6f8     libucrt:lcidtoname_downlevel.obj
 0002:00004700       ??_C@_15PHPHCBPF@?$AAk?$AAn?$AA?$AA@ 000000018003b700     libucrt:lcidtoname_downlevel.obj
 0002:00004708       ??_C@_15DLGBCKMP@?$AAm?$AAr?$AA?$AA@ 000000018003b708     libucrt:lcidtoname_downlevel.obj
 0002:00004710       ??_C@_15EABBLBFF@?$AAs?$AAa?$AA?$AA@ 000000018003b710     libucrt:lcidtoname_downlevel.obj
 0002:00004718       ??_C@_15CBKOMCOI@?$AAm?$AAn?$AA?$AA@ 000000018003b718     libucrt:lcidtoname_downlevel.obj
 0002:00004720       ??_C@_15CKDMCJAF@?$AAg?$AAl?$AA?$AA@ 000000018003b720     libucrt:lcidtoname_downlevel.obj
 0002:00004728       ??_C@_17CNJFBPG@?$AAk?$AAo?$AAk?$AA?$AA@ 000000018003b728     libucrt:lcidtoname_downlevel.obj
 0002:00004730       ??_C@_17FFBJICPL@?$AAs?$AAy?$AAr?$AA?$AA@ 000000018003b730     libucrt:lcidtoname_downlevel.obj
 0002:00004738       ??_C@_17KPNDCPAF@?$AAd?$AAi?$AAv?$AA?$AA@ 000000018003b738     libucrt:lcidtoname_downlevel.obj
 0002:00004740       ??_C@_11LOCGONAA@?$AA?$AA@ 000000018003b740     libucrt:lcidtoname_downlevel.obj
 0002:00004748       ??_C@_1M@OKAHONE@?$AAa?$AAr?$AA?9?$AAS?$AAA?$AA?$AA@ 000000018003b748     libucrt:lcidtoname_downlevel.obj
 0002:00004758       ??_C@_1M@FFFIGIGK@?$AAb?$AAg?$AA?9?$AAB?$AAG?$AA?$AA@ 000000018003b758     libucrt:lcidtoname_downlevel.obj
 0002:00004768       ??_C@_1M@BJNKEDC@?$AAc?$AAa?$AA?9?$AAE?$AAS?$AA?$AA@ 000000018003b768     libucrt:lcidtoname_downlevel.obj
 0002:00004778       ??_C@_1M@IJJHFJHA@?$AAc?$AAs?$AA?9?$AAC?$AAZ?$AA?$AA@ 000000018003b778     libucrt:lcidtoname_downlevel.obj
 0002:00004788       ??_C@_1M@CLPEOBGI@?$AAd?$AAa?$AA?9?$AAD?$AAK?$AA?$AA@ 000000018003b788     libucrt:lcidtoname_downlevel.obj
 0002:00004798       ??_C@_1M@MCMADGCB@?$AAd?$AAe?$AA?9?$AAD?$AAE?$AA?$AA@ 000000018003b798     libucrt:lcidtoname_downlevel.obj
 0002:000047a8       ??_C@_1M@OOCKEMAM@?$AAe?$AAl?$AA?9?$AAG?$AAR?$AA?$AA@ 000000018003b7a8     libucrt:lcidtoname_downlevel.obj
 0002:000047b8       ??_C@_1M@DDNJFGID@?$AAf?$AAi?$AA?9?$AAF?$AAI?$AA?$AA@ 000000018003b7b8     libucrt:lcidtoname_downlevel.obj
 0002:000047c8       ??_C@_1M@GLIPPMAC@?$AAf?$AAr?$AA?9?$AAF?$AAR?$AA?$AA@ 000000018003b7c8     libucrt:lcidtoname_downlevel.obj
 0002:000047d8       ??_C@_1M@GFMCHPE@?$AAh?$AAe?$AA?9?$AAI?$AAL?$AA?$AA@ 000000018003b7d8     libucrt:lcidtoname_downlevel.obj
 0002:000047e8       ??_C@_1M@MHLPGNKM@?$AAh?$AAu?$AA?9?$AAH?$AAU?$AA?$AA@ 000000018003b7e8     libucrt:lcidtoname_downlevel.obj
 0002:000047f8       ??_C@_1M@LPDDNNPN@?$AAi?$AAs?$AA?9?$AAI?$AAS?$AA?$AA@ 000000018003b7f8     libucrt:lcidtoname_downlevel.obj
 0002:00004808       ??_C@_1M@MADIPODN@?$AAi?$AAt?$AA?9?$AAI?$AAT?$AA?$AA@ 000000018003b808     libucrt:lcidtoname_downlevel.obj
 0002:00004818       ??_C@_1M@IHBJJGG@?$AAn?$AAl?$AA?9?$AAN?$AAL?$AA?$AA@ 000000018003b818     libucrt:lcidtoname_downlevel.obj
 0002:00004828       ??_C@_1M@EANAGDL@?$AAn?$AAb?$AA?9?$AAN?$AAO?$AA?$AA@ 000000018003b828     libucrt:lcidtoname_downlevel.obj
 0002:00004838       ??_C@_1M@NEIEMEGP@?$AAp?$AAl?$AA?9?$AAP?$AAL?$AA?$AA@ 000000018003b838     libucrt:lcidtoname_downlevel.obj
 0002:00004848       ??_C@_1M@BOCFIGEP@?$AAp?$AAt?$AA?9?$AAB?$AAR?$AA?$AA@ 000000018003b848     libucrt:lcidtoname_downlevel.obj
 0002:00004858       ??_C@_1M@IMPFOPBG@?$AAr?$AAo?$AA?9?$AAR?$AAO?$AA?$AA@ 000000018003b858     libucrt:lcidtoname_downlevel.obj
 0002:00004868       ??_C@_1M@IDNNEJMM@?$AAr?$AAu?$AA?9?$AAR?$AAU?$AA?$AA@ 000000018003b868     libucrt:lcidtoname_downlevel.obj
 0002:00004878       ??_C@_1M@LILEEOGM@?$AAh?$AAr?$AA?9?$AAH?$AAR?$AA?$AA@ 000000018003b878     libucrt:lcidtoname_downlevel.obj
 0002:00004888       ??_C@_1M@FKIFEHPB@?$AAs?$AAk?$AA?9?$AAS?$AAK?$AA?$AA@ 000000018003b888     libucrt:lcidtoname_downlevel.obj
 0002:00004898       ??_C@_1M@LJMAMNPJ@?$AAs?$AAq?$AA?9?$AAA?$AAL?$AA?$AA@ 000000018003b898     libucrt:lcidtoname_downlevel.obj
 0002:000048a8       ??_C@_1M@GIAKDKJK@?$AAs?$AAv?$AA?9?$AAS?$AAE?$AA?$AA@ 000000018003b8a8     libucrt:lcidtoname_downlevel.obj
 0002:000048b8       ??_C@_1M@MKJKIKCL@?$AAt?$AAh?$AA?9?$AAT?$AAH?$AA?$AA@ 000000018003b8b8     libucrt:lcidtoname_downlevel.obj
 0002:000048c8       ??_C@_1M@MFLCCMPB@?$AAt?$AAr?$AA?9?$AAT?$AAR?$AA?$AA@ 000000018003b8c8     libucrt:lcidtoname_downlevel.obj
 0002:000048d8       ??_C@_1M@OIJHDKJN@?$AAu?$AAr?$AA?9?$AAP?$AAK?$AA?$AA@ 000000018003b8d8     libucrt:lcidtoname_downlevel.obj
 0002:000048e8       ??_C@_1M@LHIPCIEK@?$AAi?$AAd?$AA?9?$AAI?$AAD?$AA?$AA@ 000000018003b8e8     libucrt:lcidtoname_downlevel.obj
 0002:000048f8       ??_C@_1M@MFMOBGI@?$AAu?$AAk?$AA?9?$AAU?$AAA?$AA?$AA@ 000000018003b8f8     libucrt:lcidtoname_downlevel.obj
 0002:00004908       ??_C@_1M@OBGLJIPL@?$AAb?$AAe?$AA?9?$AAB?$AAY?$AA?$AA@ 000000018003b908     libucrt:lcidtoname_downlevel.obj
 0002:00004918       ??_C@_1M@BCFAJEAD@?$AAs?$AAl?$AA?9?$AAS?$AAI?$AA?$AA@ 000000018003b918     libucrt:lcidtoname_downlevel.obj
 0002:00004928       ??_C@_1M@FKFFEDDN@?$AAe?$AAt?$AA?9?$AAE?$AAE?$AA?$AA@ 000000018003b928     libucrt:lcidtoname_downlevel.obj
 0002:00004938       ??_C@_1M@KGKKAACI@?$AAl?$AAv?$AA?9?$AAL?$AAV?$AA?$AA@ 000000018003b938     libucrt:lcidtoname_downlevel.obj
 0002:00004948       ??_C@_1M@IFGBIJO@?$AAl?$AAt?$AA?9?$AAL?$AAT?$AA?$AA@ 000000018003b948     libucrt:lcidtoname_downlevel.obj
 0002:00004958       ??_C@_1M@FGEAHEDM@?$AAf?$AAa?$AA?9?$AAI?$AAR?$AA?$AA@ 000000018003b958     libucrt:lcidtoname_downlevel.obj
 0002:00004968       ??_C@_1M@KBMAIBFN@?$AAv?$AAi?$AA?9?$AAV?$AAN?$AA?$AA@ 000000018003b968     libucrt:lcidtoname_downlevel.obj
 0002:00004978       ??_C@_1M@GPCBKDJK@?$AAh?$AAy?$AA?9?$AAA?$AAM?$AA?$AA@ 000000018003b978     libucrt:lcidtoname_downlevel.obj
 0002:00004988       ??_C@_1BG@BECMDDJB@?$AAa?$AAz?$AA?9?$AAA?$AAZ?$AA?9?$AAL?$AAa?$AAt?$AAn?$AA?$AA@ 000000018003b988     libucrt:lcidtoname_downlevel.obj
 0002:000049a0       ??_C@_1M@MAOFCAEA@?$AAe?$AAu?$AA?9?$AAE?$AAS?$AA?$AA@ 000000018003b9a0     libucrt:lcidtoname_downlevel.obj
 0002:000049b0       ??_C@_1M@IGHABKPI@?$AAm?$AAk?$AA?9?$AAM?$AAK?$AA?$AA@ 000000018003b9b0     libucrt:lcidtoname_downlevel.obj
 0002:000049c0       ??_C@_1M@IAIGNEJG@?$AAt?$AAn?$AA?9?$AAZ?$AAA?$AA?$AA@ 000000018003b9c0     libucrt:lcidtoname_downlevel.obj
 0002:000049d0       ??_C@_1M@IIJCOJFA@?$AAx?$AAh?$AA?9?$AAZ?$AAA?$AA?$AA@ 000000018003b9d0     libucrt:lcidtoname_downlevel.obj
 0002:000049e0       ??_C@_1M@LGPJHNJH@?$AAz?$AAu?$AA?9?$AAZ?$AAA?$AA?$AA@ 000000018003b9e0     libucrt:lcidtoname_downlevel.obj
 0002:000049f0       ??_C@_1M@HOKAOIO@?$AAa?$AAf?$AA?9?$AAZ?$AAA?$AA?$AA@ 000000018003b9f0     libucrt:lcidtoname_downlevel.obj
 0002:00004a00       ??_C@_1M@DPCLHLIE@?$AAk?$AAa?$AA?9?$AAG?$AAE?$AA?$AA@ 000000018003ba00     libucrt:lcidtoname_downlevel.obj
 0002:00004a10       ??_C@_1M@BLKMHJBI@?$AAf?$AAo?$AA?9?$AAF?$AAO?$AA?$AA@ 000000018003ba10     libucrt:lcidtoname_downlevel.obj
 0002:00004a20       ??_C@_1M@LGGJAPPB@?$AAh?$AAi?$AA?9?$AAI?$AAN?$AA?$AA@ 000000018003ba20     libucrt:lcidtoname_downlevel.obj
 0002:00004a30       ??_C@_1M@FIKPIHFE@?$AAm?$AAt?$AA?9?$AAM?$AAT?$AA?$AA@ 000000018003ba30     libucrt:lcidtoname_downlevel.obj
 0002:00004a40       ??_C@_1M@HEGGPBFA@?$AAs?$AAe?$AA?9?$AAN?$AAO?$AA?$AA@ 000000018003ba40     libucrt:lcidtoname_downlevel.obj
 0002:00004a50       ??_C@_1M@EIBJEEPA@?$AAm?$AAs?$AA?9?$AAM?$AAY?$AA?$AA@ 000000018003ba50     libucrt:lcidtoname_downlevel.obj
 0002:00004a60       ??_C@_1M@FHLBGMPP@?$AAk?$AAk?$AA?9?$AAK?$AAZ?$AA?$AA@ 000000018003ba60     libucrt:lcidtoname_downlevel.obj
 0002:00004a70       ??_C@_1M@NGJJLCGI@?$AAk?$AAy?$AA?9?$AAK?$AAG?$AA?$AA@ 000000018003ba70     libucrt:lcidtoname_downlevel.obj
 0002:00004a80       ??_C@_1M@GIENNBFC@?$AAs?$AAw?$AA?9?$AAK?$AAE?$AA?$AA@ 000000018003ba80     libucrt:lcidtoname_downlevel.obj
 0002:00004a90       ??_C@_1BG@NDGMJIMJ@?$AAu?$AAz?$AA?9?$AAU?$AAZ?$AA?9?$AAL?$AAa?$AAt?$AAn?$AA?$AA@ 000000018003ba90     libucrt:lcidtoname_downlevel.obj
 0002:00004aa8       ??_C@_1M@IDCCIHBC@?$AAt?$AAt?$AA?9?$AAR?$AAU?$AA?$AA@ 000000018003baa8     libucrt:lcidtoname_downlevel.obj
 0002:00004ab8       ??_C@_1M@LOICPMOJ@?$AAb?$AAn?$AA?9?$AAI?$AAN?$AA?$AA@ 000000018003bab8     libucrt:lcidtoname_downlevel.obj
 0002:00004ac8       ??_C@_1M@KPKKNEAH@?$AAp?$AAa?$AA?9?$AAI?$AAN?$AA?$AA@ 000000018003bac8     libucrt:lcidtoname_downlevel.obj
 0002:00004ad8       ??_C@_1M@PJGPPBOG@?$AAg?$AAu?$AA?9?$AAI?$AAN?$AA?$AA@ 000000018003bad8     libucrt:lcidtoname_downlevel.obj
 0002:00004ae8       ??_C@_1M@KMKMOPHI@?$AAt?$AAa?$AA?9?$AAI?$AAN?$AA?$AA@ 000000018003bae8     libucrt:lcidtoname_downlevel.obj
 0002:00004af8       ??_C@_1M@KFEHEPAC@?$AAt?$AAe?$AA?9?$AAI?$AAN?$AA?$AA@ 000000018003baf8     libucrt:lcidtoname_downlevel.obj
 0002:00004b08       ??_C@_1M@CDCLMGHI@?$AAk?$AAn?$AA?9?$AAI?$AAN?$AA?$AA@ 000000018003bb08     libucrt:lcidtoname_downlevel.obj
 0002:00004b18       ??_C@_1M@MIODLDKF@?$AAm?$AAl?$AA?9?$AAI?$AAN?$AA?$AA@ 000000018003bb18     libucrt:lcidtoname_downlevel.obj
 0002:00004b28       ??_C@_1M@PBIEACPO@?$AAm?$AAr?$AA?9?$AAI?$AAN?$AA?$AA@ 000000018003bb28     libucrt:lcidtoname_downlevel.obj
 0002:00004b38       ??_C@_1M@NIDEAGPH@?$AAs?$AAa?$AA?9?$AAI?$AAN?$AA?$AA@ 000000018003bb38     libucrt:lcidtoname_downlevel.obj
 0002:00004b48       ??_C@_1M@FHIHCBIO@?$AAm?$AAn?$AA?9?$AAM?$AAN?$AA?$AA@ 000000018003bb48     libucrt:lcidtoname_downlevel.obj
 0002:00004b58       ??_C@_1M@JAIJPENP@?$AAc?$AAy?$AA?9?$AAG?$AAB?$AA?$AA@ 000000018003bb58     libucrt:lcidtoname_downlevel.obj
 0002:00004b68       ??_C@_1M@PHGFBEPN@?$AAg?$AAl?$AA?9?$AAE?$AAS?$AA?$AA@ 000000018003bb68     libucrt:lcidtoname_downlevel.obj
 0002:00004b78       ??_C@_1O@KPIPDNCP@?$AAk?$AAo?$AAk?$AA?9?$AAI?$AAN?$AA?$AA@ 000000018003bb78     libucrt:lcidtoname_downlevel.obj
 0002:00004b88       ??_C@_1O@KNHJLDJA@?$AAs?$AAy?$AAr?$AA?9?$AAS?$AAY?$AA?$AA@ 000000018003bb88     libucrt:lcidtoname_downlevel.obj
 0002:00004b98       ??_C@_1O@MKEKBLAH@?$AAd?$AAi?$AAv?$AA?9?$AAM?$AAV?$AA?$AA@ 000000018003bb98     libucrt:lcidtoname_downlevel.obj
 0002:00004ba8       ??_C@_1O@OHDCKDDF@?$AAq?$AAu?$AAz?$AA?9?$AAB?$AAO?$AA?$AA@ 000000018003bba8     libucrt:lcidtoname_downlevel.obj
 0002:00004bb8       ??_C@_1M@LEPJNLFD@?$AAn?$AAs?$AA?9?$AAZ?$AAA?$AA?$AA@ 000000018003bbb8     libucrt:lcidtoname_downlevel.obj
 0002:00004bc8       ??_C@_1M@OMLEIIJB@?$AAm?$AAi?$AA?9?$AAN?$AAZ?$AA?$AA@ 000000018003bbc8     libucrt:lcidtoname_downlevel.obj
 0002:00004bd8       ??_C@_1M@PMPEAILG@?$AAa?$AAr?$AA?9?$AAI?$AAQ?$AA?$AA@ 000000018003bbd8     libucrt:lcidtoname_downlevel.obj
 0002:00004be8       ??_C@_1M@CNKPNOEE@?$AAd?$AAe?$AA?9?$AAC?$AAH?$AA?$AA@ 000000018003bbe8     libucrt:lcidtoname_downlevel.obj
 0002:00004bf8       ??_C@_1M@LKMGMLKO@?$AAe?$AAn?$AA?9?$AAG?$AAB?$AA?$AA@ 000000018003bbf8     libucrt:lcidtoname_downlevel.obj
 0002:00004c08       ??_C@_1M@PGKJFFGL@?$AAe?$AAs?$AA?9?$AAM?$AAX?$AA?$AA@ 000000018003bc08     libucrt:lcidtoname_downlevel.obj
 0002:00004c18       ??_C@_1M@DNNANBDC@?$AAf?$AAr?$AA?9?$AAB?$AAE?$AA?$AA@ 000000018003bc18     libucrt:lcidtoname_downlevel.obj
 0002:00004c28       ??_C@_1M@HLGMDFHM@?$AAi?$AAt?$AA?9?$AAC?$AAH?$AA?$AA@ 000000018003bc28     libucrt:lcidtoname_downlevel.obj
 0002:00004c38       ??_C@_1M@CLLBGJH@?$AAn?$AAl?$AA?9?$AAB?$AAE?$AA?$AA@ 000000018003bc38     libucrt:lcidtoname_downlevel.obj
 0002:00004c48       ??_C@_1M@BODBOGLF@?$AAn?$AAn?$AA?9?$AAN?$AAO?$AA?$AA@ 000000018003bc48     libucrt:lcidtoname_downlevel.obj
 0002:00004c58       ??_C@_1M@HFFAHKAD@?$AAp?$AAt?$AA?9?$AAP?$AAT?$AA?$AA@ 000000018003bc58     libucrt:lcidtoname_downlevel.obj
 0002:00004c68       ??_C@_1BG@LNOAKHIE@?$AAs?$AAr?$AA?9?$AAS?$AAP?$AA?9?$AAL?$AAa?$AAt?$AAn?$AA?$AA@ 000000018003bc68     libucrt:lcidtoname_downlevel.obj
 0002:00004c80       ??_C@_1M@HBMHBGAK@?$AAs?$AAv?$AA?9?$AAF?$AAI?$AA?$AA@ 000000018003bc80     libucrt:lcidtoname_downlevel.obj
 0002:00004c90       ??_C@_1BG@DGCJGJBE@?$AAa?$AAz?$AA?9?$AAA?$AAZ?$AA?9?$AAC?$AAy?$AAr?$AAl?$AA?$AA@ 000000018003bc90     libucrt:lcidtoname_downlevel.obj
 0002:00004ca8       ??_C@_1M@KEJDAAHB@?$AAs?$AAe?$AA?9?$AAS?$AAE?$AA?$AA@ 000000018003bca8     libucrt:lcidtoname_downlevel.obj
 0002:00004cb8       ??_C@_1M@HEIBJJAD@?$AAm?$AAs?$AA?9?$AAB?$AAN?$AA?$AA@ 000000018003bcb8     libucrt:lcidtoname_downlevel.obj
 0002:00004cc8       ??_C@_1BG@PBGJMCEM@?$AAu?$AAz?$AA?9?$AAU?$AAZ?$AA?9?$AAC?$AAy?$AAr?$AAl?$AA?$AA@ 000000018003bcc8     libucrt:lcidtoname_downlevel.obj
 0002:00004ce0       ??_C@_1O@LAOBCMDF@?$AAq?$AAu?$AAz?$AA?9?$AAE?$AAC?$AA?$AA@ 000000018003bce0     libucrt:lcidtoname_downlevel.obj
 0002:00004cf0       ??_C@_1M@POEEMAIO@?$AAa?$AAr?$AA?9?$AAE?$AAG?$AA?$AA@ 000000018003bcf0     libucrt:lcidtoname_downlevel.obj
 0002:00004d00       ??_C@_1M@EFAKDEDL@?$AAz?$AAh?$AA?9?$AAH?$AAK?$AA?$AA@ 000000018003bd00     libucrt:lcidtoname_downlevel.obj
 0002:00004d10       ??_C@_1M@HKKIJHGI@?$AAd?$AAe?$AA?9?$AAA?$AAT?$AA?$AA@ 000000018003bd10     libucrt:lcidtoname_downlevel.obj
 0002:00004d20       ??_C@_1M@KBFBEHJF@?$AAe?$AAn?$AA?9?$AAA?$AAU?$AA?$AA@ 000000018003bd20     libucrt:lcidtoname_downlevel.obj
 0002:00004d30       ??_C@_1M@MNPLFAAH@?$AAe?$AAs?$AA?9?$AAE?$AAS?$AA?$AA@ 000000018003bd30     libucrt:lcidtoname_downlevel.obj
 0002:00004d40       ??_C@_1M@HJOOJFMA@?$AAf?$AAr?$AA?9?$AAC?$AAA?$AA?$AA@ 000000018003bd40     libucrt:lcidtoname_downlevel.obj
 0002:00004d50       ??_C@_1BG@JPOFPNAB@?$AAs?$AAr?$AA?9?$AAS?$AAP?$AA?9?$AAC?$AAy?$AAr?$AAl?$AA?$AA@ 000000018003bd50     libucrt:lcidtoname_downlevel.obj
 0002:00004d68       ??_C@_1M@LNFOCMOB@?$AAs?$AAe?$AA?9?$AAF?$AAI?$AA?$AA@ 000000018003bd68     libucrt:lcidtoname_downlevel.obj
 0002:00004d78       ??_C@_1O@MGJBOAMB@?$AAq?$AAu?$AAz?$AA?9?$AAP?$AAE?$AA?$AA@ 000000018003bd78     libucrt:lcidtoname_downlevel.obj
 0002:00004d88       ??_C@_1M@GJINLBOK@?$AAa?$AAr?$AA?9?$AAL?$AAY?$AA?$AA@ 000000018003bd88     libucrt:lcidtoname_downlevel.obj
 0002:00004d98       ??_C@_1M@GGMNHJNL@?$AAz?$AAh?$AA?9?$AAS?$AAG?$AA?$AA@ 000000018003bd98     libucrt:lcidtoname_downlevel.obj
 0002:00004da8       ??_C@_1M@HOIKODND@?$AAd?$AAe?$AA?9?$AAL?$AAU?$AA?$AA@ 000000018003bda8     libucrt:lcidtoname_downlevel.obj
 0002:00004db8       ??_C@_1M@DDOCCGFG@?$AAe?$AAn?$AA?9?$AAC?$AAA?$AA?$AA@ 000000018003bdb8     libucrt:lcidtoname_downlevel.obj
 0002:00004dc8       ??_C@_1M@BNOEMJLF@?$AAe?$AAs?$AA?9?$AAG?$AAT?$AA?$AA@ 000000018003bdc8     libucrt:lcidtoname_downlevel.obj
 0002:00004dd8       ??_C@_1M@EOGNKEK@?$AAf?$AAr?$AA?9?$AAC?$AAH?$AA?$AA@ 000000018003bdd8     libucrt:lcidtoname_downlevel.obj
 0002:00004de8       ??_C@_1M@FLIDJFHL@?$AAh?$AAr?$AA?9?$AAB?$AAA?$AA?$AA@ 000000018003bde8     libucrt:lcidtoname_downlevel.obj
 0002:00004df8       ??_C@_1O@FMCELNAJ@?$AAs?$AAm?$AAj?$AA?9?$AAN?$AAO?$AA?$AA@ 000000018003bdf8     libucrt:lcidtoname_downlevel.obj
 0002:00004e08       ??_C@_1M@JHGLJMGJ@?$AAa?$AAr?$AA?9?$AAD?$AAZ?$AA?$AA@ 000000018003be08     libucrt:lcidtoname_downlevel.obj
 0002:00004e18       ??_C@_1M@JKKFDCNP@?$AAz?$AAh?$AA?9?$AAM?$AAO?$AA?$AA@ 000000018003be18     libucrt:lcidtoname_downlevel.obj
 0002:00004e28       ??_C@_1M@GEEFALPE@?$AAd?$AAe?$AA?9?$AAL?$AAI?$AA?$AA@ 000000018003be28     libucrt:lcidtoname_downlevel.obj
 0002:00004e38       ??_C@_1M@IGEOFBG@?$AAe?$AAn?$AA?9?$AAN?$AAZ?$AA?$AA@ 000000018003be38     libucrt:lcidtoname_downlevel.obj
 0002:00004e48       ??_C@_1M@KDBONEHP@?$AAe?$AAs?$AA?9?$AAC?$AAR?$AA?$AA@ 000000018003be48     libucrt:lcidtoname_downlevel.obj
 0002:00004e58       ??_C@_1M@FHMDOHNN@?$AAf?$AAr?$AA?9?$AAL?$AAU?$AA?$AA@ 000000018003be58     libucrt:lcidtoname_downlevel.obj
 0002:00004e68       ??_C@_1BG@NFKKMAFG@?$AAb?$AAs?$AA?9?$AAB?$AAA?$AA?9?$AAL?$AAa?$AAt?$AAn?$AA?$AA@ 000000018003be68     libucrt:lcidtoname_downlevel.obj
 0002:00004e80       ??_C@_1O@IMNBEMCI@?$AAs?$AAm?$AAj?$AA?9?$AAS?$AAE?$AA?$AA@ 000000018003be80     libucrt:lcidtoname_downlevel.obj
 0002:00004e90       ??_C@_1M@DHHMBNDP@?$AAa?$AAr?$AA?9?$AAM?$AAA?$AA?$AA@ 000000018003be90     libucrt:lcidtoname_downlevel.obj
 0002:00004ea0       ??_C@_1M@BNBLJCGH@?$AAe?$AAn?$AA?9?$AAI?$AAE?$AA?$AA@ 000000018003bea0     libucrt:lcidtoname_downlevel.obj
 0002:00004eb0       ??_C@_1M@GEPAFMDL@?$AAe?$AAs?$AA?9?$AAP?$AAA?$AA?$AA@ 000000018003beb0     libucrt:lcidtoname_downlevel.obj
 0002:00004ec0       ??_C@_1M@OJONDMDL@?$AAf?$AAr?$AA?9?$AAM?$AAC?$AA?$AA@ 000000018003bec0     libucrt:lcidtoname_downlevel.obj
 0002:00004ed0       ??_C@_1BG@OBCNFJB@?$AAs?$AAr?$AA?9?$AAB?$AAA?$AA?9?$AAL?$AAa?$AAt?$AAn?$AA?$AA@ 000000018003bed0     libucrt:lcidtoname_downlevel.obj
 0002:00004ee8       ??_C@_1O@KEMEEGPO@?$AAs?$AAm?$AAa?$AA?9?$AAN?$AAO?$AA?$AA@ 000000018003bee8     libucrt:lcidtoname_downlevel.obj
 0002:00004ef8       ??_C@_1M@ELMGFODK@?$AAa?$AAr?$AA?9?$AAT?$AAN?$AA?$AA@ 000000018003bef8     libucrt:lcidtoname_downlevel.obj
 0002:00004f08       ??_C@_1M@BHDLHFAF@?$AAe?$AAn?$AA?9?$AAZ?$AAA?$AA?$AA@ 000000018003bf08     libucrt:lcidtoname_downlevel.obj
 0002:00004f18       ??_C@_1M@BMGIGLIF@?$AAe?$AAs?$AA?9?$AAD?$AAO?$AA?$AA@ 000000018003bf18     libucrt:lcidtoname_downlevel.obj
 0002:00004f28       ??_C@_1BG@CMBHIPBE@?$AAs?$AAr?$AA?9?$AAB?$AAA?$AA?9?$AAC?$AAy?$AAr?$AAl?$AA?$AA@ 000000018003bf28     libucrt:lcidtoname_downlevel.obj
 0002:00004f40       ??_C@_1O@HEDBLHNP@?$AAs?$AAm?$AAa?$AA?9?$AAS?$AAE?$AA?$AA@ 000000018003bf40     libucrt:lcidtoname_downlevel.obj
 0002:00004f50       ??_C@_1M@DAGCADIM@?$AAa?$AAr?$AA?9?$AAO?$AAM?$AA?$AA@ 000000018003bf50     libucrt:lcidtoname_downlevel.obj
 0002:00004f60       ??_C@_1M@FODLMICG@?$AAe?$AAn?$AA?9?$AAJ?$AAM?$AA?$AA@ 000000018003bf60     libucrt:lcidtoname_downlevel.obj
 0002:00004f70       ??_C@_1M@DNMLCIHB@?$AAe?$AAs?$AA?9?$AAV?$AAE?$AA?$AA@ 000000018003bf70     libucrt:lcidtoname_downlevel.obj
 0002:00004f80       ??_C@_1O@EOKHMKJK@?$AAs?$AAm?$AAs?$AA?9?$AAF?$AAI?$AA?$AA@ 000000018003bf80     libucrt:lcidtoname_downlevel.obj
 0002:00004f90       ??_C@_1M@CAFJMKOF@?$AAa?$AAr?$AA?9?$AAY?$AAE?$AA?$AA@ 000000018003bf90     libucrt:lcidtoname_downlevel.obj
 0002:00004fa0       ??_C@_1M@CBFHIJLI@?$AAe?$AAn?$AA?9?$AAC?$AAB?$AA?$AA@ 000000018003bfa0     libucrt:lcidtoname_downlevel.obj
 0002:00004fb0       ??_C@_1M@BGNFLDN@?$AAe?$AAs?$AA?9?$AAC?$AAO?$AA?$AA@ 000000018003bfb0     libucrt:lcidtoname_downlevel.obj
 0002:00004fc0       ??_C@_1O@JMPHMAMC@?$AAs?$AAm?$AAn?$AA?9?$AAF?$AAI?$AA?$AA@ 000000018003bfc0     libucrt:lcidtoname_downlevel.obj
 0002:00004fd0       ??_C@_1M@JLANABKE@?$AAa?$AAr?$AA?9?$AAS?$AAY?$AA?$AA@ 000000018003bfd0     libucrt:lcidtoname_downlevel.obj
 0002:00004fe0       ??_C@_1M@HPKGCFGN@?$AAe?$AAn?$AA?9?$AAB?$AAZ?$AA?$AA@ 000000018003bfe0     libucrt:lcidtoname_downlevel.obj
 0002:00004ff0       ??_C@_1M@OLJCMLGM@?$AAe?$AAs?$AA?9?$AAP?$AAE?$AA?$AA@ 000000018003bff0     libucrt:lcidtoname_downlevel.obj
 0002:00005000       ??_C@_1M@MKKGFKLE@?$AAa?$AAr?$AA?9?$AAJ?$AAO?$AA?$AA@ 000000018003c000     libucrt:lcidtoname_downlevel.obj
 0002:00005010       ??_C@_1M@EKPGLDNI@?$AAe?$AAn?$AA?9?$AAT?$AAT?$AA?$AA@ 000000018003c010     libucrt:lcidtoname_downlevel.obj
 0002:00005020       ??_C@_1M@OONGHFHE@?$AAe?$AAs?$AA?9?$AAA?$AAR?$AA?$AA@ 000000018003c020     libucrt:lcidtoname_downlevel.obj
 0002:00005030       ??_C@_1M@OOJFGBHE@?$AAa?$AAr?$AA?9?$AAL?$AAB?$AA?$AA@ 000000018003c030     libucrt:lcidtoname_downlevel.obj
 0002:00005040       ??_C@_1M@GCEJHNEG@?$AAe?$AAn?$AA?9?$AAZ?$AAW?$AA?$AA@ 000000018003c040     libucrt:lcidtoname_downlevel.obj
 0002:00005050       ??_C@_1M@JNOCAHJI@?$AAe?$AAs?$AA?9?$AAE?$AAC?$AA?$AA@ 000000018003c050     libucrt:lcidtoname_downlevel.obj
 0002:00005060       ??_C@_1M@JEFHPGGB@?$AAa?$AAr?$AA?9?$AAK?$AAW?$AA?$AA@ 000000018003c060     libucrt:lcidtoname_downlevel.obj
 0002:00005070       ??_C@_1M@MLKIBJOJ@?$AAe?$AAn?$AA?9?$AAP?$AAH?$AA?$AA@ 000000018003c070     libucrt:lcidtoname_downlevel.obj
 0002:00005080       ??_C@_1M@BDNIPEND@?$AAe?$AAs?$AA?9?$AAC?$AAL?$AA?$AA@ 000000018003c080     libucrt:lcidtoname_downlevel.obj
 0002:00005090       ??_C@_1M@MPNMEKBD@?$AAa?$AAr?$AA?9?$AAA?$AAE?$AA?$AA@ 000000018003c090     libucrt:lcidtoname_downlevel.obj
 0002:000050a0       ??_C@_1M@KBJALCPI@?$AAe?$AAs?$AA?9?$AAU?$AAY?$AA?$AA@ 000000018003c0a0     libucrt:lcidtoname_downlevel.obj
 0002:000050b0       ??_C@_1M@LLCCOAGA@?$AAa?$AAr?$AA?9?$AAB?$AAH?$AA?$AA@ 000000018003c0b0     libucrt:lcidtoname_downlevel.obj
 0002:000050c0       ??_C@_1M@PBFNCDEL@?$AAe?$AAs?$AA?9?$AAP?$AAY?$AA?$AA@ 000000018003c0c0     libucrt:lcidtoname_downlevel.obj
 0002:000050d0       ??_C@_1M@EDGINPNP@?$AAa?$AAr?$AA?9?$AAQ?$AAA?$AA?$AA@ 000000018003c0d0     libucrt:lcidtoname_downlevel.obj
 0002:000050e0       ??_C@_1M@MKDBIIJI@?$AAe?$AAs?$AA?9?$AAB?$AAO?$AA?$AA@ 000000018003c0e0     libucrt:lcidtoname_downlevel.obj
 0002:000050f0       ??_C@_1M@CPKKEBLD@?$AAe?$AAs?$AA?9?$AAS?$AAV?$AA?$AA@ 000000018003c0f0     libucrt:lcidtoname_downlevel.obj
 0002:00005100       ??_C@_1M@NDBGMMJL@?$AAe?$AAs?$AA?9?$AAH?$AAN?$AA?$AA@ 000000018003c100     libucrt:lcidtoname_downlevel.obj
 0002:00005110       ??_C@_1M@JIJIBHDP@?$AAe?$AAs?$AA?9?$AAN?$AAI?$AA?$AA@ 000000018003c110     libucrt:lcidtoname_downlevel.obj
 0002:00005120       ??_C@_1M@CGFMKEEK@?$AAe?$AAs?$AA?9?$AAP?$AAR?$AA?$AA@ 000000018003c120     libucrt:lcidtoname_downlevel.obj
 0002:00005130       ??_C@_1O@ICJHKIIK@?$AAz?$AAh?$AA?9?$AAC?$AAH?$AAT?$AA?$AA@ 000000018003c130     libucrt:lcidtoname_downlevel.obj
 0002:00005140       ??_C@_15CLNEJCE@?$AAs?$AAr?$AA?$AA@ 000000018003c140     libucrt:lcidtoname_downlevel.obj
 0002:00005f90       ??_C@_1M@KAHEKEIG@?$AAa?$AAf?$AA?9?$AAz?$AAa?$AA?$AA@ 000000018003cf90     libucrt:lcidtoname_downlevel.obj
 0002:00005fa0       ??_C@_1M@GIECOABL@?$AAa?$AAr?$AA?9?$AAa?$AAe?$AA?$AA@ 000000018003cfa0     libucrt:lcidtoname_downlevel.obj
 0002:00005fb0       ??_C@_1M@BMLMEKGI@?$AAa?$AAr?$AA?9?$AAb?$AAh?$AA?$AA@ 000000018003cfb0     libucrt:lcidtoname_downlevel.obj
 0002:00005fc0       ??_C@_1M@DAPFDGGB@?$AAa?$AAr?$AA?9?$AAd?$AAz?$AA?$AA@ 000000018003cfc0     libucrt:lcidtoname_downlevel.obj
 0002:00005fd0       ??_C@_1M@FJNKGKIG@?$AAa?$AAr?$AA?9?$AAe?$AAg?$AA?$AA@ 000000018003cfd0     libucrt:lcidtoname_downlevel.obj
 0002:00005fe0       ??_C@_1M@FLGKKCLO@?$AAa?$AAr?$AA?9?$AAi?$AAq?$AA?$AA@ 000000018003cfe0     libucrt:lcidtoname_downlevel.obj
 0002:00005ff0       ??_C@_1M@GNDIPALM@?$AAa?$AAr?$AA?9?$AAj?$AAo?$AA?$AA@ 000000018003cff0     libucrt:lcidtoname_downlevel.obj
 0002:00006000       ??_C@_1M@DDMJFMGJ@?$AAa?$AAr?$AA?9?$AAk?$AAw?$AA?$AA@ 000000018003d000     libucrt:lcidtoname_downlevel.obj
 0002:00006010       ??_C@_1M@EJALMLHM@?$AAa?$AAr?$AA?9?$AAl?$AAb?$AA?$AA@ 000000018003d010     libucrt:lcidtoname_downlevel.obj
 0002:00006020       ??_C@_1M@MOBDBLOC@?$AAa?$AAr?$AA?9?$AAl?$AAy?$AA?$AA@ 000000018003d020     libucrt:lcidtoname_downlevel.obj
 0002:00006030       ??_C@_1M@JAOCLHDH@?$AAa?$AAr?$AA?9?$AAm?$AAa?$AA?$AA@ 000000018003d030     libucrt:lcidtoname_downlevel.obj
 0002:00006040       ??_C@_1M@JHPMKJIE@?$AAa?$AAr?$AA?9?$AAo?$AAm?$AA?$AA@ 000000018003d040     libucrt:lcidtoname_downlevel.obj
 0002:00006050       ??_C@_1M@OEPGHFNH@?$AAa?$AAr?$AA?9?$AAq?$AAa?$AA?$AA@ 000000018003d050     libucrt:lcidtoname_downlevel.obj
 0002:00006060       ??_C@_1M@KJDONENM@?$AAa?$AAr?$AA?9?$AAs?$AAa?$AA?$AA@ 000000018003d060     libucrt:lcidtoname_downlevel.obj
 0002:00006070       ??_C@_1M@DMJDKLKM@?$AAa?$AAr?$AA?9?$AAs?$AAy?$AA?$AA@ 000000018003d070     libucrt:lcidtoname_downlevel.obj
 0002:00006080       ??_C@_1M@OMFIPEDC@?$AAa?$AAr?$AA?9?$AAt?$AAn?$AA?$AA@ 000000018003d080     libucrt:lcidtoname_downlevel.obj
 0002:00006090       ??_C@_1M@IHMHGAON@?$AAa?$AAr?$AA?9?$AAy?$AAe?$AA?$AA@ 000000018003d090     libucrt:lcidtoname_downlevel.obj
 0002:000060a0       ??_C@_1BG@KDCPGJGB@?$AAa?$AAz?$AA?9?$AAa?$AAz?$AA?9?$AAc?$AAy?$AAr?$AAl?$AA?$AA@ 000000018003d0a0     libucrt:lcidtoname_downlevel.obj
 0002:000060b8       ??_C@_1BG@IBCKDDOE@?$AAa?$AAz?$AA?9?$AAa?$AAz?$AA?9?$AAl?$AAa?$AAt?$AAn?$AA?$AA@ 000000018003d0b8     libucrt:lcidtoname_downlevel.obj
 0002:000060d0       ??_C@_1M@EGPFDCPD@?$AAb?$AAe?$AA?9?$AAb?$AAy?$AA?$AA@ 000000018003d0d0     libucrt:lcidtoname_downlevel.obj
 0002:000060e0       ??_C@_1M@PCMGMCGC@?$AAb?$AAg?$AA?9?$AAb?$AAg?$AA?$AA@ 000000018003d0e0     libucrt:lcidtoname_downlevel.obj
 0002:000060f0       ??_C@_1M@BJBMFGOB@?$AAb?$AAn?$AA?9?$AAi?$AAn?$AA?$AA@ 000000018003d0f0     libucrt:lcidtoname_downlevel.obj
 0002:00006100       ??_C@_1BG@EAKMMACD@?$AAb?$AAs?$AA?9?$AAb?$AAa?$AA?9?$AAl?$AAa?$AAt?$AAn?$AA?$AA@ 000000018003d100     libucrt:lcidtoname_downlevel.obj
 0002:00006118       ??_C@_1M@KGADAODK@?$AAc?$AAa?$AA?9?$AAe?$AAs?$AA?$AA@ 000000018003d118     libucrt:lcidtoname_downlevel.obj
 0002:00006128       ??_C@_1M@COAJPDHI@?$AAc?$AAs?$AA?9?$AAc?$AAz?$AA?$AA@ 000000018003d128     libucrt:lcidtoname_downlevel.obj
 0002:00006138       ??_C@_1M@DHBHFONH@?$AAc?$AAy?$AA?9?$AAg?$AAb?$AA?$AA@ 000000018003d138     libucrt:lcidtoname_downlevel.obj
 0002:00006148       ??_C@_1M@IMGKELGA@?$AAd?$AAa?$AA?9?$AAd?$AAk?$AA?$AA@ 000000018003d148     libucrt:lcidtoname_downlevel.obj
 0002:00006158       ??_C@_1M@NNDGDNGA@?$AAd?$AAe?$AA?9?$AAa?$AAt?$AA?$AA@ 000000018003d158     libucrt:lcidtoname_downlevel.obj
 0002:00006168       ??_C@_1M@IKDBHEEM@?$AAd?$AAe?$AA?9?$AAc?$AAh?$AA?$AA@ 000000018003d168     libucrt:lcidtoname_downlevel.obj
 0002:00006178       ??_C@_1M@GFFOJMCJ@?$AAd?$AAe?$AA?9?$AAd?$AAe?$AA?$AA@ 000000018003d178     libucrt:lcidtoname_downlevel.obj
 0002:00006188       ??_C@_1M@MDNLKBPM@?$AAd?$AAe?$AA?9?$AAl?$AAi?$AA?$AA@ 000000018003d188     libucrt:lcidtoname_downlevel.obj
 0002:00006198       ??_C@_1M@NJBEEJNL@?$AAd?$AAe?$AA?9?$AAl?$AAu?$AA?$AA@ 000000018003d198     libucrt:lcidtoname_downlevel.obj
 0002:000061a8       ??_C@_1O@GNNELBAP@?$AAd?$AAi?$AAv?$AA?9?$AAm?$AAv?$AA?$AA@ 000000018003d1a8     libucrt:lcidtoname_downlevel.obj
 0002:000061b8       ??_C@_1M@EJLEOGAE@?$AAe?$AAl?$AA?9?$AAg?$AAr?$AA?$AA@ 000000018003d1b8     libucrt:lcidtoname_downlevel.obj
 0002:000061c8       ??_C@_1M@GMPONJN@?$AAe?$AAn?$AA?9?$AAa?$AAu?$AA?$AA@ 000000018003d1c8     libucrt:lcidtoname_downlevel.obj
 0002:000061d8       ??_C@_1M@NIDIIPGF@?$AAe?$AAn?$AA?9?$AAb?$AAz?$AA?$AA@ 000000018003d1d8     libucrt:lcidtoname_downlevel.obj
 0002:000061e8       ??_C@_1M@JEHMIMFO@?$AAe?$AAn?$AA?9?$AAc?$AAa?$AA?$AA@ 000000018003d1e8     libucrt:lcidtoname_downlevel.obj
 0002:000061f8       ??_C@_1M@IGMJCDLA@?$AAe?$AAn?$AA?9?$AAc?$AAb?$AA?$AA@ 000000018003d1f8     libucrt:lcidtoname_downlevel.obj
 0002:00006208       ??_C@_1M@BNFIGBKG@?$AAe?$AAn?$AA?9?$AAg?$AAb?$AA?$AA@ 000000018003d208     libucrt:lcidtoname_downlevel.obj
 0002:00006218       ??_C@_1M@LKIFDIGP@?$AAe?$AAn?$AA?9?$AAi?$AAe?$AA?$AA@ 000000018003d218     libucrt:lcidtoname_downlevel.obj
 0002:00006228       ??_C@_1M@PJKFGCCO@?$AAe?$AAn?$AA?9?$AAj?$AAm?$AA?$AA@ 000000018003d228     libucrt:lcidtoname_downlevel.obj
 0002:00006238       ??_C@_1M@KPPKEPBO@?$AAe?$AAn?$AA?9?$AAn?$AAz?$AA?$AA@ 000000018003d238     libucrt:lcidtoname_downlevel.obj
 0002:00006248       ??_C@_1M@GMDGLDOB@?$AAe?$AAn?$AA?9?$AAp?$AAh?$AA?$AA@ 000000018003d248     libucrt:lcidtoname_downlevel.obj
 0002:00006258       ??_C@_1M@ONGIBJNA@?$AAe?$AAn?$AA?9?$AAt?$AAt?$AA?$AA@ 000000018003d258     libucrt:lcidtoname_downlevel.obj
 0002:00006268       ??_C@_1M@LLODPCMM@?$AAe?$AAn?$AA?9?$AAu?$AAs?$AA?$AA@ 000000018003d268     libucrt:lcidtoname_downlevel.obj
 0002:00006278       ??_C@_1M@LAKFNPAN@?$AAe?$AAn?$AA?9?$AAz?$AAa?$AA?$AA@ 000000018003d278     libucrt:lcidtoname_downlevel.obj
 0002:00006288       ??_C@_1M@MFNHNHEO@?$AAe?$AAn?$AA?9?$AAz?$AAw?$AA?$AA@ 000000018003d288     libucrt:lcidtoname_downlevel.obj
 0002:00006298       ??_C@_1M@EJEINPHM@?$AAe?$AAs?$AA?9?$AAa?$AAr?$AA?$AA@ 000000018003d298     libucrt:lcidtoname_downlevel.obj
 0002:000062a8       ??_C@_1M@GNKPCCJA@?$AAe?$AAs?$AA?9?$AAb?$AAo?$AA?$AA@ 000000018003d2a8     libucrt:lcidtoname_downlevel.obj
 0002:000062b8       ??_C@_1M@LEEGFONL@?$AAe?$AAs?$AA?9?$AAc?$AAl?$AA?$AA@ 000000018003d2b8     libucrt:lcidtoname_downlevel.obj
 0002:000062c8       ??_C@_1M@KGPDPBDF@?$AAe?$AAs?$AA?9?$AAc?$AAo?$AA?$AA@ 000000018003d2c8     libucrt:lcidtoname_downlevel.obj
 0002:000062d8       ??_C@_1M@EIAHOHH@?$AAe?$AAs?$AA?9?$AAc?$AAr?$AA?$AA@ 000000018003d2d8     libucrt:lcidtoname_downlevel.obj
 0002:000062e8       ??_C@_1M@LLPGMBIN@?$AAe?$AAs?$AA?9?$AAd?$AAo?$AA?$AA@ 000000018003d2e8     libucrt:lcidtoname_downlevel.obj
 0002:000062f8       ??_C@_1M@DKHMKNJA@?$AAe?$AAs?$AA?9?$AAe?$AAc?$AA?$AA@ 000000018003d2f8     libucrt:lcidtoname_downlevel.obj
 0002:00006308       ??_C@_1M@GKGFPKAP@?$AAe?$AAs?$AA?9?$AAe?$AAs?$AA?$AA@ 000000018003d308     libucrt:lcidtoname_downlevel.obj
 0002:00006318       ??_C@_1M@LKHKGDLN@?$AAe?$AAs?$AA?9?$AAg?$AAt?$AA?$AA@ 000000018003d318     libucrt:lcidtoname_downlevel.obj
 0002:00006328       ??_C@_1M@HEIIGGJD@?$AAe?$AAs?$AA?9?$AAh?$AAn?$AA?$AA@ 000000018003d328     libucrt:lcidtoname_downlevel.obj
 0002:00006338       ??_C@_1M@FBDHPPGD@?$AAe?$AAs?$AA?9?$AAm?$AAx?$AA?$AA@ 000000018003d338     libucrt:lcidtoname_downlevel.obj
 0002:00006348       ??_C@_1M@DPAGLNDH@?$AAe?$AAs?$AA?9?$AAn?$AAi?$AA?$AA@ 000000018003d348     libucrt:lcidtoname_downlevel.obj
 0002:00006358       ??_C@_1M@MDGOPGDD@?$AAe?$AAs?$AA?9?$AAp?$AAa?$AA?$AA@ 000000018003d358     libucrt:lcidtoname_downlevel.obj
 0002:00006368       ??_C@_1M@EMAMGBGE@?$AAe?$AAs?$AA?9?$AAp?$AAe?$AA?$AA@ 000000018003d368     libucrt:lcidtoname_downlevel.obj
 0002:00006378       ??_C@_1M@IBMCAOEC@?$AAe?$AAs?$AA?9?$AAp?$AAr?$AA?$AA@ 000000018003d378     libucrt:lcidtoname_downlevel.obj
 0002:00006388       ??_C@_1M@FGMDIJED@?$AAe?$AAs?$AA?9?$AAp?$AAy?$AA?$AA@ 000000018003d388     libucrt:lcidtoname_downlevel.obj
 0002:00006398       ??_C@_1M@IIDEOLLL@?$AAe?$AAs?$AA?9?$AAs?$AAv?$AA?$AA@ 000000018003d398     libucrt:lcidtoname_downlevel.obj
 0002:000063a8       ??_C@_1M@GAOBIPA@?$AAe?$AAs?$AA?9?$AAu?$AAy?$AA?$AA@ 000000018003d3a8     libucrt:lcidtoname_downlevel.obj
 0002:000063b8       ??_C@_1M@JKFFICHJ@?$AAe?$AAs?$AA?9?$AAv?$AAe?$AA?$AA@ 000000018003d3b8     libucrt:lcidtoname_downlevel.obj
 0002:000063c8       ??_C@_1M@PNMLOJDF@?$AAe?$AAt?$AA?9?$AAe?$AAe?$AA?$AA@ 000000018003d3c8     libucrt:lcidtoname_downlevel.obj
 0002:000063d8       ??_C@_1M@GHHLIKEI@?$AAe?$AAu?$AA?9?$AAe?$AAs?$AA?$AA@ 000000018003d3d8     libucrt:lcidtoname_downlevel.obj
 0002:000063e8       ??_C@_1M@PBNONODE@?$AAf?$AAa?$AA?9?$AAi?$AAr?$AA?$AA@ 000000018003d3e8     libucrt:lcidtoname_downlevel.obj
 0002:000063f8       ??_C@_1M@JEEHPMIL@?$AAf?$AAi?$AA?9?$AAf?$AAi?$AA?$AA@ 000000018003d3f8     libucrt:lcidtoname_downlevel.obj
 0002:00006408       ??_C@_1M@LMDCNDBA@?$AAf?$AAo?$AA?9?$AAf?$AAo?$AA?$AA@ 000000018003d408     libucrt:lcidtoname_downlevel.obj
 0002:00006418       ??_C@_1M@JKEOHLDK@?$AAf?$AAr?$AA?9?$AAb?$AAe?$AA?$AA@ 000000018003d418     libucrt:lcidtoname_downlevel.obj
 0002:00006428       ??_C@_1M@NOHADPMI@?$AAf?$AAr?$AA?9?$AAc?$AAa?$AA?$AA@ 000000018003d428     libucrt:lcidtoname_downlevel.obj
 0002:00006438       ??_C@_1M@KDHIHAEC@?$AAf?$AAr?$AA?9?$AAc?$AAh?$AA?$AA@ 000000018003d438     libucrt:lcidtoname_downlevel.obj
 0002:00006448       ??_C@_1M@MMBBFGAK@?$AAf?$AAr?$AA?9?$AAf?$AAr?$AA?$AA@ 000000018003d448     libucrt:lcidtoname_downlevel.obj
 0002:00006458       ??_C@_1M@PAFNENNF@?$AAf?$AAr?$AA?9?$AAl?$AAu?$AA?$AA@ 000000018003d458     libucrt:lcidtoname_downlevel.obj
 0002:00006468       ??_C@_1M@EOHDJGDD@?$AAf?$AAr?$AA?9?$AAm?$AAc?$AA?$AA@ 000000018003d468     libucrt:lcidtoname_downlevel.obj
 0002:00006478       ??_C@_1M@FAPLLOPF@?$AAg?$AAl?$AA?9?$AAe?$AAs?$AA?$AA@ 000000018003d478     libucrt:lcidtoname_downlevel.obj
 0002:00006488       ??_C@_1M@FOPBFLOO@?$AAg?$AAu?$AA?9?$AAi?$AAn?$AA?$AA@ 000000018003d488     libucrt:lcidtoname_downlevel.obj
 0002:00006498       ??_C@_1M@KBMCINPM@?$AAh?$AAe?$AA?9?$AAi?$AAl?$AA?$AA@ 000000018003d498     libucrt:lcidtoname_downlevel.obj
 0002:000064a8       ??_C@_1M@BBPHKFPJ@?$AAh?$AAi?$AA?9?$AAi?$AAn?$AA?$AA@ 000000018003d4a8     libucrt:lcidtoname_downlevel.obj
 0002:000064b8       ??_C@_1M@PMBNDPHD@?$AAh?$AAr?$AA?9?$AAb?$AAa?$AA?$AA@ 000000018003d4b8     libucrt:lcidtoname_downlevel.obj
 0002:000064c8       ??_C@_1M@BPCKOEGE@?$AAh?$AAr?$AA?9?$AAh?$AAr?$AA?$AA@ 000000018003d4c8     libucrt:lcidtoname_downlevel.obj
 0002:000064d8       ??_C@_1M@GACBMHKE@?$AAh?$AAu?$AA?9?$AAh?$AAu?$AA?$AA@ 000000018003d4d8     libucrt:lcidtoname_downlevel.obj
 0002:000064e8       ??_C@_1M@MILPAJJC@?$AAh?$AAy?$AA?9?$AAa?$AAm?$AA?$AA@ 000000018003d4e8     libucrt:lcidtoname_downlevel.obj
 0002:000064f8       ??_C@_1M@BABBICEC@?$AAi?$AAd?$AA?9?$AAi?$AAd?$AA?$AA@ 000000018003d4f8     libucrt:lcidtoname_downlevel.obj
 0002:00006508       ??_C@_1M@BIKNHHPF@?$AAi?$AAs?$AA?9?$AAi?$AAs?$AA?$AA@ 000000018003d508     libucrt:lcidtoname_downlevel.obj
 0002:00006518       ??_C@_1M@NMPCJPHE@?$AAi?$AAt?$AA?9?$AAc?$AAh?$AA?$AA@ 000000018003d518     libucrt:lcidtoname_downlevel.obj
 0002:00006528       ??_C@_1M@GHKGFEDF@?$AAi?$AAt?$AA?9?$AAi?$AAt?$AA?$AA@ 000000018003d528     libucrt:lcidtoname_downlevel.obj
 0002:00006538       ??_C@_1M@NIEJCJJA@?$AAj?$AAa?$AA?9?$AAj?$AAp?$AA?$AA@ 000000018003d538     libucrt:lcidtoname_downlevel.obj
 0002:00006548       ??_C@_1M@JILFNBIM@?$AAk?$AAa?$AA?9?$AAg?$AAe?$AA?$AA@ 000000018003d548     libucrt:lcidtoname_downlevel.obj
 0002:00006558       ??_C@_1M@PACPMGPH@?$AAk?$AAk?$AA?9?$AAk?$AAz?$AA?$AA@ 000000018003d558     libucrt:lcidtoname_downlevel.obj
 0002:00006568       ??_C@_1M@IELFGMHA@?$AAk?$AAn?$AA?9?$AAi?$AAn?$AA?$AA@ 000000018003d568     libucrt:lcidtoname_downlevel.obj
 0002:00006578       ??_C@_1O@IBBJHCH@?$AAk?$AAo?$AAk?$AA?9?$AAi?$AAn?$AA?$AA@ 000000018003d578     libucrt:lcidtoname_downlevel.obj
 0002:00006588       ??_C@_1M@DMHAEOGC@?$AAk?$AAo?$AA?9?$AAk?$AAr?$AA?$AA@ 000000018003d588     libucrt:lcidtoname_downlevel.obj
 0002:00006598       ??_C@_1M@HBAHBIGA@?$AAk?$AAy?$AA?9?$AAk?$AAg?$AA?$AA@ 000000018003d598     libucrt:lcidtoname_downlevel.obj
 0002:000065a8       ??_C@_1M@KPMILCJG@?$AAl?$AAt?$AA?9?$AAl?$AAt?$AA?$AA@ 000000018003d5a8     libucrt:lcidtoname_downlevel.obj
 0002:000065b8       ??_C@_1M@BDEKKCA@?$AAl?$AAv?$AA?9?$AAl?$AAv?$AA?$AA@ 000000018003d5b8     libucrt:lcidtoname_downlevel.obj
 0002:000065c8       ??_C@_1M@ELCKCCJJ@?$AAm?$AAi?$AA?9?$AAn?$AAz?$AA?$AA@ 000000018003d5c8     libucrt:lcidtoname_downlevel.obj
 0002:000065d8       ??_C@_1M@CBOOLAPA@?$AAm?$AAk?$AA?9?$AAm?$AAk?$AA?$AA@ 000000018003d5d8     libucrt:lcidtoname_downlevel.obj
 0002:000065e8       ??_C@_1M@GPHNBJKN@?$AAm?$AAl?$AA?9?$AAi?$AAn?$AA?$AA@ 000000018003d5e8     libucrt:lcidtoname_downlevel.obj
 0002:000065f8       ??_C@_1M@PABJILIG@?$AAm?$AAn?$AA?9?$AAm?$AAn?$AA?$AA@ 000000018003d5f8     libucrt:lcidtoname_downlevel.obj
 0002:00006608       ??_C@_1M@FGBKKIPG@?$AAm?$AAr?$AA?9?$AAi?$AAn?$AA?$AA@ 000000018003d608     libucrt:lcidtoname_downlevel.obj
 0002:00006618       ??_C@_1M@NDBPDDAL@?$AAm?$AAs?$AA?9?$AAb?$AAn?$AA?$AA@ 000000018003d618     libucrt:lcidtoname_downlevel.obj
 0002:00006628       ??_C@_1M@OPIHOOPI@?$AAm?$AAs?$AA?9?$AAm?$AAy?$AA?$AA@ 000000018003d628     libucrt:lcidtoname_downlevel.obj
 0002:00006638       ??_C@_1M@PPDBCNFM@?$AAm?$AAt?$AA?9?$AAm?$AAt?$AA?$AA@ 000000018003d638     libucrt:lcidtoname_downlevel.obj
 0002:00006648       ??_C@_1M@KDJDKMDD@?$AAn?$AAb?$AA?9?$AAn?$AAo?$AA?$AA@ 000000018003d648     libucrt:lcidtoname_downlevel.obj
 0002:00006658       ??_C@_1M@KFCFLMJP@?$AAn?$AAl?$AA?9?$AAb?$AAe?$AA?$AA@ 000000018003d658     libucrt:lcidtoname_downlevel.obj
 0002:00006668       ??_C@_1M@KPOPDDGO@?$AAn?$AAl?$AA?9?$AAn?$AAl?$AA?$AA@ 000000018003d668     libucrt:lcidtoname_downlevel.obj
 0002:00006678       ??_C@_1M@LJKPEMLN@?$AAn?$AAn?$AA?9?$AAn?$AAo?$AA?$AA@ 000000018003d678     libucrt:lcidtoname_downlevel.obj
 0002:00006688       ??_C@_1M@BDGHHBFL@?$AAn?$AAs?$AA?9?$AAz?$AAa?$AA?$AA@ 000000018003d688     libucrt:lcidtoname_downlevel.obj
 0002:00006698       ??_C@_1M@IDEHOAP@?$AAp?$AAa?$AA?9?$AAi?$AAn?$AA?$AA@ 000000018003d698     libucrt:lcidtoname_downlevel.obj
 0002:000066a8       ??_C@_1M@HDBKGOGH@?$AAp?$AAl?$AA?9?$AAp?$AAl?$AA?$AA@ 000000018003d6a8     libucrt:lcidtoname_downlevel.obj
 0002:000066b8       ??_C@_1M@LJLLCMEH@?$AAp?$AAt?$AA?9?$AAb?$AAr?$AA?$AA@ 000000018003d6b8     libucrt:lcidtoname_downlevel.obj
 0002:000066c8       ??_C@_1M@NCMONAAL@?$AAp?$AAt?$AA?9?$AAp?$AAt?$AA?$AA@ 000000018003d6c8     libucrt:lcidtoname_downlevel.obj
 0002:000066d8       ??_C@_1O@EAKMAJDN@?$AAq?$AAu?$AAz?$AA?9?$AAb?$AAo?$AA?$AA@ 000000018003d6d8     libucrt:lcidtoname_downlevel.obj
 0002:000066e8       ??_C@_1O@BHHPIGDN@?$AAq?$AAu?$AAz?$AA?9?$AAe?$AAc?$AA?$AA@ 000000018003d6e8     libucrt:lcidtoname_downlevel.obj
 0002:000066f8       ??_C@_1O@GBAPEKMJ@?$AAq?$AAu?$AAz?$AA?9?$AAp?$AAe?$AA?$AA@ 000000018003d6f8     libucrt:lcidtoname_downlevel.obj
 0002:00006708       ??_C@_1M@CLGLEFBO@?$AAr?$AAo?$AA?9?$AAr?$AAo?$AA?$AA@ 000000018003d708     libucrt:lcidtoname_downlevel.obj
 0002:00006718       ??_C@_1M@CEEDODME@?$AAr?$AAu?$AA?9?$AAr?$AAu?$AA?$AA@ 000000018003d718     libucrt:lcidtoname_downlevel.obj
 0002:00006728       ??_C@_1M@HPKKKMPP@?$AAs?$AAa?$AA?9?$AAi?$AAn?$AA?$AA@ 000000018003d728     libucrt:lcidtoname_downlevel.obj
 0002:00006738       ??_C@_1M@BKMAIGOJ@?$AAs?$AAe?$AA?9?$AAf?$AAi?$AA?$AA@ 000000018003d738     libucrt:lcidtoname_downlevel.obj
 0002:00006748       ??_C@_1M@NDPIFLFI@?$AAs?$AAe?$AA?9?$AAn?$AAo?$AA?$AA@ 000000018003d748     libucrt:lcidtoname_downlevel.obj
 0002:00006758       ??_C@_1M@DANKKHJ@?$AAs?$AAe?$AA?9?$AAs?$AAe?$AA?$AA@ 000000018003d758     libucrt:lcidtoname_downlevel.obj
 0002:00006768       ??_C@_1M@PNBLONPJ@?$AAs?$AAk?$AA?9?$AAs?$AAk?$AA?$AA@ 000000018003d768     libucrt:lcidtoname_downlevel.obj
 0002:00006778       ??_C@_1M@LFMODOAL@?$AAs?$AAl?$AA?9?$AAs?$AAi?$AA?$AA@ 000000018003d778     libucrt:lcidtoname_downlevel.obj
 0002:00006788       ??_C@_1O@DFKOMPG@?$AAs?$AAm?$AAa?$AA?9?$AAn?$AAo?$AA?$AA@ 000000018003d788     libucrt:lcidtoname_downlevel.obj
 0002:00006798       ??_C@_1O@NDKPBNNH@?$AAs?$AAm?$AAa?$AA?9?$AAs?$AAe?$AA?$AA@ 000000018003d798     libucrt:lcidtoname_downlevel.obj
 0002:000067a8       ??_C@_1O@PLLKBHAB@?$AAs?$AAm?$AAj?$AA?9?$AAn?$AAo?$AA?$AA@ 000000018003d7a8     libucrt:lcidtoname_downlevel.obj
 0002:000067b8       ??_C@_1O@CLEPOGCA@?$AAs?$AAm?$AAj?$AA?9?$AAs?$AAe?$AA?$AA@ 000000018003d7b8     libucrt:lcidtoname_downlevel.obj
 0002:000067c8       ??_C@_1O@DLGJGKMK@?$AAs?$AAm?$AAn?$AA?9?$AAf?$AAi?$AA?$AA@ 000000018003d7c8     libucrt:lcidtoname_downlevel.obj
 0002:000067d8       ??_C@_1O@OJDJGAJC@?$AAs?$AAm?$AAs?$AA?9?$AAf?$AAi?$AA?$AA@ 000000018003d7d8     libucrt:lcidtoname_downlevel.obj
 0002:000067e8       ??_C@_1M@BOFOGHPB@?$AAs?$AAq?$AA?9?$AAa?$AAl?$AA?$AA@ 000000018003d7e8     libucrt:lcidtoname_downlevel.obj
 0002:000067f8       ??_C@_1BG@LJBBIPGB@?$AAs?$AAr?$AA?9?$AAb?$AAa?$AA?9?$AAc?$AAy?$AAr?$AAl?$AA?$AA@ 000000018003d7f8     libucrt:lcidtoname_downlevel.obj
 0002:00006810       ??_C@_1BG@JLBENFOE@?$AAs?$AAr?$AA?9?$AAb?$AAa?$AA?9?$AAl?$AAa?$AAt?$AAn?$AA?$AA@ 000000018003d810     libucrt:lcidtoname_downlevel.obj
 0002:00006828       ??_C@_1BG@KODPNHE@?$AAs?$AAr?$AA?9?$AAs?$AAp?$AA?9?$AAc?$AAy?$AAr?$AAl?$AA?$AA@ 000000018003d828     libucrt:lcidtoname_downlevel.obj
 0002:00006840       ??_C@_1BG@CIOGKHPB@?$AAs?$AAr?$AA?9?$AAs?$AAp?$AA?9?$AAl?$AAa?$AAt?$AAn?$AA?$AA@ 000000018003d840     libucrt:lcidtoname_downlevel.obj
 0002:00006858       ??_C@_1M@NGFJLMAC@?$AAs?$AAv?$AA?9?$AAf?$AAi?$AA?$AA@ 000000018003d858     libucrt:lcidtoname_downlevel.obj
 0002:00006868       ??_C@_1M@MPJEJAJC@?$AAs?$AAv?$AA?9?$AAs?$AAe?$AA?$AA@ 000000018003d868     libucrt:lcidtoname_downlevel.obj
 0002:00006878       ??_C@_1M@MPNDHLFK@?$AAs?$AAw?$AA?9?$AAk?$AAe?$AA?$AA@ 000000018003d878     libucrt:lcidtoname_downlevel.obj
 0002:00006888       ??_C@_1O@KOHBJJI@?$AAs?$AAy?$AAr?$AA?9?$AAs?$AAy?$AA?$AA@ 000000018003d888     libucrt:lcidtoname_downlevel.obj
 0002:00006898       ??_C@_1M@LDCEFHA@?$AAt?$AAa?$AA?9?$AAi?$AAn?$AA?$AA@ 000000018003d898     libucrt:lcidtoname_downlevel.obj
 0002:000068a8       ??_C@_1M@CNJOFAK@?$AAt?$AAe?$AA?9?$AAi?$AAn?$AA?$AA@ 000000018003d8a8     libucrt:lcidtoname_downlevel.obj
 0002:000068b8       ??_C@_1M@GNAECACD@?$AAt?$AAh?$AA?9?$AAt?$AAh?$AA?$AA@ 000000018003d8b8     libucrt:lcidtoname_downlevel.obj
 0002:000068c8       ??_C@_1M@CHBIHOJO@?$AAt?$AAn?$AA?9?$AAz?$AAa?$AA?$AA@ 000000018003d8c8     libucrt:lcidtoname_downlevel.obj
 0002:000068d8       ??_C@_1M@GCCMIGPJ@?$AAt?$AAr?$AA?9?$AAt?$AAr?$AA?$AA@ 000000018003d8d8     libucrt:lcidtoname_downlevel.obj
 0002:000068e8       ??_C@_1M@CELMCNBK@?$AAt?$AAt?$AA?9?$AAr?$AAu?$AA?$AA@ 000000018003d8e8     libucrt:lcidtoname_downlevel.obj
 0002:000068f8       ??_C@_1M@KLMCELGA@?$AAu?$AAk?$AA?9?$AAu?$AAa?$AA?$AA@ 000000018003d8f8     libucrt:lcidtoname_downlevel.obj
 0002:00006908       ??_C@_1M@EPAJJAJF@?$AAu?$AAr?$AA?9?$AAp?$AAk?$AA?$AA@ 000000018003d908     libucrt:lcidtoname_downlevel.obj
 0002:00006918       ??_C@_1BG@GEGPMCDJ@?$AAu?$AAz?$AA?9?$AAu?$AAz?$AA?9?$AAc?$AAy?$AAr?$AAl?$AA?$AA@ 000000018003d918     libucrt:lcidtoname_downlevel.obj
 0002:00006930       ??_C@_1BG@EGGKJILM@?$AAu?$AAz?$AA?9?$AAu?$AAz?$AA?9?$AAl?$AAa?$AAt?$AAn?$AA?$AA@ 000000018003d930     libucrt:lcidtoname_downlevel.obj
 0002:00006948       ??_C@_1M@GFOCLFF@?$AAv?$AAi?$AA?9?$AAv?$AAn?$AA?$AA@ 000000018003d948     libucrt:lcidtoname_downlevel.obj
 0002:00006958       ??_C@_1M@CPAMEDFI@?$AAx?$AAh?$AA?9?$AAz?$AAa?$AA?$AA@ 000000018003d958     libucrt:lcidtoname_downlevel.obj
 0002:00006968       ??_C@_1O@EBKIFIGN@?$AAz?$AAh?$AA?9?$AAc?$AAh?$AAs?$AA?$AA@ 000000018003d968     libucrt:lcidtoname_downlevel.obj
 0002:00006978       ??_C@_1O@NMHPGANE@?$AAz?$AAh?$AA?9?$AAc?$AAh?$AAt?$AA?$AA@ 000000018003d978     libucrt:lcidtoname_downlevel.obj
 0002:00006988       ??_C@_1M@LPINJOMC@?$AAz?$AAh?$AA?9?$AAc?$AAn?$AA?$AA@ 000000018003d988     libucrt:lcidtoname_downlevel.obj
 0002:00006998       ??_C@_1M@OCJEJODD@?$AAz?$AAh?$AA?9?$AAh?$AAk?$AA?$AA@ 000000018003d998     libucrt:lcidtoname_downlevel.obj
 0002:000069a8       ??_C@_1M@DNDLJINH@?$AAz?$AAh?$AA?9?$AAm?$AAo?$AA?$AA@ 000000018003d9a8     libucrt:lcidtoname_downlevel.obj
 0002:000069b8       ??_C@_1M@MBFDNDND@?$AAz?$AAh?$AA?9?$AAs?$AAg?$AA?$AA@ 000000018003d9b8     libucrt:lcidtoname_downlevel.obj
 0002:000069c8       ??_C@_1M@IMEPLEPE@?$AAz?$AAh?$AA?9?$AAt?$AAw?$AA?$AA@ 000000018003d9c8     libucrt:lcidtoname_downlevel.obj
 0002:000069d8       ??_C@_1M@BBGHNHJP@?$AAz?$AAu?$AA?9?$AAz?$AAa?$AA?$AA@ 000000018003d9d8     libucrt:lcidtoname_downlevel.obj
 0002:00006c40       __log10_256_lead           000000018003dc40     libucrt:log10_256_lead_tail_table.obj
 0002:00007450       __log10_256_tail           000000018003e450     libucrt:log10_256_lead_tail_table.obj
 0002:00007c60       __log_F_inv_qword          000000018003ec60     libucrt:log_f_inv_qword_table.obj
 0002:00008470       ??_C@_05HGHHAHAP@log10?$AA@ 000000018003f470     libucrt:log_special.obj
 0002:00008478       ??_C@_1BA@BALFACEM@?$AAC?$AAO?$AAN?$AAO?$AAU?$AAT?$AA$?$AA?$AA@ 000000018003f478     libucrt:initcon.obj
 0002:000084a0       ??_C@_0BC@BDKFLDHL@unknown?5exception?$AA@ 000000018003f4a0     VError.obj
 0002:000084b4       ??_C@_02LMMGGCAJ@?3?5?$AA@ 000000018003f4b4     VError.obj
 0002:000084b8       ??_C@_08LLGCOLLL@iostream?$AA@ 000000018003f4b8     VError.obj
 0002:000084c8       ??_C@_0BG@PADBLCHM@iostream?5stream?5error?$AA@ 000000018003f4c8     VError.obj
 0002:000084e0       ??_C@_0BF@PHHKMMFD@ios_base?3?3badbit?5set?$AA@ 000000018003f4e0     VError.obj
 0002:000084f8       ??_C@_0BG@FMKFHCIL@ios_base?3?3failbit?5set?$AA@ 000000018003f4f8     VError.obj
 0002:00008510       ??_C@_0BF@OOHOMBOF@ios_base?3?3eofbit?5set?$AA@ 000000018003f510     VError.obj
 0002:00008528       ??_C@_07CIFAGBMG@unknown?$AA@ 000000018003f528     VError.obj
 0002:00008530       ??_C@_0CO@MDKMFKKK@?$CBnew_vobject?5?$HM?$HM?5VIPS_IS_OBJECT?$CI?5@ 000000018003f530     VError.obj
 0002:00008560       ??_C@_0BH@GOCJPHDF@vips?3?3VObject?3?3VObject?$AA@ 000000018003f560     VError.obj
 0002:00008580       ??_C@_0IB@KNDLBKGB@c?3?2users?2veronica?2documents?2keep@ 000000018003f580     VError.obj
 0002:00008608       ??_C@_0BM@LENMHEAB@VIPS_IS_OBJECT?$CI?5a?4vobject?5?$CJ?$AA@ 000000018003f608     VError.obj
 0002:00008628       ??_C@_0CG@IJKKON@?$CBvobject?5?$HM?$HM?5VIPS_IS_OBJECT?$CI?5vobj@ 000000018003f628     VError.obj
 0002:00008650       ??_C@_0BK@FEDAPFJC@vips?3?3VObject?3?3operator?5?$DN?$AA@ 000000018003f650     VError.obj
 0002:00008670       ??_C@_0CJ@JCMMCJOH@a?4vobject?5?$CG?$CG?5VIPS_IS_OBJECT?$CI?5a?4v@ 000000018003f670     VError.obj
 0002:000086a0       ??_C@_0BI@LLDIPMFE@vips?3?3VObject?3?3?$HOVObject?$AA@ 000000018003f6a0     VError.obj
 0002:000086b8       ??_C@_0BK@CFEFMCJG@vips?3?3VObject?3?3get_object?$AA@ 000000018003f6b8     VError.obj
 0002:000086d8       ??_C@_0BD@OLBABOEK@vector?$DMT?$DO?5too?5long?$AA@ 000000018003f6d8     VError.obj
 0002:000086f0       ??_C@_0BA@JFNIOLAK@string?5too?5long?$AA@ 000000018003f6f0     VError.obj
 0002:00008700       ??_C@_0BI@CFPLBAOH@invalid?5string?5position?$AA@ 000000018003f700     VError.obj
 0002:00008718       ??_C@_0BB@MOGOBHAF@list?$DMT?$DO?5too?5long?$AA@ 000000018003f718     VError.obj
 0002:00008730       ??_7error_category@std@@6B@ 000000018003f730     VError.obj
 0002:00008760       ??_7_Iostream_error_category@std@@6B@ 000000018003f760     VError.obj
 0002:00008790       ??_7VError@vips@@6B@       000000018003f790     VError.obj
 0002:000087a8       ??_7exception@stdext@@6B@  000000018003f7a8     VError.obj
 0002:000087c0       ??_7VOption@vips@@6B@      000000018003f7c0     VError.obj
 0002:000087c8       ??_7_System_error@std@@6B@ 000000018003f7c8     VError.obj
 0002:000087c8       ??_7failure@ios_base@std@@6B@ 000000018003f7c8     VError.obj
 0002:000087c8       ??_7system_error@std@@6B@  000000018003f7c8     VError.obj
 0002:000087e0       ??_C@_06FHFOAHML@system?$AA@ 000000018003f7e0     VImage.obj
 0002:000087e8       ??_C@_02DKCKIIND@?$CFs?$AA@ 000000018003f7e8     VImage.obj
 0002:000087f0       ??_C@_08BABJIOEM@filename?$AA@ 000000018003f7f0     VImage.obj
 0002:000087fc       ??_C@_03KEJHNBPP@out?$AA@  000000018003f7fc     VImage.obj
 0002:00008800       ??_C@_06HOHPNJLC@buffer?$AA@ 000000018003f800     VImage.obj
 0002:00008808       ??_C@_05DPGGGHAJ@bands?$AA@ 000000018003f808     VImage.obj
 0002:00008810       ??_C@_06BPBOMFNI@extend?$AA@ 000000018003f810     VImage.obj
 0002:00008818       ??_C@_0P@KOMFEOGE@interpretation?$AA@ 000000018003f818     VImage.obj
 0002:00008828       ??_C@_04HLEHOIAF@xres?$AA@ 000000018003f828     VImage.obj
 0002:00008830       ??_C@_04EGCHMBLF@yres?$AA@ 000000018003f830     VImage.obj
 0002:00008838       ??_C@_07CMIMECFO@xoffset?$AA@ 000000018003f838     VImage.obj
 0002:00008840       ??_C@_07OACGECMA@yoffset?$AA@ 000000018003f840     VImage.obj
 0002:00008848       ??_C@_02LMMGJAGL@in?$AA@   000000018003f848     VImage.obj
 0002:00008850       ??_C@_0L@EDHHNDAB@cmd?9format?$AA@ 000000018003f850     VImage.obj
 0002:0000885c       ??_C@_04GOOOJOPP@left?$AA@ 000000018003f85c     VImage.obj
 0002:00008864       ??_C@_05DHJDAOHK@right?$AA@ 000000018003f864     VImage.obj
 0002:0000886c       ??_C@_03BDGOHNNK@add?$AA@  000000018003f86c     VImage.obj
 0002:00008870       ??_C@_08LJLIHDOM@subtract?$AA@ 000000018003f870     VImage.obj
 0002:00008880       ??_C@_08MMOCDOEL@multiply?$AA@ 000000018003f880     VImage.obj
 0002:0000888c       ??_C@_06FFHJEHBN@divide?$AA@ 000000018003f88c     VImage.obj
 0002:00008898       ??_C@_0L@NEPEPHDK@relational?$AA@ 000000018003f898     VImage.obj
 0002:000088a8       ??_C@_09HALKBBKJ@remainder?$AA@ 000000018003f8a8     VImage.obj
 0002:000088b8       ??_C@_07GOBOHMJA@boolean?$AA@ 000000018003f8b8     VImage.obj
 0002:000088c0       ??_C@_05BBOMOFAH@math2?$AA@ 000000018003f8c0     VImage.obj
 0002:000088c8       ??_C@_05GMOLPBHC@cmplx?$AA@ 000000018003f8c8     VImage.obj
 0002:000088d0       ??_C@_08HDDIDECH@complex2?$AA@ 000000018003f8d0     VImage.obj
 0002:000088e0       ??_C@_0M@IHNKDMPF@complexform?$AA@ 000000018003f8e0     VImage.obj
 0002:000088ec       ??_C@_03CFFIJAMA@sum?$AA@  000000018003f8ec     VImage.obj
 0002:000088f0       ??_C@_06CIAPFFAP@invert?$AA@ 000000018003f8f0     VImage.obj
 0002:000088f8       ??_C@_01MCMALHOG@a?$AA@    000000018003f8f8     VImage.obj
 0002:000088fc       ??_C@_01OJONOECF@b?$AA@    000000018003f8fc     VImage.obj
 0002:00008900       ??_C@_06HPJICMPM@linear?$AA@ 000000018003f900     VImage.obj
 0002:00008908       ??_C@_04CFDJAKFL@math?$AA@ 000000018003f908     VImage.obj
 0002:00008910       ??_C@_03BCGAIFPO@abs?$AA@  000000018003f910     VImage.obj
 0002:00008914       ??_C@_04HHGHLBPI@sign?$AA@ 000000018003f914     VImage.obj
 0002:0000891c       ??_C@_05MIMAKCN@round?$AA@ 000000018003f91c     VImage.obj
 0002:00008924       ??_C@_01PAPGNFGE@c?$AA@    000000018003f924     VImage.obj
 0002:00008928       ??_C@_0BB@FKPDFKGH@relational_const?$AA@ 000000018003f928     VImage.obj
 0002:00008940       ??_C@_0BA@MDCPNGEH@remainder_const?$AA@ 000000018003f940     VImage.obj
 0002:00008950       ??_C@_0O@FFEJDDPG@boolean_const?$AA@ 000000018003f950     VImage.obj
 0002:00008960       ??_C@_0M@PKPOKBCN@math2_const?$AA@ 000000018003f960     VImage.obj
 0002:00008970       ??_C@_07CMPFPFAH@complex?$AA@ 000000018003f970     VImage.obj
 0002:00008978       ??_C@_03HNAFFKGA@get?$AA@  000000018003f978     VImage.obj
 0002:00008980       ??_C@_0L@CONHPEB@complexget?$AA@ 000000018003f980     VImage.obj
 0002:0000898c       ??_C@_03CHOBFJAH@avg?$AA@  000000018003f98c     VImage.obj
 0002:00008990       ??_C@_03KLIPLJLL@min?$AA@  000000018003f990     VImage.obj
 0002:00008994       ??_C@_03LJAEFNNE@max?$AA@  000000018003f994     VImage.obj
 0002:00008998       ??_C@_07JGEDNJHN@deviate?$AA@ 000000018003f998     VImage.obj
 0002:000089a0       ??_C@_05BLKJBNOD@stats?$AA@ 000000018003f9a0     VImage.obj
 0002:000089a8       ??_C@_09PKCBEOHG@hist_find?$AA@ 000000018003f9a8     VImage.obj
 0002:000089b8       ??_C@_0P@CCEOOJJO@hist_find_ndim?$AA@ 000000018003f9b8     VImage.obj
 0002:000089c8       ??_C@_05FKHKFDID@index?$AA@ 000000018003f9c8     VImage.obj
 0002:000089d0       ??_C@_0BC@CKAIJALJ@hist_find_indexed?$AA@ 000000018003f9d0     VImage.obj
 0002:000089e8       ??_C@_0L@DLDHKKAG@hough_line?$AA@ 000000018003f9e8     VImage.obj
 0002:000089f8       ??_C@_0N@EPCNCOFH@hough_circle?$AA@ 000000018003f9f8     VImage.obj
 0002:00008a08       ??_C@_07HIFEPIJN@columns?$AA@ 000000018003fa08     VImage.obj
 0002:00008a10       ??_C@_04IMCGAIPI@rows?$AA@ 000000018003fa10     VImage.obj
 0002:00008a18       ??_C@_07GKGAGMNN@project?$AA@ 000000018003fa18     VImage.obj
 0002:00008a20       ??_C@_07LNMDFKEJ@profile?$AA@ 000000018003fa20     VImage.obj
 0002:00008a28       ??_C@_01BDACAMKP@h?$AA@    000000018003fa28     VImage.obj
 0002:00008a2c       ??_C@_01MHEDDDHA@v?$AA@    000000018003fa2c     VImage.obj
 0002:00008a30       ??_C@_07GGHJMDCM@measure?$AA@ 000000018003fa30     VImage.obj
 0002:00008a38       ??_C@_09DGLJONDH@out?9array?$AA@ 000000018003fa38     VImage.obj
 0002:00008a44       ??_C@_01FJMABOPO@x?$AA@    000000018003fa44     VImage.obj
 0002:00008a48       ??_C@_01EANLCPLP@y?$AA@    000000018003fa48     VImage.obj
 0002:00008a50       ??_C@_08POKMFCNH@getpoint?$AA@ 000000018003fa50     VImage.obj
 0002:00008a5c       ??_C@_04COAGEIMF@copy?$AA@ 000000018003fa5c     VImage.obj
 0002:00008a68       ??_C@_09BADCCNLM@tilecache?$AA@ 000000018003fa68     VImage.obj
 0002:00008a78       ??_C@_09GGGOOLNN@linecache?$AA@ 000000018003fa78     VImage.obj
 0002:00008a88       ??_C@_0L@OGEPILOF@sequential?$AA@ 000000018003fa88     VImage.obj
 0002:00008a94       ??_C@_05BDNCCAMC@cache?$AA@ 000000018003fa94     VImage.obj
 0002:00008a9c       ??_C@_05IGKADHGO@width?$AA@ 000000018003fa9c     VImage.obj
 0002:00008aa4       ??_C@_06LNLHEAAG@height?$AA@ 000000018003faa4     VImage.obj
 0002:00008aac       ??_C@_05KJAEOLKJ@embed?$AA@ 000000018003faac     VImage.obj
 0002:00008ab8       ??_C@_09HPKLLIJF@direction?$AA@ 000000018003fab8     VImage.obj
 0002:00008ac4       ??_C@_04DGGGELON@flip?$AA@ 000000018003fac4     VImage.obj
 0002:00008acc       ??_C@_04GHJNJNPO@main?$AA@ 000000018003facc     VImage.obj
 0002:00008ad4       ??_C@_03KCMAIMAP@sub?$AA@  000000018003fad4     VImage.obj
 0002:00008ad8       ??_C@_06OAOPNKHP@insert?$AA@ 000000018003fad8     VImage.obj
 0002:00008ae0       ??_C@_03BMIBHJPC@in1?$AA@  000000018003fae0     VImage.obj
 0002:00008ae4       ??_C@_03DHKMCKDB@in2?$AA@  000000018003fae4     VImage.obj
 0002:00008ae8       ??_C@_04DFGCDGNN@join?$AA@ 000000018003fae8     VImage.obj
 0002:00008af0       ??_C@_09BPCDKABO@arrayjoin?$AA@ 000000018003faf0     VImage.obj
 0002:00008afc       ??_C@_05DFJCHPDH@input?$AA@ 000000018003fafc     VImage.obj
 0002:00008b04       ??_C@_03FGFCOCMD@top?$AA@  000000018003fb04     VImage.obj
 0002:00008b08       ??_C@_0N@NKELEKIM@extract_area?$AA@ 000000018003fb08     VImage.obj
 0002:00008b18       ??_C@_04BKGNPECA@band?$AA@ 000000018003fb18     VImage.obj
 0002:00008b20       ??_C@_0N@KOGFNDIJ@extract_band?$AA@ 000000018003fb20     VImage.obj
 0002:00008b30       ??_C@_08DDHBKGJN@bandjoin?$AA@ 000000018003fb30     VImage.obj
 0002:00008b40       ??_C@_0P@CNLDBNGG@bandjoin_const?$AA@ 000000018003fb40     VImage.obj
 0002:00008b50       ??_C@_08PLAGOPCN@bandrank?$AA@ 000000018003fb50     VImage.obj
 0002:00008b60       ??_C@_08OAPPMLFB@bandmean?$AA@ 000000018003fb60     VImage.obj
 0002:00008b70       ??_C@_08DFLKPDGM@bandbool?$AA@ 000000018003fb70     VImage.obj
 0002:00008b7c       ??_C@_06HDMALCOC@across?$AA@ 000000018003fb7c     VImage.obj
 0002:00008b84       ??_C@_04JMOKAGMG@down?$AA@ 000000018003fb84     VImage.obj
 0002:00008b90       ??_C@_09CBPKCNMB@replicate?$AA@ 000000018003fb90     VImage.obj
 0002:00008b9c       ??_C@_06DLEPGFEF@format?$AA@ 000000018003fb9c     VImage.obj
 0002:00008ba4       ??_C@_04HJDBPPOC@cast?$AA@ 000000018003fba4     VImage.obj
 0002:00008bac       ??_C@_05FECBCJJD@angle?$AA@ 000000018003fbac     VImage.obj
 0002:00008bb4       ??_C@_03BHFFHIBL@rot?$AA@  000000018003fbb4     VImage.obj
 0002:00008bb8       ??_C@_05HGLLKKDL@rot45?$AA@ 000000018003fbb8     VImage.obj
 0002:00008bc0       ??_C@_07HKPDIIIM@autorot?$AA@ 000000018003fbc0     VImage.obj
 0002:00008bc8       ??_C@_04MHNCKKKD@cond?$AA@ 000000018003fbc8     VImage.obj
 0002:00008bd0       ??_C@_0L@EIDGEPEL@ifthenelse?$AA@ 000000018003fbd0     VImage.obj
 0002:00008bdc       ??_C@_01GOHFPIOK@m?$AA@    000000018003fbdc     VImage.obj
 0002:00008be0       ??_C@_06OLEOMEPE@recomb?$AA@ 000000018003fbe0     VImage.obj
 0002:00008be8       ??_C@_08KKFGBPN@bandfold?$AA@ 000000018003fbe8     VImage.obj
 0002:00008bf8       ??_C@_0L@NLCAJCCK@bandunfold?$AA@ 000000018003fbf8     VImage.obj
 0002:00008c08       ??_C@_07FOIKENOC@flatten?$AA@ 000000018003fc08     VImage.obj
 0002:00008c10       ??_C@_0M@OEPEEJHI@premultiply?$AA@ 000000018003fc10     VImage.obj
 0002:00008c20       ??_C@_0O@NEEDPNBG@unpremultiply?$AA@ 000000018003fc20     VImage.obj
 0002:00008c30       ??_C@_0M@OIIHBMLD@tile?9height?$AA@ 000000018003fc30     VImage.obj
 0002:00008c3c       ??_C@_04JFGOJFKE@grid?$AA@ 000000018003fc3c     VImage.obj
 0002:00008c44       ??_C@_05MHMEBBGO@scale?$AA@ 000000018003fc44     VImage.obj
 0002:00008c4c       ??_C@_04NFDDIEML@wrap?$AA@ 000000018003fc4c     VImage.obj
 0002:00008c54       ??_C@_04OJPHJCEA@xfac?$AA@ 000000018003fc54     VImage.obj
 0002:00008c5c       ??_C@_04NEJHLLPA@yfac?$AA@ 000000018003fc5c     VImage.obj
 0002:00008c64       ??_C@_04HKCCIOCO@zoom?$AA@ 000000018003fc64     VImage.obj
 0002:00008c70       ??_C@_09GEADCAMB@subsample?$AA@ 000000018003fc70     VImage.obj
 0002:00008c7c       ??_C@_03BGILNABB@msb?$AA@  000000018003fc7c     VImage.obj
 0002:00008c80       ??_C@_08LGNCHIMC@byteswap?$AA@ 000000018003fc80     VImage.obj
 0002:00008c90       ??_C@_0M@HLKJCLJA@falsecolour?$AA@ 000000018003fc90     VImage.obj
 0002:00008c9c       ??_C@_05KDLBCAI@gamma?$AA@ 000000018003fc9c     VImage.obj
 0002:00008ca4       ??_C@_05BIMBDNDC@black?$AA@ 000000018003fca4     VImage.obj
 0002:00008cb0       ??_C@_0L@LHFGAHGN@gaussnoise?$AA@ 000000018003fcb0     VImage.obj
 0002:00008cbc       ??_C@_04CIMGMMMG@text?$AA@ 000000018003fcbc     VImage.obj
 0002:00008cc4       ??_C@_03POMAGKDD@xyz?$AA@  000000018003fcc4     VImage.obj
 0002:00008cc8       ??_C@_05MNLBPJCA@sigma?$AA@ 000000018003fcc8     VImage.obj
 0002:00008cd0       ??_C@_08OLGCCKLK@min?9ampl?$AA@ 000000018003fcd0     VImage.obj
 0002:00008ce0       ??_C@_08HLCLIPNO@gaussmat?$AA@ 000000018003fce0     VImage.obj
 0002:00008cec       ??_C@_06DHDPCCPJ@logmat?$AA@ 000000018003fcec     VImage.obj
 0002:00008cf4       ??_C@_03JBOJOLOP@eye?$AA@  000000018003fcf4     VImage.obj
 0002:00008cf8       ??_C@_04GDBIAANM@grey?$AA@ 000000018003fcf8     VImage.obj
 0002:00008d00       ??_C@_04LDDJGOBB@zone?$AA@ 000000018003fd00     VImage.obj
 0002:00008d08       ??_C@_05MGFOJHMB@sines?$AA@ 000000018003fd08     VImage.obj
 0002:00008d10       ??_C@_0BB@FMKOBFEN@frequency?9cutoff?$AA@ 000000018003fd10     VImage.obj
 0002:00008d28       ??_C@_0L@GPMDCNFD@mask_ideal?$AA@ 000000018003fd28     VImage.obj
 0002:00008d38       ??_C@_09FNOEFMAD@ringwidth?$AA@ 000000018003fd38     VImage.obj
 0002:00008d48       ??_C@_0BA@MHGDHMH@mask_ideal_ring?$AA@ 000000018003fd48     VImage.obj
 0002:00008d58       ??_C@_0BD@PPHJKPEA@frequency?9cutoff?9x?$AA@ 000000018003fd58     VImage.obj
 0002:00008d70       ??_C@_0BD@OGGCJOAB@frequency?9cutoff?9y?$AA@ 000000018003fd70     VImage.obj
 0002:00008d84       ??_C@_06KGHINEPG@radius?$AA@ 000000018003fd84     VImage.obj
 0002:00008d90       ??_C@_0BA@ICAPNLGJ@mask_ideal_band?$AA@ 000000018003fd90     VImage.obj
 0002:00008da0       ??_C@_05NDNMCCJH@order?$AA@ 000000018003fda0     VImage.obj
 0002:00008da8       ??_C@_0BB@COKDAKHA@amplitude?9cutoff?$AA@ 000000018003fda8     VImage.obj
 0002:00008dc0       ??_C@_0BB@PCPOEAAM@mask_butterworth?$AA@ 000000018003fdc0     VImage.obj
 0002:00008dd8       ??_C@_0BG@JHCFMCJH@mask_butterworth_ring?$AA@ 000000018003fdd8     VImage.obj
 0002:00008df0       ??_C@_0BG@BJFMCODJ@mask_butterworth_band?$AA@ 000000018003fdf0     VImage.obj
 0002:00008e08       ??_C@_0O@PDKKOMCP@mask_gaussian?$AA@ 000000018003fe08     VImage.obj
 0002:00008e18       ??_C@_0BD@GEFHIGND@mask_gaussian_ring?$AA@ 000000018003fe18     VImage.obj
 0002:00008e30       ??_C@_0BD@OKCOGKHN@mask_gaussian_band?$AA@ 000000018003fe30     VImage.obj
 0002:00008e48       ??_C@_0BC@INLMDGNG@fractal?9dimension?$AA@ 000000018003fe48     VImage.obj
 0002:00008e60       ??_C@_0N@PNMGGNMD@mask_fractal?$AA@ 000000018003fe60     VImage.obj
 0002:00008e70       ??_C@_08OKOAJEOP@buildlut?$AA@ 000000018003fe70     VImage.obj
 0002:00008e80       ??_C@_09DELGKNGH@invertlut?$AA@ 000000018003fe80     VImage.obj
 0002:00008e90       ??_C@_07MEIMELBF@tonelut?$AA@ 000000018003fe90     VImage.obj
 0002:00008e98       ??_C@_08LBJOIDDC@identity?$AA@ 000000018003fe98     VImage.obj
 0002:00008ea8       ??_C@_09KODEALMJ@fractsurf?$AA@ 000000018003fea8     VImage.obj
 0002:00008eb4       ??_C@_06PAPNEDML@worley?$AA@ 000000018003feb4     VImage.obj
 0002:00008ebc       ??_C@_06JIFICDNB@perlin?$AA@ 000000018003febc     VImage.obj
 0002:00008ec8       ??_C@_07LDEBNBAJ@csvload?$AA@ 000000018003fec8     VImage.obj
 0002:00008ed0       ??_C@_0L@PMHLAKGB@matrixload?$AA@ 000000018003fed0     VImage.obj
 0002:00008ee0       ??_C@_07DIENLOPO@rawload?$AA@ 000000018003fee0     VImage.obj
 0002:00008ee8       ??_C@_08EDDGDHHH@vipsload?$AA@ 000000018003fee8     VImage.obj
 0002:00008ef8       ??_C@_0M@GFDAFAKN@analyzeload?$AA@ 000000018003fef8     VImage.obj
 0002:00008f08       ??_C@_07BJIMAPAE@ppmload?$AA@ 000000018003ff08     VImage.obj
 0002:00008f10       ??_C@_07LNAPMOML@radload?$AA@ 000000018003ff10     VImage.obj
 0002:00008f18       ??_C@_07OANKEHBK@pdfload?$AA@ 000000018003ff18     VImage.obj
 0002:00008f20       ??_C@_0P@FECDMHMN@pdfload_buffer?$AA@ 000000018003ff20     VImage.obj
 0002:00008f30       ??_C@_07FFEIBOLL@svgload?$AA@ 000000018003ff30     VImage.obj
 0002:00008f38       ??_C@_0P@BPBEIMPA@svgload_buffer?$AA@ 000000018003ff38     VImage.obj
 0002:00008f48       ??_C@_07PHHDBOOI@gifload?$AA@ 000000018003ff48     VImage.obj
 0002:00008f50       ??_C@_0P@DMLKCHMD@gifload_buffer?$AA@ 000000018003ff50     VImage.obj
 0002:00008f60       ??_C@_07IPPGMLPB@pngload?$AA@ 000000018003ff60     VImage.obj
 0002:00008f68       ??_C@_0P@FLICMEND@pngload_buffer?$AA@ 000000018003ff68     VImage.obj
 0002:00008f78       ??_C@_07BLECOPNH@matload?$AA@ 000000018003ff78     VImage.obj
 0002:00008f80       ??_C@_08MHJHFPPG@jpegload?$AA@ 000000018003ff80     VImage.obj
 0002:00008f90       ??_C@_0BA@OCCAIACH@jpegload_buffer?$AA@ 000000018003ff90     VImage.obj
 0002:00008fa0       ??_C@_08HFDHMJDC@webpload?$AA@ 000000018003ffa0     VImage.obj
 0002:00008fb0       ??_C@_0BA@NGBBNHGG@webpload_buffer?$AA@ 000000018003ffb0     VImage.obj
 0002:00008fc0       ??_C@_08DKNFCFCN@tiffload?$AA@ 000000018003ffc0     VImage.obj
 0002:00008fd0       ??_C@_0BA@LHGCDMGM@tiffload_buffer?$AA@ 000000018003ffd0     VImage.obj
 0002:00008fe0       ??_C@_0O@MEOEBEEM@openslideload?$AA@ 000000018003ffe0     VImage.obj
 0002:00008ff0       ??_C@_0L@GJNFHGND@magickload?$AA@ 000000018003fff0     VImage.obj
 0002:00009000       ??_C@_0BC@NAIBKHPN@magickload_buffer?$AA@ 0000000180040000     VImage.obj
 0002:00009018       ??_C@_08BLLJFBBF@fitsload?$AA@ 0000000180040018     VImage.obj
 0002:00009028       ??_C@_0M@PFMEODOM@openexrload?$AA@ 0000000180040028     VImage.obj
 0002:00009038       ??_C@_07LBFMCCNN@csvsave?$AA@ 0000000180040038     VImage.obj
 0002:00009040       ??_C@_0L@POGGPJLF@matrixsave?$AA@ 0000000180040040     VImage.obj
 0002:00009050       ??_C@_0M@FFFNKKNM@matrixprint?$AA@ 0000000180040050     VImage.obj
 0002:00009060       ??_C@_07DKFAENCK@rawsave?$AA@ 0000000180040060     VImage.obj
 0002:00009068       ??_C@_02ENHFDPNM@fd?$AA@   0000000180040068     VImage.obj
 0002:00009070       ??_C@_0L@MFMDKFHF@rawsave_fd?$AA@ 0000000180040070     VImage.obj
 0002:00009080       ??_C@_08EBCLMEKD@vipssave?$AA@ 0000000180040080     VImage.obj
 0002:00009090       ??_C@_07BLJBPMNA@ppmsave?$AA@ 0000000180040090     VImage.obj
 0002:00009098       ??_C@_07LPBCDNBP@radsave?$AA@ 0000000180040098     VImage.obj
 0002:000090a0       ??_C@_0P@OGKJHKCD@radsave_buffer?$AA@ 00000001800400a0     VImage.obj
 0002:000090b0       ??_C@_06MCMNOHKJ@dzsave?$AA@ 00000001800400b0     VImage.obj
 0002:000090b8       ??_C@_07INOLDICF@pngsave?$AA@ 00000001800400b8     VImage.obj
 0002:000090c0       ??_C@_0P@KFHBBDIK@pngsave_buffer?$AA@ 00000001800400c0     VImage.obj
 0002:000090d0       ??_C@_08MFIKKMCC@jpegsave?$AA@ 00000001800400d0     VImage.obj
 0002:000090e0       ??_C@_0BA@BMNDFHHO@jpegsave_buffer?$AA@ 00000001800400e0     VImage.obj
 0002:000090f0       ??_C@_0O@GEECBBEC@jpegsave_mime?$AA@ 00000001800400f0     VImage.obj
 0002:00009100       ??_C@_08HHCKDKOG@webpsave?$AA@ 0000000180040100     VImage.obj
 0002:00009110       ??_C@_0BA@CIOCAADP@webpsave_buffer?$AA@ 0000000180040110     VImage.obj
 0002:00009120       ??_C@_08DIMINGPJ@tiffsave?$AA@ 0000000180040120     VImage.obj
 0002:00009130       ??_C@_08BJKEKCMB@fitssave?$AA@ 0000000180040130     VImage.obj
 0002:0000913c       ??_C@_05KCGPFJPM@mapim?$AA@ 000000018004013c     VImage.obj
 0002:00009148       ??_C@_07KBIIIDHJ@hshrink?$AA@ 0000000180040148     VImage.obj
 0002:00009150       ??_C@_07MILJKAGA@vshrink?$AA@ 0000000180040150     VImage.obj
 0002:00009158       ??_C@_06FKMIDIGA@shrink?$AA@ 0000000180040158     VImage.obj
 0002:00009160       ??_C@_07OAMMEIMP@shrinkh?$AA@ 0000000180040160     VImage.obj
 0002:00009168       ??_C@_07DEINHHBA@shrinkv?$AA@ 0000000180040168     VImage.obj
 0002:00009170       ??_C@_07MFNKEHED@reduceh?$AA@ 0000000180040170     VImage.obj
 0002:00009178       ??_C@_07BBJLHIJM@reducev?$AA@ 0000000180040178     VImage.obj
 0002:00009180       ??_C@_06CDBFBENC@reduce?$AA@ 0000000180040180     VImage.obj
 0002:00009188       ??_C@_05KIDKLPLG@coeff?$AA@ 0000000180040188     VImage.obj
 0002:00009190       ??_C@_09NDEBDKFB@quadratic?$AA@ 0000000180040190     VImage.obj
 0002:0000919c       ??_C@_06CGNOPMBC@matrix?$AA@ 000000018004019c     VImage.obj
 0002:000091a4       ??_C@_06JLGAMIDL@affine?$AA@ 00000001800401a4     VImage.obj
 0002:000091b0       ??_C@_0L@FLEFHLED@similarity?$AA@ 00000001800401b0     VImage.obj
 0002:000091bc       ??_C@_06PIONCPJI@resize?$AA@ 00000001800401bc     VImage.obj
 0002:000091c4       ??_C@_05OLNILLAB@space?$AA@ 00000001800401c4     VImage.obj
 0002:000091d0       ??_C@_0M@GKGJPELG@colourspace?$AA@ 00000001800401d0     VImage.obj
 0002:000091e0       ??_C@_07HKHDHCHO@Lab2XYZ?$AA@ 00000001800401e0     VImage.obj
 0002:000091e8       ??_C@_07BDLLOLEB@XYZ2Lab?$AA@ 00000001800401e8     VImage.obj
 0002:000091f0       ??_C@_07FJMJMAGB@Lab2LCh?$AA@ 00000001800401f0     VImage.obj
 0002:000091f8       ??_C@_07GBFGLBLG@LCh2Lab?$AA@ 00000001800401f8     VImage.obj
 0002:00009200       ??_C@_07IEPNALIH@LCh2CMC?$AA@ 0000000180040200     VImage.obj
 0002:00009208       ??_C@_07EEAEFHLG@CMC2LCh?$AA@ 0000000180040208     VImage.obj
 0002:00009210       ??_C@_07MOLNBPIJ@XYZ2Yxy?$AA@ 0000000180040210     VImage.obj
 0002:00009218       ??_C@_07NFHPGGHE@Yxy2XYZ?$AA@ 0000000180040218     VImage.obj
 0002:00009220       ??_C@_09EGLLGMBC@scRGB2XYZ?$AA@ 0000000180040220     VImage.obj
 0002:00009230       ??_C@_09BGOHPOHE@XYZ2scRGB?$AA@ 0000000180040230     VImage.obj
 0002:00009240       ??_C@_08PCBHJJKI@LabQ2Lab?$AA@ 0000000180040240     VImage.obj
 0002:00009250       ??_C@_08JOOABGHI@Lab2LabQ?$AA@ 0000000180040250     VImage.obj
 0002:00009260       ??_C@_09EJGJDCNE@LabQ2LabS?$AA@ 0000000180040260     VImage.obj
 0002:00009270       ??_C@_09OMMAEBHP@LabS2LabQ?$AA@ 0000000180040270     VImage.obj
 0002:00009280       ??_C@_08LPNPDIKD@LabS2Lab?$AA@ 0000000180040280     VImage.obj
 0002:00009290       ??_C@_08KMNGHEPK@Lab2LabS?$AA@ 0000000180040290     VImage.obj
 0002:000092a0       ??_C@_09CNOAMBEK@rad2float?$AA@ 00000001800402a0     VImage.obj
 0002:000092b0       ??_C@_09JMDBKHNK@float2rad?$AA@ 00000001800402b0     VImage.obj
 0002:000092c0       ??_C@_09OFNJONNH@LabQ2sRGB?$AA@ 00000001800402c0     VImage.obj
 0002:000092d0       ??_C@_08DLNPBGF@sRGB2HSV?$AA@ 00000001800402d0     VImage.obj
 0002:000092e0       ??_C@_08MGEOCPLE@HSV2sRGB?$AA@ 00000001800402e0     VImage.obj
 0002:000092f0       ??_C@_0L@EACMBHDC@icc_import?$AA@ 00000001800402f0     VImage.obj
 0002:00009300       ??_C@_0L@NEJHOOGO@icc_export?$AA@ 0000000180040300     VImage.obj
 0002:00009310       ??_C@_0P@CKCGPENA@output?9profile?$AA@ 0000000180040310     VImage.obj
 0002:00009320       ??_C@_0O@JCOEDNPE@icc_transform?$AA@ 0000000180040320     VImage.obj
 0002:00009330       ??_C@_04FBJNBDAA@dE76?$AA@ 0000000180040330     VImage.obj
 0002:00009338       ??_C@_04CIIKCAD@dE00?$AA@  0000000180040338     VImage.obj
 0002:00009340       ??_C@_05GHPMDBKP@dECMC?$AA@ 0000000180040340     VImage.obj
 0002:00009348       ??_C@_0L@CFFEDAKI@sRGB2scRGB?$AA@ 0000000180040348     VImage.obj
 0002:00009358       ??_C@_08NGFONIGN@scRGB2BW?$AA@ 0000000180040358     VImage.obj
 0002:00009368       ??_C@_0L@EEFOEOJE@scRGB2sRGB?$AA@ 0000000180040368     VImage.obj
 0002:00009374       ??_C@_03LGCCHOBB@lut?$AA@  0000000180040374     VImage.obj
 0002:00009378       ??_C@_06NKBBGPGG@maplut?$AA@ 0000000180040378     VImage.obj
 0002:00009380       ??_C@_07HCJJCOPK@percent?$AA@ 0000000180040380     VImage.obj
 0002:00009388       ??_C@_09DEHKFMCJ@threshold?$AA@ 0000000180040388     VImage.obj
 0002:00009394       ??_C@_05PDMDLOG@stdif?$AA@ 0000000180040394     VImage.obj
 0002:000093a0       ??_C@_08GNGDEJLK@hist_cum?$AA@ 00000001800403a0     VImage.obj
 0002:000093ac       ??_C@_03GCDGINBO@ref?$AA@  00000001800403ac     VImage.obj
 0002:000093b0       ??_C@_0L@HEOEAOJE@hist_match?$AA@ 00000001800403b0     VImage.obj
 0002:000093c0       ??_C@_09CLMELLDG@hist_norm?$AA@ 00000001800403c0     VImage.obj
 0002:000093d0       ??_C@_0L@CHADGNHE@hist_equal?$AA@ 00000001800403d0     VImage.obj
 0002:000093e0       ??_C@_09GJFPKEAA@hist_plot?$AA@ 00000001800403e0     VImage.obj
 0002:000093f0       ??_C@_0L@KKKOBNBM@hist_local?$AA@ 00000001800403f0     VImage.obj
 0002:00009400       ??_C@_09FKNHDPAJ@monotonic?$AA@ 0000000180040400     VImage.obj
 0002:00009410       ??_C@_0BB@BJFODBKP@hist_ismonotonic?$AA@ 0000000180040410     VImage.obj
 0002:00009428       ??_C@_0N@LNGDFBMF@hist_entropy?$AA@ 0000000180040428     VImage.obj
 0002:00009438       ??_C@_04LFLEPBN@mask?$AA@  0000000180040438     VImage.obj
 0002:00009440       ??_C@_04LPCGNKHA@conv?$AA@ 0000000180040440     VImage.obj
 0002:00009448       ??_C@_05CMFMANAA@conva?$AA@ 0000000180040448     VImage.obj
 0002:00009450       ??_C@_05GDBNJLMH@convf?$AA@ 0000000180040450     VImage.obj
 0002:00009458       ??_C@_05OEIFIHAI@convi?$AA@ 0000000180040458     VImage.obj
 0002:00009460       ??_C@_07CFMACLND@compass?$AA@ 0000000180040460     VImage.obj
 0002:00009468       ??_C@_07OFICLPMI@convsep?$AA@ 0000000180040468     VImage.obj
 0002:00009470       ??_C@_08MPNKBMPB@convasep?$AA@ 0000000180040470     VImage.obj
 0002:00009480       ??_C@_07FHGNDIBP@fastcor?$AA@ 0000000180040480     VImage.obj
 0002:00009488       ??_C@_05ENEIAOHI@spcor?$AA@ 0000000180040488     VImage.obj
 0002:00009490       ??_C@_07JOLMDEEJ@sharpen?$AA@ 0000000180040490     VImage.obj
 0002:00009498       ??_C@_09NOBOKBD@gaussblur?$AA@ 0000000180040498     VImage.obj
 0002:000094a4       ??_C@_05MCCGCNHL@fwfft?$AA@ 00000001800404a4     VImage.obj
 0002:000094ac       ??_C@_06CBJFPBEN@invfft?$AA@ 00000001800404ac     VImage.obj
 0002:000094b8       ??_C@_08PGNHFFFA@freqmult?$AA@ 00000001800404b8     VImage.obj
 0002:000094c8       ??_C@_08GEGLAKCO@spectrum?$AA@ 00000001800404c8     VImage.obj
 0002:000094d8       ??_C@_08GMOPJMAN@phasecor?$AA@ 00000001800404d8     VImage.obj
 0002:000094e4       ??_C@_05NJNGEDKM@morph?$AA@ 00000001800404e4     VImage.obj
 0002:000094ec       ??_C@_04PNBFHPGN@rank?$AA@ 00000001800404ec     VImage.obj
 0002:000094f8       ??_C@_07FIKBNHMA@nolines?$AA@ 00000001800404f8     VImage.obj
 0002:00009500       ??_C@_0L@GADDFICP@countlines?$AA@ 0000000180040500     VImage.obj
 0002:00009510       ??_C@_0N@MBCCJMPJ@labelregions?$AA@ 0000000180040510     VImage.obj
 0002:00009520       ??_C@_05NGOMGBBD@image?$AA@ 0000000180040520     VImage.obj
 0002:00009528       ??_C@_03FMNFMMCM@ink?$AA@  0000000180040528     VImage.obj
 0002:00009530       ??_C@_09FMFCFBGH@draw_rect?$AA@ 0000000180040530     VImage.obj
 0002:00009540       ??_C@_09OAPMGLIN@draw_mask?$AA@ 0000000180040540     VImage.obj
 0002:0000954c       ??_C@_02JMABBILH@x1?$AA@   000000018004054c     VImage.obj
 0002:00009550       ??_C@_02JNMDHCIA@y1?$AA@   0000000180040550     VImage.obj
 0002:00009554       ??_C@_02LHCMELHE@x2?$AA@   0000000180040554     VImage.obj
 0002:00009558       ??_C@_02LGOOCBED@y2?$AA@   0000000180040558     VImage.obj
 0002:00009560       ??_C@_09JCFFHHHP@draw_line?$AA@ 0000000180040560     VImage.obj
 0002:0000956c       ??_C@_02KNMJKAGK@cx?$AA@   000000018004056c     VImage.obj
 0002:00009570       ??_C@_02LENCJBCL@cy?$AA@   0000000180040570     VImage.obj
 0002:00009578       ??_C@_0M@EJLCOLOD@draw_circle?$AA@ 0000000180040578     VImage.obj
 0002:00009588       ??_C@_0L@BNOJNJNM@draw_flood?$AA@ 0000000180040588     VImage.obj
 0002:00009598       ??_C@_0L@CGAIFFHD@draw_image?$AA@ 0000000180040598     VImage.obj
 0002:000095a8       ??_C@_0M@JGFPDOHD@draw_smudge?$AA@ 00000001800405a8     VImage.obj
 0002:000095b4       ??_C@_03KHPNBODO@sec?$AA@  00000001800405b4     VImage.obj
 0002:000095b8       ??_C@_02KIIGLGOP@dx?$AA@   00000001800405b8     VImage.obj
 0002:000095bc       ??_C@_02LBJNIHKO@dy?$AA@   00000001800405bc     VImage.obj
 0002:000095c0       ??_C@_05DPKBJALF@merge?$AA@ 00000001800405c0     VImage.obj
 0002:000095c8       ??_C@_04EMPCAOBB@xref?$AA@ 00000001800405c8     VImage.obj
 0002:000095d0       ??_C@_04HBJCCHKB@yref?$AA@ 00000001800405d0     VImage.obj
 0002:000095d8       ??_C@_04IJDJJNDB@xsec?$AA@ 00000001800405d8     VImage.obj
 0002:000095e0       ??_C@_04LEFJLEIB@ysec?$AA@ 00000001800405e0     VImage.obj
 0002:000095e8       ??_C@_06EFGOHCJJ@mosaic?$AA@ 00000001800405e8     VImage.obj
 0002:000095f0       ??_C@_03OBBIBDBM@xr1?$AA@  00000001800405f0     VImage.obj
 0002:000095f4       ??_C@_03FJKEHEHJ@yr1?$AA@  00000001800405f4     VImage.obj
 0002:000095f8       ??_C@_03OANKHJCL@xs1?$AA@  00000001800405f8     VImage.obj
 0002:000095fc       ??_C@_03FIGGBOEO@ys1?$AA@  00000001800405fc     VImage.obj
 0002:00009600       ??_C@_03MKDFEANP@xr2?$AA@  0000000180040600     VImage.obj
 0002:00009604       ??_C@_03HCIJCHLK@yr2?$AA@  0000000180040604     VImage.obj
 0002:00009608       ??_C@_03MLPHCKOI@xs2?$AA@  0000000180040608     VImage.obj
 0002:0000960c       ??_C@_03HDELENIN@ys2?$AA@  000000018004060c     VImage.obj
 0002:00009610       ??_C@_07EPMLECCA@mosaic1?$AA@ 0000000180040610     VImage.obj
 0002:00009618       ??_C@_05FNONLPDI@match?$AA@ 0000000180040618     VImage.obj
 0002:00009620       ??_C@_0O@GIJIBKOK@globalbalance?$AA@ 0000000180040620     VImage.obj
 0002:00009bd0       __real@3ff0000000000000    0000000180040bd0     VImage.obj
 0002:00009bd8       __real@bff0000000000000    0000000180040bd8     VImage.obj
 0002:00009be0       __xmm@80000000000000008000000000000000 0000000180040be0     VImage.obj
 0002:0000cee0       _load_config_used          0000000180043ee0     LIBCMT:loadcfg.obj
 0002:0000cf78       _tls_used                  0000000180043f78     LIBCMT:tlssup.obj
 0002:0000cfa0       ??_R4exception@std@@6B@    0000000180043fa0     libcpmt:xthrow.obj
 0002:0000cfc8       ??_R3exception@std@@8      0000000180043fc8     libcpmt:xthrow.obj
 0002:0000cfe0       ??_R2exception@std@@8      0000000180043fe0     libcpmt:xthrow.obj
 0002:0000cff0       ??_R1A@?0A@EA@exception@std@@8 0000000180043ff0     libcpmt:xthrow.obj
 0002:0000d018       ??_R4bad_alloc@std@@6B@    0000000180044018     libcpmt:xthrow.obj
 0002:0000d040       ??_R3bad_alloc@std@@8      0000000180044040     libcpmt:xthrow.obj
 0002:0000d058       ??_R2bad_alloc@std@@8      0000000180044058     libcpmt:xthrow.obj
 0002:0000d070       ??_R1A@?0A@EA@bad_alloc@std@@8 0000000180044070     libcpmt:xthrow.obj
 0002:0000d098       ??_R4logic_error@std@@6B@  0000000180044098     libcpmt:xthrow.obj
 0002:0000d0c0       ??_R3logic_error@std@@8    00000001800440c0     libcpmt:xthrow.obj
 0002:0000d0d8       ??_R2logic_error@std@@8    00000001800440d8     libcpmt:xthrow.obj
 0002:0000d0f0       ??_R1A@?0A@EA@logic_error@std@@8 00000001800440f0     libcpmt:xthrow.obj
 0002:0000d118       ??_R4length_error@std@@6B@ 0000000180044118     libcpmt:xthrow.obj
 0002:0000d140       ??_R3length_error@std@@8   0000000180044140     libcpmt:xthrow.obj
 0002:0000d158       ??_R2length_error@std@@8   0000000180044158     libcpmt:xthrow.obj
 0002:0000d178       ??_R1A@?0A@EA@length_error@std@@8 0000000180044178     libcpmt:xthrow.obj
 0002:0000d1a0       ??_R4out_of_range@std@@6B@ 00000001800441a0     libcpmt:xthrow.obj
 0002:0000d1c8       ??_R3out_of_range@std@@8   00000001800441c8     libcpmt:xthrow.obj
 0002:0000d1e0       ??_R2out_of_range@std@@8   00000001800441e0     libcpmt:xthrow.obj
 0002:0000d200       ??_R1A@?0A@EA@out_of_range@std@@8 0000000180044200     libcpmt:xthrow.obj
 0002:0000d228       ??_R4runtime_error@std@@6B@ 0000000180044228     libcpmt:xthrow.obj
 0002:0000d250       ??_R3runtime_error@std@@8  0000000180044250     libcpmt:xthrow.obj
 0002:0000d268       ??_R2runtime_error@std@@8  0000000180044268     libcpmt:xthrow.obj
 0002:0000d280       ??_R1A@?0A@EA@runtime_error@std@@8 0000000180044280     libcpmt:xthrow.obj
 0002:0000d2a8       ??_R4type_info@@6B@        00000001800442a8     LIBCMT:std_type_info_static.obj
 0002:0000d2d0       ??_R3type_info@@8          00000001800442d0     LIBCMT:std_type_info_static.obj
 0002:0000d2e8       ??_R2type_info@@8          00000001800442e8     LIBCMT:std_type_info_static.obj
 0002:0000d2f8       ??_R1A@?0A@EA@type_info@@8 00000001800442f8     LIBCMT:std_type_info_static.obj
 0002:0000d320       ??_R4bad_array_new_length@std@@6B@ 0000000180044320     LIBCMT:throw_bad_alloc.obj
 0002:0000d348       ??_R3bad_array_new_length@std@@8 0000000180044348     LIBCMT:throw_bad_alloc.obj
 0002:0000d360       ??_R2bad_array_new_length@std@@8 0000000180044360     LIBCMT:throw_bad_alloc.obj
 0002:0000d380       ??_R1A@?0A@EA@bad_array_new_length@std@@8 0000000180044380     LIBCMT:throw_bad_alloc.obj
 0002:0000d3a8       ??_R4bad_exception@std@@6B@ 00000001800443a8     libvcruntime:frame.obj
 0002:0000d3d0       ??_R3bad_exception@std@@8  00000001800443d0     libvcruntime:frame.obj
 0002:0000d3e8       ??_R2bad_exception@std@@8  00000001800443e8     libvcruntime:frame.obj
 0002:0000d400       ??_R1A@?0A@EA@bad_exception@std@@8 0000000180044400     libvcruntime:frame.obj
 0002:0000d858       __rtc_iaa                  0000000180044858     LIBCMT:_initsect_.obj
 0002:0000d860       __rtc_izz                  0000000180044860     LIBCMT:_initsect_.obj
 0002:0000d868       __rtc_taa                  0000000180044868     LIBCMT:_initsect_.obj
 0002:0000d870       __rtc_tzz                  0000000180044870     LIBCMT:_initsect_.obj
 0002:00013a88       _TI2?AVbad_alloc@std@@     000000018004aa88     libcpmt:xthrow.obj
 0002:00013aa8       _CTA2?AVbad_alloc@std@@    000000018004aaa8     libcpmt:xthrow.obj
 0002:00013ac0       _CT??_R0?AVbad_alloc@std@@@8??0bad_alloc@std@@QEAA@AEBV01@@Z24 000000018004aac0     libcpmt:xthrow.obj
 0002:00013ae8       _CT??_R0?AVexception@std@@@8??0exception@std@@QEAA@AEBV01@@Z24 000000018004aae8     libcpmt:xthrow.obj
 0002:00013b10       _CT??_R0?AVlogic_error@std@@@8??0logic_error@std@@QEAA@AEBV01@@Z24 000000018004ab10     libcpmt:xthrow.obj
 0002:00013b38       _TI3?AVlength_error@std@@  000000018004ab38     libcpmt:xthrow.obj
 0002:00013b58       _CTA3?AVlength_error@std@@ 000000018004ab58     libcpmt:xthrow.obj
 0002:00013b78       _CT??_R0?AVlength_error@std@@@8??0length_error@std@@QEAA@AEBV01@@Z24 000000018004ab78     libcpmt:xthrow.obj
 0002:00013ba0       _TI3?AVout_of_range@std@@  000000018004aba0     libcpmt:xthrow.obj
 0002:00013bc0       _CTA3?AVout_of_range@std@@ 000000018004abc0     libcpmt:xthrow.obj
 0002:00013be0       _CT??_R0?AVout_of_range@std@@@8??0out_of_range@std@@QEAA@AEBV01@@Z24 000000018004abe0     libcpmt:xthrow.obj
 0002:00013c08       _TI3?AVbad_array_new_length@std@@ 000000018004ac08     LIBCMT:throw_bad_alloc.obj
 0002:00013c28       _CTA3?AVbad_array_new_length@std@@ 000000018004ac28     LIBCMT:throw_bad_alloc.obj
 0002:00013c48       _CT??_R0?AVbad_array_new_length@std@@@8??0bad_array_new_length@std@@QEAA@AEBV01@@Z24 000000018004ac48     LIBCMT:throw_bad_alloc.obj
 0002:00013c70       _TI2?AVbad_exception@std@@ 000000018004ac70     libvcruntime:frame.obj
 0002:00013c90       _CTA2?AVbad_exception@std@@ 000000018004ac90     libvcruntime:frame.obj
 0002:00013ca8       _CT??_R0?AVbad_exception@std@@@8??0bad_exception@std@@QEAA@AEBV01@@Z24 000000018004aca8     libvcruntime:frame.obj
 0002:00013cd0       _CTA2?AVVError@vips@@      000000018004acd0     VError.obj
 0002:00013ce8       _CT??_R0?AVVError@vips@@@848 000000018004ace8     VError.obj
 0002:00013d10       _TI2?AVVError@vips@@       000000018004ad10     VError.obj
 0002:00013d30       _CT??_R0?AVexception@stdext@@@816 000000018004ad30     VError.obj
 0002:0001b180       __IMPORT_DESCRIPTOR_KERNEL32 0000000180052180     kernel32:KERNEL32.dll
 0002:0001b194       _head_lib_libvips_lib      0000000180052194     libvips:dmrkh.o
 0002:0001b1a8       _head_lib_libglib_2_0_lib  00000001800521a8     libglib-2.0:dgokh.o
 0002:0001b1bc       _head_lib_libgobject_2_0_lib 00000001800521bc     libgobject-2.0:dqokh.o
 0002:0001b1d0       __NULL_IMPORT_DESCRIPTOR   00000001800521d0     kernel32:KERNEL32.dll
 0002:0001c488       __lib_libvips_lib_iname    0000000180053488     libvips:dmrkt.o
 0002:0001c49c       __lib_libglib_2_0_lib_iname 000000018005349c     libglib-2.0:dgokt.o
 0002:0001c508       __lib_libgobject_2_0_lib_iname 0000000180053508     libgobject-2.0:dqokt.o
 0003:00000000       _Init_global_epoch         0000000180054000     LIBCMT:thread_safe_statics.obj
 0003:00000004       __scrt_native_dllmain_reason 0000000180054004     LIBCMT:utility.obj
 0003:00000008       __security_cookie          0000000180054008     LIBCMT:gs_cookie.obj
 0003:00000010       __security_cookie_complement 0000000180054010     LIBCMT:gs_cookie.obj
 0003:00000018       __isa_available            0000000180054018     LIBCMT:_cpu_disp_.obj
 0003:0000001c       __isa_enabled              000000018005401c     LIBCMT:_cpu_disp_.obj
 0003:00000020       __memcpy_nt_iters          0000000180054020     LIBCMT:_cpu_disp_.obj
 0003:00000040       __abort_behavior           0000000180054040     libucrt:abort.obj
 0003:00000050       __acrt_initial_locale_data 0000000180054050     libucrt:nlsdata.obj
 0003:000001a8       __acrt_initial_locale_pointers 00000001800541a8     libucrt:nlsdata.obj
 0003:000001b8       __acrt_wide_c_locale_string 00000001800541b8     libucrt:nlsdata.obj
 0003:000001c0       __acrt_initial_multibyte_data 00000001800541c0     libucrt:mbctype.obj
 0003:000003e8       __acrt_current_multibyte_data 00000001800543e8     libucrt:mbctype.obj
 0003:000004f0       _mbctype                   00000001800544f0     libucrt:mbctype.obj
 0003:00000600       _mbcasemap                 0000000180054600     libucrt:mbctype.obj
 0003:00000700       _iob                       0000000180054700     libucrt:_file.obj
 0003:00000808       __globallocalestatus       0000000180054808     libucrt:glstatus.obj
 0003:00000810       __acrt_lconv_c             0000000180054810     libucrt:localeconv.obj
 0003:000008a8       __acrt_lconv_static_decimal 00000001800548a8     libucrt:localeconv.obj
 0003:000008ac       __acrt_lconv_static_W_decimal 00000001800548ac     libucrt:localeconv.obj
 0003:000008b0       __dcrt_lowio_console_output_handle 00000001800548b0     libucrt:initcon.obj
 0003:000008d0       _fltused                   00000001800548d0     LIBCMT:fltused.obj
 0003:000008e0       ??_R0?AVbad_alloc@std@@@8  00000001800548e0     libcpmt:xthrow.obj
 0003:00000908       ??_R0?AVexception@std@@@8  0000000180054908     libcpmt:xthrow.obj
 0003:00000930       ??_R0?AVlogic_error@std@@@8 0000000180054930     libcpmt:xthrow.obj
 0003:00000958       ??_R0?AVlength_error@std@@@8 0000000180054958     libcpmt:xthrow.obj
 0003:00000980       ??_R0?AVout_of_range@std@@@8 0000000180054980     libcpmt:xthrow.obj
 0003:000009a8       ??_R0?AVruntime_error@std@@@8 00000001800549a8     libcpmt:xthrow.obj
 0003:000009d0       ??_R0?AVtype_info@@@8      00000001800549d0     LIBCMT:std_type_info_static.obj
 0003:000009f0       ??_R0?AVbad_array_new_length@std@@@8 00000001800549f0     LIBCMT:throw_bad_alloc.obj
 0003:00000a20       ??_R0?AVbad_exception@std@@@8 0000000180054a20     libvcruntime:frame.obj
 0003:00000a48       ??_R0?AVexception@stdext@@@8 0000000180054a48     VError.obj
 0003:00000a70       ??_R0?AVVError@vips@@@8    0000000180054a70     VError.obj
 0003:00000aa0       ?_Raise_handler@std@@3P6AXAEBVexception@stdext@@@ZEA 0000000180054aa0     libcpmt:raisehan.obj
 0003:00000af0       __scrt_current_native_startup_state 0000000180054af0     LIBCMT:utility.obj
 0003:00000af8       __scrt_native_startup_lock 0000000180054af8     LIBCMT:utility.obj
 0003:000010b0       __scrt_debugger_hook_flag  00000001800550b0     LIBCMT:utility_desktop.obj
 0003:000010b4       _tls_index                 00000001800550b4     LIBCMT:tlssup.obj
 0003:000010b8       __favor                    00000001800550b8     LIBCMT:_cpu_disp_.obj
 0003:000010c0       ?__type_info_root_node@@3U__type_info_node@@A 00000001800550c0     LIBCMT:tncleanup.obj
 0003:000010d0       ?_OptionsStorage@?1??__local_stdio_printf_options@@9@4_KA 00000001800550d0     LIBCMT:default_local_stdio_options.obj
 0003:000010d8       ?_OptionsStorage@?1??__local_stdio_scanf_options@@9@4_KA 00000001800550d8     LIBCMT:default_local_stdio_options.obj
 0003:000010e0       ?g_OutOfMemoryExceptionCallback@@3P6APEAXXZEA 00000001800550e0     libvcruntime:frame.obj
 0003:00001158       __pPurecall                0000000180055158     libvcruntime:purevirt_data.obj
 0003:00001208       ?pArgList@UnDecorator@@0PEAVReplicator@@EA 0000000180055208     libvcruntime:undname.obj
 0003:00001210       ?pZNameList@UnDecorator@@0PEAVReplicator@@EA 0000000180055210     libvcruntime:undname.obj
 0003:00001218       ?pTemplateArgList@UnDecorator@@0PEAVReplicator@@EA 0000000180055218     libvcruntime:undname.obj
 0003:00001220       ?gName@UnDecorator@@0PEBDEB 0000000180055220     libvcruntime:undname.obj
 0003:00001228       ?name@UnDecorator@@0PEBDEB 0000000180055228     libvcruntime:undname.obj
 0003:00001230       ?outputString@UnDecorator@@0PEADEA 0000000180055230     libvcruntime:undname.obj
 0003:00001238       ?maxStringLength@UnDecorator@@0HA 0000000180055238     libvcruntime:undname.obj
 0003:0000123c       ?disableFlags@UnDecorator@@0KA 000000018005523c     libvcruntime:undname.obj
 0003:00001240       ?fExplicitTemplateParams@UnDecorator@@0_NA 0000000180055240     libvcruntime:undname.obj
 0003:00001241       ?fGetTemplateArgumentList@UnDecorator@@0_NA 0000000180055241     libvcruntime:undname.obj
 0003:00001248       ?m_pGetParameter@UnDecorator@@0P6APEADJ@ZEA 0000000180055248     libvcruntime:undname.obj
 0003:000013a8       _environ_table             00000001800553a8     libucrt:environment_initialization.obj
 0003:000013b0       _wenviron_table            00000001800553b0     libucrt:environment_initialization.obj
 0003:000013b8       __dcrt_initial_wide_environment 00000001800553b8     libucrt:environment_initialization.obj
 0003:000013c0       __dcrt_initial_narrow_environment 00000001800553c0     libucrt:environment_initialization.obj
 0003:000013c8       __acrt_atexit_table        00000001800553c8     libucrt:onexit.obj
 0003:000013e0       __acrt_at_quick_exit_table 00000001800553e0     libucrt:onexit.obj
 0003:000013f8       __acrt_locale_changed_data 00000001800553f8     libucrt:wsetlocale.obj
 0003:00001400       __acrt_current_locale_data 0000000180055400     libucrt:nlsdata.obj
 0003:000017c4       __mbcodepage               00000001800557c4     libucrt:mbctype.obj
 0003:000017c8       __ismbcodepage             00000001800557c8     libucrt:mbctype.obj
 0003:000017d0       __mbulinfo                 00000001800557d0     libucrt:mbctype.obj
 0003:000017e0       __mblocalename             00000001800557e0     libucrt:mbctype.obj
 0003:000017ec       __argc                     00000001800557ec     libucrt:argv_data.obj
 0003:000017f0       __argv                     00000001800557f0     libucrt:argv_data.obj
 0003:000017f8       __wargv                    00000001800557f8     libucrt:argv_data.obj
 0003:00001800       _acmdln                    0000000180055800     libucrt:argv_data.obj
 0003:00001808       _wcmdln                    0000000180055808     libucrt:argv_data.obj
 0003:00001810       _pgmptr                    0000000180055810     libucrt:argv_data.obj
 0003:00001818       __acrt_heap                0000000180055818     libucrt:heap_handle.obj
 0003:00001820       __pioinfo                  0000000180055820     libucrt:ioinit.obj
 0003:00001c20       _nhandle                   0000000180055c20     libucrt:ioinit.obj
 0003:00001c50       __acrt_stdout_buffer       0000000180055c50     libucrt:_sftbuf.obj
 0003:00001c58       __acrt_stderr_buffer       0000000180055c58     libucrt:_sftbuf.obj
 0003:00001c68       _nstream                   0000000180055c68     libucrt:_file.obj
 0003:00001c70       __piob                     0000000180055c70     libucrt:_file.obj
 0003:00001c78       __acrt_lconv_static_null   0000000180055c78     libucrt:localeconv.obj
 0003:00001c7c       __acrt_lconv_static_W_null 0000000180055c7c     libucrt:localeconv.obj
 0003:00001c84       __fma3_is_available        0000000180055c84     libucrt:fma3_available.obj
 0003:00001c88       __use_fma3_lib             0000000180055c88     libucrt:fma3_available.obj
 0003:00001c90       ?_Static@?1???$_Immortalize@V_Iostream_error_category@std@@@std@@YAAEAV_Iostream_error_category@1@XZ@4U?$_Immortalizer@V_Iostream_error_category@std@@@1@A 0000000180055c90     VError.obj
 0003:00001ca0       ?$TSS0@?1???$_Immortalize@V_Iostream_error_category@std@@@std@@YAAEAV_Iostream_error_category@1@XZ@4HA 0000000180055ca0     VError.obj
 0003:00001ca8       __dyn_tls_init_callback    0000000180055ca8     <common>
 0003:00001cb0       __scrt_ucrt_dll_is_in_use  0000000180055cb0     <common>
 0006:00000000       _tls_start                 000000018005a000     LIBCMT:tlssup.obj
 0006:00000004       _Init_thread_epoch         000000018005a004     LIBCMT:thread_safe_statics.obj
 0006:00000008       _tls_end                   000000018005a008     LIBCMT:tlssup.obj

 entry point at        0001:00029158

 Static symbols

 0000:fffa3000       .debug$S                   0000000180000000     kernel32:KERNEL32.dll
 0000:fffa3000       .debug$S                   0000000180000000     kernel32:KERNEL32.dll
 0000:fffa3000       .debug$S                   0000000180000000     kernel32:KERNEL32.dll
 0000:fffa3000       .debug$S                   0000000180000000     kernel32:KERNEL32.dll
 0000:fffa3000       .debug$S                   0000000180000000     kernel32:KERNEL32.dll
 0000:fffa3000       .debug$S                   0000000180000000     kernel32:KERNEL32.dll
 0000:fffa3000       .debug$S                   0000000180000000     kernel32:KERNEL32.dll
 0000:fffa3000       .debug$S                   0000000180000000     kernel32:KERNEL32.dll
 0000:fffa3000       .debug$S                   0000000180000000     kernel32:KERNEL32.dll
 0000:fffa3000       .debug$S                   0000000180000000     kernel32:KERNEL32.dll
 0000:fffa3000       .debug$S                   0000000180000000     kernel32:KERNEL32.dll
 0000:fffa3000       .debug$S                   0000000180000000     kernel32:KERNEL32.dll
 0000:fffa3000       .debug$S                   0000000180000000     kernel32:KERNEL32.dll
 0000:fffa3000       .debug$S                   0000000180000000     kernel32:KERNEL32.dll
 0000:fffa3000       .debug$S                   0000000180000000     kernel32:KERNEL32.dll
 0000:fffa3000       .debug$S                   0000000180000000     kernel32:KERNEL32.dll
 0000:fffa3000       .debug$S                   0000000180000000     kernel32:KERNEL32.dll
 0000:fffa3000       .debug$S                   0000000180000000     kernel32:KERNEL32.dll
 0000:fffa3000       .debug$S                   0000000180000000     kernel32:KERNEL32.dll
 0000:fffa3000       .debug$S                   0000000180000000     kernel32:KERNEL32.dll
 0000:fffa3000       .debug$S                   0000000180000000     kernel32:KERNEL32.dll
 0000:fffa3000       .debug$S                   0000000180000000     kernel32:KERNEL32.dll
 0000:fffa3000       .debug$S                   0000000180000000     kernel32:KERNEL32.dll
 0000:fffa3000       .debug$S                   0000000180000000     kernel32:KERNEL32.dll
 0000:fffa3000       .debug$S                   0000000180000000     kernel32:KERNEL32.dll
 0000:fffa3000       .debug$S                   0000000180000000     kernel32:KERNEL32.dll
 0000:fffa3000       .debug$S                   0000000180000000     kernel32:KERNEL32.dll
 0000:fffa3000       .debug$S                   0000000180000000     kernel32:KERNEL32.dll
 0000:fffa3000       .debug$S                   0000000180000000     kernel32:KERNEL32.dll
 0000:fffa3000       .debug$S                   0000000180000000     kernel32:KERNEL32.dll
 0000:fffa3000       .debug$S                   0000000180000000     kernel32:KERNEL32.dll
 0000:fffa3000       .debug$S                   0000000180000000     kernel32:KERNEL32.dll
 0000:fffa3000       .debug$S                   0000000180000000     kernel32:KERNEL32.dll
 0000:fffa3000       .debug$S                   0000000180000000     kernel32:KERNEL32.dll
 0000:fffa3000       .debug$S                   0000000180000000     kernel32:KERNEL32.dll
 0000:fffa3000       .debug$S                   0000000180000000     kernel32:KERNEL32.dll
 0000:fffa3000       .debug$S                   0000000180000000     kernel32:KERNEL32.dll
 0000:fffa3000       .debug$S                   0000000180000000     kernel32:KERNEL32.dll
 0000:fffa3000       .debug$S                   0000000180000000     kernel32:KERNEL32.dll
 0000:fffa3000       .debug$S                   0000000180000000     kernel32:KERNEL32.dll
 0000:fffa3000       .debug$S                   0000000180000000     kernel32:KERNEL32.dll
 0000:fffa3000       .debug$S                   0000000180000000     kernel32:KERNEL32.dll
 0000:fffa3000       .debug$S                   0000000180000000     kernel32:KERNEL32.dll
 0000:fffa3000       .debug$S                   0000000180000000     kernel32:KERNEL32.dll
 0000:fffa3000       .debug$S                   0000000180000000     kernel32:KERNEL32.dll
 0000:fffa3000       .debug$S                   0000000180000000     kernel32:KERNEL32.dll
 0000:fffa3000       .debug$S                   0000000180000000     kernel32:KERNEL32.dll
 0000:fffa3000       .debug$S                   0000000180000000     kernel32:KERNEL32.dll
 0000:fffa3000       .debug$S                   0000000180000000     libvips-cpp.exp
 0000:fffa3000       .debug$S                   0000000180000000     kernel32:KERNEL32.dll
 0000:fffa3000       .debug$S                   0000000180000000     kernel32:KERNEL32.dll
 0000:fffa3000       .debug$S                   0000000180000000     kernel32:KERNEL32.dll
 0000:fffa3000       .debug$S                   0000000180000000     kernel32:KERNEL32.dll
 0000:fffa3000       .debug$S                   0000000180000000     kernel32:KERNEL32.dll
 0000:fffa3000       .debug$S                   0000000180000000     kernel32:KERNEL32.dll
 0000:fffa3000       .debug$S                   0000000180000000     kernel32:KERNEL32.dll
 0000:fffa3000       .debug$S                   0000000180000000     kernel32:KERNEL32.dll
 0000:fffa3000       .debug$S                   0000000180000000     kernel32:KERNEL32.dll
 0000:fffa3000       .debug$S                   0000000180000000     kernel32:KERNEL32.dll
 0000:fffa3000       .debug$S                   0000000180000000     kernel32:KERNEL32.dll
 0000:fffa3000       .debug$S                   0000000180000000     kernel32:KERNEL32.dll
 0000:fffa3000       .debug$S                   0000000180000000     kernel32:KERNEL32.dll
 0000:fffa3000       .debug$S                   0000000180000000     kernel32:KERNEL32.dll
 0000:fffa3000       .debug$S                   0000000180000000     kernel32:KERNEL32.dll
 0000:fffa3000       .debug$S                   0000000180000000     kernel32:KERNEL32.dll
 0000:fffa3000       .debug$S                   0000000180000000     kernel32:KERNEL32.dll
 0000:fffa3000       .debug$S                   0000000180000000     kernel32:KERNEL32.dll
 0000:fffa3000       .debug$S                   0000000180000000     kernel32:KERNEL32.dll
 0000:fffa3000       .debug$S                   0000000180000000     kernel32:KERNEL32.dll
 0000:fffa3000       .debug$S                   0000000180000000     kernel32:KERNEL32.dll
 0000:fffa3000       .debug$S                   0000000180000000     kernel32:KERNEL32.dll
 0000:fffa3000       .debug$S                   0000000180000000     kernel32:KERNEL32.dll
 0000:fffa3000       .debug$S                   0000000180000000     kernel32:KERNEL32.dll
 0000:fffa3000       .debug$S                   0000000180000000     kernel32:KERNEL32.dll
 0000:fffa3000       .debug$S                   0000000180000000     kernel32:KERNEL32.dll
 0000:fffa3000       .debug$S                   0000000180000000     kernel32:KERNEL32.dll
 0000:fffa3000       .debug$S                   0000000180000000     kernel32:KERNEL32.dll
 0000:fffa3000       .debug$S                   0000000180000000     kernel32:KERNEL32.dll
 0000:fffa3000       .debug$S                   0000000180000000     kernel32:KERNEL32.dll
 0000:fffa3000       .debug$S                   0000000180000000     kernel32:KERNEL32.dll
 0000:fffa3000       .debug$S                   0000000180000000     kernel32:KERNEL32.dll
 0000:fffa3000       .debug$S                   0000000180000000     kernel32:KERNEL32.dll
 0000:fffa3000       .debug$S                   0000000180000000     kernel32:KERNEL32.dll
 0000:fffa3000       .debug$S                   0000000180000000     kernel32:KERNEL32.dll
 0000:fffa3000       .debug$S                   0000000180000000     kernel32:KERNEL32.dll
 0000:fffa3000       .debug$S                   0000000180000000     kernel32:KERNEL32.dll
 0000:fffa3000       .debug$S                   0000000180000000     kernel32:KERNEL32.dll
 0000:fffa3000       .debug$S                   0000000180000000     kernel32:KERNEL32.dll
 0000:fffa3000       .debug$S                   0000000180000000     kernel32:KERNEL32.dll
 0000:fffa3000       .debug$S                   0000000180000000     kernel32:KERNEL32.dll
 0000:fffa3000       .debug$S                   0000000180000000     kernel32:KERNEL32.dll
 0000:fffa3000       .debug$S                   0000000180000000     kernel32:KERNEL32.dll
 0000:fffa3000       .debug$S                   0000000180000000     kernel32:KERNEL32.dll
 0001:00000000       .text                      0000000180001000     libvips:dmrks01471.o
 0001:00000008       .text                      0000000180001008     libvips:dmrks01449.o
 0001:00000010       .text                      0000000180001010     libvips:dmrks01474.o
 0001:00000018       .text                      0000000180001018     libvips:dmrks01468.o
 0001:00000020       .text                      0000000180001020     libvips:dmrks01635.o
 0001:00000028       .text                      0000000180001028     libvips:dmrks01423.o
 0001:00000030       .text                      0000000180001030     libvips:dmrks01422.o
 0001:00000038       .text                      0000000180001038     libvips:dmrks01426.o
 0001:00000040       .text                      0000000180001040     libvips:dmrks01412.o
 0001:00000048       .text                      0000000180001048     libvips:dmrks01454.o
 0001:00000050       .text                      0000000180001050     libvips:dmrks01410.o
 0001:00000058       .text                      0000000180001058     libvips:dmrks01419.o
 0001:00000060       .text                      0000000180001060     libvips:dmrks01408.o
 0001:00000068       .text                      0000000180001068     libvips:dmrks01428.o
 0001:00000070       .text                      0000000180001070     libvips:dmrks01411.o
 0001:00000078       .text                      0000000180001078     libvips:dmrks01424.o
 0001:00000080       .text                      0000000180001080     libvips:dmrks01415.o
 0001:00000088       .text                      0000000180001088     libvips:dmrks01482.o
 0001:00000090       .text                      0000000180001090     libvips:dmrks01405.o
 0001:00000098       .text                      0000000180001098     libvips:dmrks01421.o
 0001:000000a0       .text                      00000001800010a0     libvips:dmrks01452.o
 0001:000000a8       .text                      00000001800010a8     libvips:dmrks01407.o
 0001:000000b0       .text                      00000001800010b0     libvips:dmrks01185.o
 0001:000000b8       .text                      00000001800010b8     libvips:dmrks01456.o
 0001:000000c0       .text                      00000001800010c0     libvips:dmrks01406.o
 0001:000000c8       .text                      00000001800010c8     libvips:dmrks01409.o
 0001:000000d0       .text                      00000001800010d0     libvips:dmrks01470.o
 0001:000000d8       .text                      00000001800010d8     libvips:dmrks01414.o
 0001:000000e0       .text                      00000001800010e0     libvips:dmrks01425.o
 0001:000000e8       .text                      00000001800010e8     libvips:dmrks01503.o
 0001:000000f0       .text                      00000001800010f0     libvips:dmrks01496.o
 0001:000000f8       .text                      00000001800010f8     libvips:dmrks01930.o
 0001:00000100       .text                      0000000180001100     libvips:dmrks01929.o
 0001:00000108       .text                      0000000180001108     libvips:dmrks01230.o
 0001:00000110       .text                      0000000180001110     libvips:dmrks01674.o
 0001:00000118       .text                      0000000180001118     libvips:dmrks00889.o
 0001:00000120       .text                      0000000180001120     libvips:dmrks00701.o
 0001:00000128       .text                      0000000180001128     libvips:dmrks00940.o
 0001:00000130       .text                      0000000180001130     libvips:dmrks00992.o
 0001:00000138       .text                      0000000180001138     libvips:dmrks00939.o
 0001:00000140       .text                      0000000180001140     libvips:dmrks01175.o
 0001:00000148       .text                      0000000180001148     libvips:dmrks00883.o
 0001:00000150       .text                      0000000180001150     libvips:dmrks01307.o
 0001:00000158       .text                      0000000180001158     libvips:dmrks01919.o
 0001:00000160       .text                      0000000180001160     libvips:dmrks01451.o
 0001:00000168       .text                      0000000180001168     libvips:dmrks01420.o
 0001:00000170       .text                      0000000180001170     libvips:dmrks01659.o
 0001:00000178       .text                      0000000180001178     libvips:dmrks01231.o
 0001:00000180       .text                      0000000180001180     libvips:dmrks01964.o
 0001:00000188       .text                      0000000180001188     libvips:dmrks01186.o
 0001:00000190       .text                      0000000180001190     libvips:dmrks01652.o
 0001:00000198       .text                      0000000180001198     libvips:dmrks01920.o
 0001:000001a0       .text                      00000001800011a0     libvips:dmrks01477.o
 0001:000001a8       .text                      00000001800011a8     libvips:dmrks00870.o
 0001:000001b0       .text                      00000001800011b0     libvips:dmrks01232.o
 0001:000001b8       .text                      00000001800011b8     libvips:dmrks01629.o
 0001:000001c0       .text                      00000001800011c0     libvips:dmrks01229.o
 0001:000001d0       .text                      00000001800011d0     libglib-2.0:dgoks00041.o
 0001:000001e0       .text                      00000001800011e0     libgobject-2.0:dqoks00138.o
 0001:000001e8       .text                      00000001800011e8     libgobject-2.0:dqoks00155.o
 0001:000001f0       .text                      00000001800011f0     libgobject-2.0:dqoks00272.o
 0001:000001f8       .text                      00000001800011f8     libgobject-2.0:dqoks00381.o
 0001:00000200       .text                      0000000180001200     libgobject-2.0:dqoks00399.o
 0001:00000208       .text                      0000000180001208     libgobject-2.0:dqoks00386.o
 0001:00000210       .text                      0000000180001210     libgobject-2.0:dqoks00374.o
 0001:00000218       .text                      0000000180001218     libgobject-2.0:dqoks00390.o
 0001:00000220       .text                      0000000180001220     libgobject-2.0:dqoks00407.o
 0001:00000228       .text                      0000000180001228     libgobject-2.0:dqoks00271.o
 0001:00000230       .text                      0000000180001230     libgobject-2.0:dqoks00359.o
 0001:00000238       .text                      0000000180001238     libgobject-2.0:dqoks00387.o
 0001:00000240       .text                      0000000180001240     libgobject-2.0:dqoks00370.o
 0001:00000248       .text                      0000000180001248     libgobject-2.0:dqoks00396.o
 0001:00000250       .text                      0000000180001250     libgobject-2.0:dqoks00353.o
 0001:00000258       .text                      0000000180001258     libgobject-2.0:dqoks00367.o
 0001:00000260       .text                      0000000180001260     libgobject-2.0:dqoks00391.o
 0001:00000268       .text                      0000000180001268     libgobject-2.0:dqoks00362.o
 0001:00000270       .text                      0000000180001270     libgobject-2.0:dqoks00125.o
 0001:00000278       .text                      0000000180001278     libgobject-2.0:dqoks00422.o
 0001:00000280       .text                      0000000180001280     libgobject-2.0:dqoks00148.o
 0001:00005860       ?set_property@vips@@YAXPEAU_VipsObject@@PEBDPEBU_GValue@@@Z 0000000180006860 f   VImage.obj
 0001:000285b0       $$000000                   00000001800295b0     LIBCMT:_amdsecgs_.obj
 0001:000285ec       ?__scrt_initialize_thread_safe_statics@@YAHXZ 00000001800295ec f   LIBCMT:thread_safe_statics.obj
 0001:0002870c       ?__scrt_uninitialize_thread_safe_statics@@YAXXZ 000000018002970c f   LIBCMT:thread_safe_statics.obj
 0001:00028e0c       ?dllmain_crt_dispatch@@YAHQEAUHINSTANCE__@@KQEAX@Z 0000000180029e0c f   LIBCMT:dll_dllmain.obj
 0001:00028e5c       ?dllmain_crt_process_attach@@YAHQEAUHINSTANCE__@@QEAX@Z 0000000180029e5c f   LIBCMT:dll_dllmain.obj
 0001:00028f88       ?dllmain_crt_process_detach@@YAH_N@Z 0000000180029f88 f   LIBCMT:dll_dllmain.obj
 0001:0002900c       ?dllmain_dispatch@@YAHQEAUHINSTANCE__@@KQEAX@Z 000000018002a00c f   LIBCMT:dll_dllmain.obj
 0001:00029104       ?dllmain_raw@@YAHQEAUHINSTANCE__@@KQEAX@Z 000000018002a104 f   LIBCMT:dll_dllmain.obj
 0001:000293cc       capture_current_context    000000018002a3cc f   LIBCMT:gs_report.obj
 0001:0002943c       capture_previous_context   000000018002a43c f   LIBCMT:gs_report.obj
 0001:00029a20       $$000000                   000000018002aa20     libvcruntime:memcpy.obj
 0001:00029ac7       MoveSmall                  000000018002aac7     libvcruntime:memcpy.obj
 0001:00029f8c       ?CatchIt@@YAXPEAUEHExceptionRecord@@PEA_KPEAU_CONTEXT@@PEAU_xDISPATCHER_CONTEXT@@PEBU_s_FuncInfo@@PEBU_s_HandlerType@@PEBU_s_CatchableType@@PEBU_s_TryBlockMapEntry@@H1EE@Z 000000018002af8c f   libvcruntime:frame.obj
 0001:0002a050       ?ExFilterRethrow@@YAHPEAU_EXCEPTION_POINTERS@@PEAUEHExceptionRecord@@PEAH@Z 000000018002b050 f   libvcruntime:frame.obj
 0001:0002a0d8       ?FindHandler@@YAXPEAUEHExceptionRecord@@PEA_KPEAU_CONTEXT@@PEAU_xDISPATCHER_CONTEXT@@PEBU_s_FuncInfo@@EH1@Z 000000018002b0d8 f   libvcruntime:frame.obj
 0001:0002a5a8       ?FindHandlerForForeignException@@YAXPEAUEHExceptionRecord@@PEA_KPEAU_CONTEXT@@PEAU_xDISPATCHER_CONTEXT@@PEBU_s_FuncInfo@@HH1@Z 000000018002b5a8 f   libvcruntime:frame.obj
 0001:0002a814       ?IsInExceptionSpec@@YAEPEAUEHExceptionRecord@@PEBU_s_ESTypeList@@@Z 000000018002b814 f   libvcruntime:frame.obj
 0001:0002bb74       ?try_get_function@@YAPEAXW4function_id@?A0x679b24ab@@QEBDQEBW4module_id@2@2@Z 000000018002cb74 f   libvcruntime:winapi_downlevel.obj
 0001:0002c230       $$000000                   000000018002d230     libvcruntime:memset.obj
 0001:0002c31c       MsetTab                    000000018002d31c     libvcruntime:memset.obj
 0001:0002c710       $$000000                   000000018002d710     libvcruntime:handlers.obj
 0001:0002c760       $$000000                   000000018002d760     libvcruntime:_jmpuwind_.obj
 0001:0002cdd8       ?atexit_exception_filter@@YAHK@Z 000000018002ddd8 f   libucrt:exit.obj
 0001:0002cde4       ?common_exit@@YAXHW4_crt_exit_cleanup_mode@@W4_crt_exit_return_mode@@@Z 000000018002dde4 f   libucrt:exit.obj
 0001:0002cf50       ?exit_or_terminate_process@@YAXI@Z 000000018002df50 f   libucrt:exit.obj
 0001:0002cf9c       ?try_cor_exit_process@@YAXI@Z 000000018002df9c f   libucrt:exit.obj
 0001:0002d034       ??$parse_command_line@D@@YAXPEADPEAPEAD0PEA_K2@Z 000000018002e034 f   libucrt:argv_parsing.obj
 0001:0002d3cc       ??$common_initialize_environment_nolock@D@@YAHXZ 000000018002e3cc f   libucrt:environment_initialization.obj
 0001:0002d438       ??$create_environment@D@@YAQEAPEADQEAD@Z 000000018002e438 f   libucrt:environment_initialization.obj
 0001:0002d534       ??$free_environment@_W@@YAXQEAPEA_W@Z 000000018002e534 f   libucrt:environment_initialization.obj
 0001:0002d534       ??$free_environment@D@@YAXQEAPEAD@Z 000000018002e534 f   libucrt:environment_initialization.obj
 0001:0002d578       ??$uninitialize_environment_internal@D@@YAXAEAPEAPEAD@Z 000000018002e578 f   libucrt:environment_initialization.obj
 0001:0002d594       ??$uninitialize_environment_internal@_W@@YAXAEAPEAPEA_W@Z 000000018002e594 f   libucrt:environment_initialization.obj
 0001:0002d7cc       ??R<lambda_4e60a939b0d047cfe11ddc22648dfba9>@@QEBAHXZ 000000018002e7cc f   libucrt:onexit.obj
 0001:0002da7c       initialize_global_variables 000000018002ea7c f   libucrt:initialization.obj
 0001:0002da90       initialize_c               000000018002ea90 f   libucrt:initialization.obj
 0001:0002dab4       uninitialize_environment   000000018002eab4 f   libucrt:initialization.obj
 0001:0002dac4       initialize_pointers        000000018002eac4 f   libucrt:initialization.obj
 0001:0002db18       uninitialize_vcruntime     000000018002eb18 f   libucrt:initialization.obj
 0001:0002db20       uninitialize_allocated_memory 000000018002eb20 f   libucrt:initialization.obj
 0001:0002dfd0       ?construct_ptd_array@@YAXQEAU__acrt_ptd@@@Z 000000018002efd0 f   libucrt:per_thread_data.obj
 0001:0002e0a0       ?destroy_fls@@YAXPEAX@Z    000000018002f0a0 f   libucrt:per_thread_data.obj
 0001:0002e0c0       ?destroy_ptd_array@@YAXQEAU__acrt_ptd@@@Z 000000018002f0c0 f   libucrt:per_thread_data.obj
 0001:0002e1b8       ?replace_current_thread_locale_nolock@@YAXQEAU__acrt_ptd@@QEAU__crt_locale_data@@@Z 000000018002f1b8 f   libucrt:per_thread_data.obj
 0001:0002e644       ?try_get_function@@YAPEAXW4function_id@?A0x63058377@@QEBDQEBW4module_id@2@2@Z 000000018002f644 f   libucrt:winapi_thunks.obj
 0001:0002ec28       ?<helper_func_cdecl>@<lambda_2feae5270eb4d0d5532525f423405775>@@CAHPEBX0@Z 000000018002fc28 f   libucrt:argv_wildcards.obj
 0001:0002ec3c       ??$common_expand_argv_wildcards@D@@YAHQEAPEADQEAPEAPEAD@Z 000000018002fc3c f   libucrt:argv_wildcards.obj
 0001:0002ee48       ??$copy_and_add_argument_to_buffer@D@@YAHQEBD0_KAEAV?$argument_list@D@?A0xca0879c4@@@Z 000000018002fe48 f   libucrt:argv_wildcards.obj
 0001:0002ef58       ??$expand_argument_wildcards@D@@YAHQEAD0AEAV?$argument_list@D@?A0xca0879c4@@@Z 000000018002ff58 f   libucrt:argv_wildcards.obj
 0001:0002f20c       ??R<lambda_ad1ced32f4ac17aa236e5ef05d6b3b7c>@@QEBAXXZ 000000018003020c f   libucrt:mbctype.obj
 0001:0002f424       ?getSystemCP@@YAHH@Z       0000000180030424 f   libucrt:mbctype.obj
 0001:0002f4a4       ?setSBCS@@YAXPEAU__crt_multibyte_data@@@Z 00000001800304a4 f   libucrt:mbctype.obj
 0001:0002f534       ?setSBUpLow@@YAXPEAU__crt_multibyte_data@@@Z 0000000180030534 f   libucrt:mbctype.obj
 0001:0002f718       ?setmbcp_internal@@YAHH_N@Z 0000000180030718 f   libucrt:mbctype.obj
 0001:0002fc60       ?x_ismbbtype_l@@YAHPEAU__crt_locale_pointers@@IHH@Z 0000000180030c60 f   libucrt:ismbbyte.obj
 0001:0002fd14       uninitialize_global_state_isolation 0000000180030d14 f   libucrt:initialization.obj
 0001:0002fd14       report_memory_leaks        0000000180030d14 f   libucrt:initialization.obj
 0001:0002fd14       uninitialize_c             0000000180030d14 f   libucrt:initialization.obj
 0001:0002fd14       initialize_environment     0000000180030d14 f   libucrt:initialization.obj
 0001:0002fd14       initialize_global_state_isolation 0000000180030d14 f   libucrt:initialization.obj
 0001:0002fee4       ?initialize_inherited_file_handles_nolock@@YAXXZ 0000000180030ee4 f   libucrt:ioinit.obj
 0001:0002ffd0       ?initialize_stdio_handles_nolock@@YAXXZ 0000000180030fd0 f   libucrt:ioinit.obj
 0001:00030d60       ?__acrt_LCMapStringA_stat@@YAHPEAU__crt_locale_pointers@@PEB_WKPEBDHPEADHHH@Z 0000000180031d60 f   libucrt:lcmapstringa.obj
 0001:000312cc       ?free_crt_array_internal@@YAXQEAPEBX_K@Z 00000001800322cc f   libucrt:inittime.obj
 0001:000315e0       ?GetTableIndexFromLocaleName@@YAHPEB_W@Z 00000001800325e0 f   libucrt:lcidtoname_downlevel.obj
 0001:000316e0       ?shortsort@@YAXPEAD0_KP6AHPEBX2@Z@Z 00000001800326e0 f   libucrt:qsort.obj
 0001:00031cf8       ?initialize_multibyte@@YAHXZ 0000000180032cf8 f   libucrt:multibyte_initializer.obj
 0001:0003221c       common_flush_all           000000018003321c f   libucrt:fflush.obj
 0001:00032534       ?write_double_translated_ansi_nolock@@YA?AUwrite_result@?A0x9c548279@@HQEBDI@Z 0000000180033534 f   libucrt:write.obj
 0001:0003273c       ?write_text_ansi_nolock@@YA?AUwrite_result@?A0x9c548279@@HQEBDI@Z 000000018003373c f   libucrt:write.obj
 0001:00032844       ?write_text_utf16le_nolock@@YA?AUwrite_result@?A0x9c548279@@HQEBDI@Z 0000000180033844 f   libucrt:write.obj
 0001:00032960       ?write_text_utf8_nolock@@YA?AUwrite_result@?A0x9c548279@@HQEBDI@Z 0000000180033960 f   libucrt:write.obj
 0001:00032eb0       $$000000                   0000000180033eb0     libucrt:log10.obj
 0001:0003345c       ??$common_lseek_nolock@_J@@YA_JH_JH@Z 000000018003445c f   libucrt:lseek.obj
 0001:0003364c       _call_matherr              000000018003464c f   libucrt:libm_error.obj
 0001:000336b4       _exception_enabled         00000001800346b4 f   libucrt:libm_error.obj
 0001:00033930       _log_special_common        0000000180034930 f   libucrt:log_special.obj
 0001:00033c40       $$000000                   0000000180034c40     libucrt:fpsr.obj
 0001:000341b0       $$000000                   00000001800351b0     LIBCMT:_chkstk_.obj
 0001:00034220       $$000000                   0000000180035220     libvcruntime:memcmp.obj
 0001:00034380       $$000000                   0000000180035380     LIBCMT:_guard_dispatch_.obj
 0001:000343a0       ?dtor$0@?0??_Makestr@_System_error@std@@CA?AV?$basic_string@DU?$char_traits@D@std@@V?$allocator@D@2@@2@Verror_code@2@V32@@Z@4HA 00000001800353a0 f   VError.obj
 0001:000343ac       ?dtor$1@?0??_Makestr@_System_error@std@@CA?AV?$basic_string@DU?$char_traits@D@std@@V?$allocator@D@2@@2@Verror_code@2@V32@@Z@4HA 00000001800353ac f   VError.obj
 0001:000343c0       ?dtor$0@?0???0system_error@std@@QEAA@Verror_code@1@PEBD@Z@4HA 00000001800353c0 f   VError.obj
 0001:000343d0       ?dtor$0@?0??clear@ios_base@std@@QEAAXH_N@Z@4HA 00000001800353d0 f   VError.obj
 0001:000343dc       ?dtor$1@?0??clear@ios_base@std@@QEAAXH_N@Z@4HA 00000001800353dc f   VError.obj
 0001:000343e8       ?dtor$2@?0??clear@ios_base@std@@QEAAXH_N@Z@4HA 00000001800353e8 f   VError.obj
 0001:00034400       ?dtor$0@?0???0VError@vips@@QEAA@V?$basic_string@DU?$char_traits@D@std@@V?$allocator@D@2@@std@@@Z@4HA 0000000180035400 f   VError.obj
 0001:0003440c       ?dtor$1@?0???0VError@vips@@QEAA@V?$basic_string@DU?$char_traits@D@std@@V?$allocator@D@2@@std@@@Z@4HA 000000018003540c f   VError.obj
 0001:00034420       ?dtor$0@?0???0VError@vips@@QEAA@XZ@4HA 0000000180035420 f   VError.obj
 0001:00034420       ?dtor$0@?0???0VError@vips@@QEAA@AEBV01@@Z@4HA 0000000180035420 f   VError.obj
 0001:00034430       ?dtor$0@?0??get_string@VImage@vips@@QEAAPEBDPEBD@Z@4HA 0000000180035430 f   VError.obj
 0001:00034430       ?dtor$0@?0??get_double@VImage@vips@@QEAANPEBD@Z@4HA 0000000180035430 f   VError.obj
 0001:00034430       ?dtor$0@?0??get_int@VImage@vips@@QEAAHPEBD@Z@4HA 0000000180035430 f   VError.obj
 0001:00034430       ?dtor$1@?0??new_from_memory@VImage@vips@@SA?AV12@PEAX_KHHHW4VipsBandFormat@@@Z@4HA 0000000180035430 f   VError.obj
 0001:00034430       ?dtor$0@?0??get_blob@VImage@vips@@QEAAPEBXPEBDPEA_K@Z@4HA 0000000180035430 f   VError.obj
 0001:00034440       ?dtor$0@?0??option@VImage@vips@@SAPEAVVOption@2@XZ@4HA 0000000180035440 f   VError.obj
 0001:00034460       ?dtor$1@?0??new_matrix@VImage@vips@@SA?AV12@HHPEANH@Z@4HA 0000000180035460 f   VError.obj
 0001:00034460       ?dtor$1@?0??new_temp_file@VImage@vips@@SA?AV12@PEBD@Z@4HA 0000000180035460 f   VError.obj
 0001:00034460       ?dtor$1@?0??new_from_name@VInterpolate@vips@@SA?AV12@PEBDPEAVVOption@2@@Z@4HA 0000000180035460 f   VInterpolate.obj
 0001:00034470       ?dtor$0@?0??write_to_memory@VImage@vips@@QEAAPEAXPEA_K@Z@4HA 0000000180035470 f   VError.obj
 0001:00034480       ?dtor$0@?0??linear@VImage@vips@@QEAA?AV12@NNPEAVVOption@2@@Z@4HA 0000000180035480 f   VError.obj
 0001:00034480       ?dtor$0@?0??ifthenelse@VImage@vips@@QEAA?AV12@NNPEAVVOption@2@@Z@4HA 0000000180035480 f   VError.obj
 0001:00034490       ?dtor$0@?0??linear@VImage@vips@@QEAA?AV12@V?$vector@NV?$allocator@N@std@@@std@@NPEAVVOption@2@@Z@4HA 0000000180035490 f   VError.obj
 0001:0003449c       ?dtor$1@?0??linear@VImage@vips@@QEAA?AV12@V?$vector@NV?$allocator@N@std@@@std@@NPEAVVOption@2@@Z@4HA 000000018003549c f   VError.obj
 0001:000344b0       ?dtor$0@?0??linear@VImage@vips@@QEAA?AV12@NV?$vector@NV?$allocator@N@std@@@std@@PEAVVOption@2@@Z@4HA 00000001800354b0 f   VError.obj
 0001:000344bc       ?dtor$1@?0??linear@VImage@vips@@QEAA?AV12@NV?$vector@NV?$allocator@N@std@@@std@@PEAVVOption@2@@Z@4HA 00000001800354bc f   VError.obj
 0001:000344d0       ?dtor$0@?0??bandjoin@VImage@vips@@QEAA?AV12@V?$vector@NV?$allocator@N@std@@@std@@PEAVVOption@2@@Z@4HA 00000001800354d0 f   VError.obj
 0001:000344e0       ?dtor$0@?0??wop@VImage@vips@@QEAA?AV12@V12@PEAVVOption@2@@Z@4HA 00000001800354e0 f   VError.obj
 0001:000344e0       ?dtor$0@?0??erode@VImage@vips@@QEAA?AV12@V12@PEAVVOption@2@@Z@4HA 00000001800354e0 f   VError.obj
 0001:000344e0       ?dtor$0@?0??set@VOption@vips@@QEAAPEAV12@PEBDVVInterpolate@2@@Z@4HA 00000001800354e0 f   VInterpolate.obj
 0001:000344e0       ?dtor$0@?0??set@VOption@vips@@QEAAPEAV12@PEBDVVImage@2@@Z@4HA 00000001800354e0 f   VImage.obj
 0001:000344e0       ?dtor$0@?0??pow@VImage@vips@@QEAA?AV12@V12@PEAVVOption@2@@Z@4HA 00000001800354e0 f   VError.obj
 0001:000344e0       ?dtor$0@?0??dilate@VImage@vips@@QEAA?AV12@V12@PEAVVOption@2@@Z@4HA 00000001800354e0 f   VError.obj
 0001:000344f0       ?dtor$0@?0??wop@VImage@vips@@QEAA?AV12@V?$vector@NV?$allocator@N@std@@@std@@PEAVVOption@2@@Z@4HA 00000001800354f0 f   VError.obj
 0001:000344f0       ?dtor$0@?0??pow@VImage@vips@@QEAA?AV12@V?$vector@NV?$allocator@N@std@@@std@@PEAVVOption@2@@Z@4HA 00000001800354f0 f   VError.obj
 0001:00034500       ?dtor$0@?0??ifthenelse@VImage@vips@@QEAA?AV12@V?$vector@NV?$allocator@N@std@@@std@@V12@PEAVVOption@2@@Z@4HA 0000000180035500 f   VError.obj
 0001:0003450c       ?dtor$1@?0??ifthenelse@VImage@vips@@QEAA?AV12@V?$vector@NV?$allocator@N@std@@@std@@V12@PEAVVOption@2@@Z@4HA 000000018003550c f   VError.obj
 0001:00034518       ?dtor$2@?0??ifthenelse@VImage@vips@@QEAA?AV12@V?$vector@NV?$allocator@N@std@@@std@@V12@PEAVVOption@2@@Z@4HA 0000000180035518 f   VError.obj
 0001:00034530       ?dtor$0@?0??ifthenelse@VImage@vips@@QEAA?AV12@V12@V?$vector@NV?$allocator@N@std@@@std@@PEAVVOption@2@@Z@4HA 0000000180035530 f   VError.obj
 0001:0003453c       ?dtor$1@?0??ifthenelse@VImage@vips@@QEAA?AV12@V12@V?$vector@NV?$allocator@N@std@@@std@@PEAVVOption@2@@Z@4HA 000000018003553c f   VError.obj
 0001:00034550       ?dtor$0@?0??ifthenelse@VImage@vips@@QEAA?AV12@V?$vector@NV?$allocator@N@std@@@std@@0PEAVVOption@2@@Z@4HA 0000000180035550 f   VError.obj
 0001:0003455c       ?dtor$1@?0??ifthenelse@VImage@vips@@QEAA?AV12@V?$vector@NV?$allocator@N@std@@@std@@0PEAVVOption@2@@Z@4HA 000000018003555c f   VError.obj
 0001:00034568       ?dtor$3@?0??ifthenelse@VImage@vips@@QEAA?AV12@V?$vector@NV?$allocator@N@std@@@std@@0PEAVVOption@2@@Z@4HA 0000000180035568 f   VError.obj
 0001:00034580       ?dtor$0@?0??ifthenelse@VImage@vips@@QEAA?AV12@NV12@PEAVVOption@2@@Z@4HA 0000000180035580 f   VError.obj
 0001:0003458c       ?dtor$1@?0??ifthenelse@VImage@vips@@QEAA?AV12@NV12@PEAVVOption@2@@Z@4HA 000000018003558c f   VError.obj
 0001:000345a0       ?dtor$0@?0??ifthenelse@VImage@vips@@QEAA?AV12@V12@NPEAVVOption@2@@Z@4HA 00000001800355a0 f   VError.obj
 0001:000345b0       ?dtor$0@?0???0?$list@PEAUPair@VOption@vips@@V?$allocator@PEAUPair@VOption@vips@@@std@@@std@@QEAA@AEBV01@@Z@4HA 00000001800355b0 f   VError.obj
 0001:000345c0       ?dtor$1@?0???$?6DU?$char_traits@D@std@@V?$allocator@D@1@@std@@YAAEAV?$basic_ostream@DU?$char_traits@D@std@@@0@AEAV10@AEBV?$basic_string@DU?$char_traits@D@std@@V?$allocator@D@2@@0@@Z@4HA 00000001800355c0 f   VError.obj
 0001:000345cc       ?dtor$0@?0???$?6DU?$char_traits@D@std@@V?$allocator@D@1@@std@@YAAEAV?$basic_ostream@DU?$char_traits@D@std@@@0@AEAV10@AEBV?$basic_string@DU?$char_traits@D@std@@V?$allocator@D@2@@0@@Z@4HA 00000001800355cc f   VError.obj
 0001:000345e0       ?dtor$0@?0???0sentry@?$basic_ostream@DU?$char_traits@D@std@@@std@@QEAA@AEAV12@@Z@4HA 00000001800355e0 f   VError.obj
 0001:000345f0       ?dtor$0@?0??flush@?$basic_ostream@DU?$char_traits@D@std@@@std@@QEAAAEAV12@XZ@4HA 00000001800355f0 f   VError.obj
 0001:00034600       ?dtor$0@?0??negate@vips@@YA?AV?$vector@NV?$allocator@N@std@@@std@@V23@@Z@4HA 0000000180035600 f   VImage.obj
 0001:00034600       ?dtor$0@?0??invert@vips@@YA?AV?$vector@NV?$allocator@N@std@@@std@@V23@@Z@4HA 0000000180035600 f   VImage.obj
 0001:00034610       ?dtor$0@?0??set@VOption@vips@@QEAAPEAV12@PEBDV?$vector@NV?$allocator@N@std@@@std@@@Z@4HA 0000000180035610 f   VImage.obj
 0001:00034620       ?dtor$0@?0??set@VOption@vips@@QEAAPEAV12@PEBDV?$vector@VVImage@vips@@V?$allocator@VVImage@vips@@@std@@@std@@@Z@4HA 0000000180035620 f   VImage.obj
 0001:00034630       ?dtor$0@?0??call_option_string@VImage@vips@@SAXPEBD0PEAVVOption@2@@Z@4HA 0000000180035630 f   VImage.obj
 0001:0003463c       ?dtor$2@?0??call_option_string@VImage@vips@@SAXPEBD0PEAVVOption@2@@Z@4HA 000000018003563c f   VImage.obj
 0001:00034648       ?dtor$4@?0??call_option_string@VImage@vips@@SAXPEBD0PEAVVOption@2@@Z@4HA 0000000180035648 f   VImage.obj
 0001:00034660       ?dtor$0@?0??new_from_file@VImage@vips@@SA?AV12@PEBDPEAVVOption@2@@Z@4HA 0000000180035660 f   VImage.obj
 0001:00034686       ?dtor$1@?0??new_from_file@VImage@vips@@SA?AV12@PEBDPEAVVOption@2@@Z@4HA 0000000180035686 f   VImage.obj
 0001:000346a0       ?dtor$0@?0??new_from_buffer@VImage@vips@@SA?AV12@PEAX_KPEBDPEAVVOption@2@@Z@4HA 00000001800356a0 f   VImage.obj
 0001:000346c6       ?dtor$1@?0??new_from_buffer@VImage@vips@@SA?AV12@PEAX_KPEBDPEAVVOption@2@@Z@4HA 00000001800356c6 f   VImage.obj
 0001:000346e0       ?dtor$0@?0??new_from_image@VImage@vips@@QEAA?AV12@V?$vector@NV?$allocator@N@std@@@std@@@Z@4HA 00000001800356e0 f   VImage.obj
 0001:000346ec       ?dtor$1@?0??new_from_image@VImage@vips@@QEAA?AV12@V?$vector@NV?$allocator@N@std@@@std@@@Z@4HA 00000001800356ec f   VImage.obj
 0001:000346f8       ?dtor$4@?0??new_from_image@VImage@vips@@QEAA?AV12@V?$vector@NV?$allocator@N@std@@@std@@@Z@4HA 00000001800356f8 f   VImage.obj
 0001:00034704       ?dtor$6@?0??new_from_image@VImage@vips@@QEAA?AV12@V?$vector@NV?$allocator@N@std@@@std@@@Z@4HA 0000000180035704 f   VImage.obj
 0001:00034730       ?dtor$0@?0??write@VImage@vips@@QEAA?AV12@V12@@Z@4HA 0000000180035730 f   VImage.obj
 0001:0003473c       ?dtor$2@?0??write@VImage@vips@@QEAA?AV12@V12@@Z@4HA 000000018003573c f   VImage.obj
 0001:00034750       ?dtor$1@?0??write_to_file@VImage@vips@@QEAAXPEBDPEAVVOption@2@@Z@4HA 0000000180035750 f   VImage.obj
 0001:00034760       ?dtor$1@?0??write_to_buffer@VImage@vips@@QEAAXPEBDPEAPEAXPEA_KPEAVVOption@2@@Z@4HA 0000000180035760 f   VImage.obj
 0001:00034770       ?dtor$0@?0??hist_match@VImage@vips@@QEAA?AV12@V12@PEAVVOption@2@@Z@4HA 0000000180035770 f   VImage.obj
 0001:00034770       ?dtor$0@?0??hist_find_indexed@VImage@vips@@QEAA?AV12@V12@PEAVVOption@2@@Z@4HA 0000000180035770 f   VImage.obj
 0001:00034770       ?dtor$0@?0??freqmult@VImage@vips@@QEAA?AV12@V12@PEAVVOption@2@@Z@4HA 0000000180035770 f   VImage.obj
 0001:00034770       ?dtor$0@?0??fastcor@VImage@vips@@QEAA?AV12@V12@PEAVVOption@2@@Z@4HA 0000000180035770 f   VImage.obj
 0001:00034770       ?dtor$0@?0??divide@VImage@vips@@QEAA?AV12@V12@PEAVVOption@2@@Z@4HA 0000000180035770 f   VImage.obj
 0001:00034770       ?dtor$0@?0??remainder@VImage@vips@@QEAA?AV12@V12@PEAVVOption@2@@Z@4HA 0000000180035770 f   VImage.obj
 0001:00034770       ?dtor$0@?0??dE76@VImage@vips@@QEAA?AV12@V12@PEAVVOption@2@@Z@4HA 0000000180035770 f   VImage.obj
 0001:00034770       ?dtor$0@?0??dE00@VImage@vips@@QEAA?AV12@V12@PEAVVOption@2@@Z@4HA 0000000180035770 f   VImage.obj
 0001:00034770       ?dtor$0@?0??complexform@VImage@vips@@QEAA?AV12@V12@PEAVVOption@2@@Z@4HA 0000000180035770 f   VImage.obj
 0001:00034770       ?dtor$0@?0??spcor@VImage@vips@@QEAA?AV12@V12@PEAVVOption@2@@Z@4HA 0000000180035770 f   VImage.obj
 0001:00034770       ?dtor$0@?0??add@VImage@vips@@QEAA?AV12@V12@PEAVVOption@2@@Z@4HA 0000000180035770 f   VImage.obj
 0001:00034770       ?dtor$0@?0??multiply@VImage@vips@@QEAA?AV12@V12@PEAVVOption@2@@Z@4HA 0000000180035770 f   VImage.obj
 0001:00034770       ?dtor$0@?0??subtract@VImage@vips@@QEAA?AV12@V12@PEAVVOption@2@@Z@4HA 0000000180035770 f   VImage.obj
 0001:00034770       ?dtor$0@?0??dECMC@VImage@vips@@QEAA?AV12@V12@PEAVVOption@2@@Z@4HA 0000000180035770 f   VImage.obj
 0001:00034770       ?dtor$0@?0??phasecor@VImage@vips@@QEAA?AV12@V12@PEAVVOption@2@@Z@4HA 0000000180035770 f   VImage.obj
 0001:0003477c       ?dtor$1@?0??multiply@VImage@vips@@QEAA?AV12@V12@PEAVVOption@2@@Z@4HA 000000018003577c f   VImage.obj
 0001:0003477c       ?dtor$1@?0??hist_match@VImage@vips@@QEAA?AV12@V12@PEAVVOption@2@@Z@4HA 000000018003577c f   VImage.obj
 0001:0003477c       ?dtor$1@?0??phasecor@VImage@vips@@QEAA?AV12@V12@PEAVVOption@2@@Z@4HA 000000018003577c f   VImage.obj
 0001:0003477c       ?dtor$1@?0??remainder@VImage@vips@@QEAA?AV12@V12@PEAVVOption@2@@Z@4HA 000000018003577c f   VImage.obj
 0001:0003477c       ?dtor$1@?0??spcor@VImage@vips@@QEAA?AV12@V12@PEAVVOption@2@@Z@4HA 000000018003577c f   VImage.obj
 0001:0003477c       ?dtor$1@?0??subtract@VImage@vips@@QEAA?AV12@V12@PEAVVOption@2@@Z@4HA 000000018003577c f   VImage.obj
 0001:0003477c       ?dtor$1@?0??hist_find_indexed@VImage@vips@@QEAA?AV12@V12@PEAVVOption@2@@Z@4HA 000000018003577c f   VImage.obj
 0001:0003477c       ?dtor$1@?0??freqmult@VImage@vips@@QEAA?AV12@V12@PEAVVOption@2@@Z@4HA 000000018003577c f   VImage.obj
 0001:0003477c       ?dtor$1@?0??fastcor@VImage@vips@@QEAA?AV12@V12@PEAVVOption@2@@Z@4HA 000000018003577c f   VImage.obj
 0001:0003477c       ?dtor$1@?0??add@VImage@vips@@QEAA?AV12@V12@PEAVVOption@2@@Z@4HA 000000018003577c f   VImage.obj
 0001:0003477c       ?dtor$1@?0??complexform@VImage@vips@@QEAA?AV12@V12@PEAVVOption@2@@Z@4HA 000000018003577c f   VImage.obj
 0001:0003477c       ?dtor$1@?0??dE00@VImage@vips@@QEAA?AV12@V12@PEAVVOption@2@@Z@4HA 000000018003577c f   VImage.obj
 0001:0003477c       ?dtor$1@?0??dE76@VImage@vips@@QEAA?AV12@V12@PEAVVOption@2@@Z@4HA 000000018003577c f   VImage.obj
 0001:0003477c       ?dtor$1@?0??dECMC@VImage@vips@@QEAA?AV12@V12@PEAVVOption@2@@Z@4HA 000000018003577c f   VImage.obj
 0001:0003477c       ?dtor$1@?0??divide@VImage@vips@@QEAA?AV12@V12@PEAVVOption@2@@Z@4HA 000000018003577c f   VImage.obj
 0001:000347a5       ?dtor$2@?0??phasecor@VImage@vips@@QEAA?AV12@V12@PEAVVOption@2@@Z@4HA 00000001800357a5 f   VImage.obj
 0001:000347a5       ?dtor$2@?0??spcor@VImage@vips@@QEAA?AV12@V12@PEAVVOption@2@@Z@4HA 00000001800357a5 f   VImage.obj
 0001:000347a5       ?dtor$2@?0??subtract@VImage@vips@@QEAA?AV12@V12@PEAVVOption@2@@Z@4HA 00000001800357a5 f   VImage.obj
 0001:000347a5       ?dtor$2@?0??hist_match@VImage@vips@@QEAA?AV12@V12@PEAVVOption@2@@Z@4HA 00000001800357a5 f   VImage.obj
 0001:000347a5       ?dtor$2@?0??hist_find_indexed@VImage@vips@@QEAA?AV12@V12@PEAVVOption@2@@Z@4HA 00000001800357a5 f   VImage.obj
 0001:000347a5       ?dtor$2@?0??freqmult@VImage@vips@@QEAA?AV12@V12@PEAVVOption@2@@Z@4HA 00000001800357a5 f   VImage.obj
 0001:000347a5       ?dtor$2@?0??fastcor@VImage@vips@@QEAA?AV12@V12@PEAVVOption@2@@Z@4HA 00000001800357a5 f   VImage.obj
 0001:000347a5       ?dtor$2@?0??divide@VImage@vips@@QEAA?AV12@V12@PEAVVOption@2@@Z@4HA 00000001800357a5 f   VImage.obj
 0001:000347a5       ?dtor$2@?0??dECMC@VImage@vips@@QEAA?AV12@V12@PEAVVOption@2@@Z@4HA 00000001800357a5 f   VImage.obj
 0001:000347a5       ?dtor$2@?0??dE76@VImage@vips@@QEAA?AV12@V12@PEAVVOption@2@@Z@4HA 00000001800357a5 f   VImage.obj
 0001:000347a5       ?dtor$2@?0??dE00@VImage@vips@@QEAA?AV12@V12@PEAVVOption@2@@Z@4HA 00000001800357a5 f   VImage.obj
 0001:000347a5       ?dtor$2@?0??complexform@VImage@vips@@QEAA?AV12@V12@PEAVVOption@2@@Z@4HA 00000001800357a5 f   VImage.obj
 0001:000347a5       ?dtor$2@?0??add@VImage@vips@@QEAA?AV12@V12@PEAVVOption@2@@Z@4HA 00000001800357a5 f   VImage.obj
 0001:000347a5       ?dtor$2@?0??remainder@VImage@vips@@QEAA?AV12@V12@PEAVVOption@2@@Z@4HA 00000001800357a5 f   VImage.obj
 0001:000347a5       ?dtor$2@?0??multiply@VImage@vips@@QEAA?AV12@V12@PEAVVOption@2@@Z@4HA 00000001800357a5 f   VImage.obj
 0001:000347c0       ?dtor$0@?0??insert@VImage@vips@@QEAA?AV12@V12@HHPEAVVOption@2@@Z@4HA 00000001800357c0 f   VImage.obj
 0001:000347c0       ?dtor$0@?0??relational@VImage@vips@@QEAA?AV12@V12@W4VipsOperationRelational@@PEAVVOption@2@@Z@4HA 00000001800357c0 f   VImage.obj
 0001:000347c0       ?dtor$0@?0??mosaic@VImage@vips@@QEAA?AV12@V12@W4VipsDirection@@HHHHPEAVVOption@2@@Z@4HA 00000001800357c0 f   VImage.obj
 0001:000347c0       ?dtor$0@?0??boolean@VImage@vips@@QEAA?AV12@V12@W4VipsOperationBoolean@@PEAVVOption@2@@Z@4HA 00000001800357c0 f   VImage.obj
 0001:000347c0       ?dtor$0@?0??join@VImage@vips@@QEAA?AV12@V12@W4VipsDirection@@PEAVVOption@2@@Z@4HA 00000001800357c0 f   VImage.obj
 0001:000347c0       ?dtor$0@?0??morph@VImage@vips@@QEAA?AV12@V12@W4VipsOperationMorphology@@PEAVVOption@2@@Z@4HA 00000001800357c0 f   VImage.obj
 0001:000347c0       ?dtor$0@?0??merge@VImage@vips@@QEAA?AV12@V12@W4VipsDirection@@HHPEAVVOption@2@@Z@4HA 00000001800357c0 f   VImage.obj
 0001:000347c0       ?dtor$0@?0??math2@VImage@vips@@QEAA?AV12@V12@W4VipsOperationMath2@@PEAVVOption@2@@Z@4HA 00000001800357c0 f   VImage.obj
 0001:000347c0       ?dtor$0@?0??match@VImage@vips@@QEAA?AV12@V12@HHHHHHHHPEAVVOption@2@@Z@4HA 00000001800357c0 f   VImage.obj
 0001:000347c0       ?dtor$0@?0??complex2@VImage@vips@@QEAA?AV12@V12@W4VipsOperationComplex2@@PEAVVOption@2@@Z@4HA 00000001800357c0 f   VImage.obj
 0001:000347c0       ?dtor$0@?0??mosaic1@VImage@vips@@QEAA?AV12@V12@W4VipsDirection@@HHHHHHHHPEAVVOption@2@@Z@4HA 00000001800357c0 f   VImage.obj
 0001:000347cc       ?dtor$1@?0??merge@VImage@vips@@QEAA?AV12@V12@W4VipsDirection@@HHPEAVVOption@2@@Z@4HA 00000001800357cc f   VImage.obj
 0001:000347cc       ?dtor$1@?0??insert@VImage@vips@@QEAA?AV12@V12@HHPEAVVOption@2@@Z@4HA 00000001800357cc f   VImage.obj
 0001:000347cc       ?dtor$1@?0??match@VImage@vips@@QEAA?AV12@V12@HHHHHHHHPEAVVOption@2@@Z@4HA 00000001800357cc f   VImage.obj
 0001:000347cc       ?dtor$1@?0??complex2@VImage@vips@@QEAA?AV12@V12@W4VipsOperationComplex2@@PEAVVOption@2@@Z@4HA 00000001800357cc f   VImage.obj
 0001:000347cc       ?dtor$1@?0??mosaic@VImage@vips@@QEAA?AV12@V12@W4VipsDirection@@HHHHPEAVVOption@2@@Z@4HA 00000001800357cc f   VImage.obj
 0001:000347cc       ?dtor$1@?0??join@VImage@vips@@QEAA?AV12@V12@W4VipsDirection@@PEAVVOption@2@@Z@4HA 00000001800357cc f   VImage.obj
 0001:000347cc       ?dtor$1@?0??morph@VImage@vips@@QEAA?AV12@V12@W4VipsOperationMorphology@@PEAVVOption@2@@Z@4HA 00000001800357cc f   VImage.obj
 0001:000347cc       ?dtor$1@?0??relational@VImage@vips@@QEAA?AV12@V12@W4VipsOperationRelational@@PEAVVOption@2@@Z@4HA 00000001800357cc f   VImage.obj
 0001:000347cc       ?dtor$1@?0??boolean@VImage@vips@@QEAA?AV12@V12@W4VipsOperationBoolean@@PEAVVOption@2@@Z@4HA 00000001800357cc f   VImage.obj
 0001:000347cc       ?dtor$1@?0??math2@VImage@vips@@QEAA?AV12@V12@W4VipsOperationMath2@@PEAVVOption@2@@Z@4HA 00000001800357cc f   VImage.obj
 0001:000347cc       ?dtor$1@?0??mosaic1@VImage@vips@@QEAA?AV12@V12@W4VipsDirection@@HHHHHHHHPEAVVOption@2@@Z@4HA 00000001800357cc f   VImage.obj
 0001:000347f5       ?dtor$2@?0??boolean@VImage@vips@@QEAA?AV12@V12@W4VipsOperationBoolean@@PEAVVOption@2@@Z@4HA 00000001800357f5 f   VImage.obj
 0001:000347f5       ?dtor$2@?0??math2@VImage@vips@@QEAA?AV12@V12@W4VipsOperationMath2@@PEAVVOption@2@@Z@4HA 00000001800357f5 f   VImage.obj
 0001:000347f5       ?dtor$2@?0??mosaic@VImage@vips@@QEAA?AV12@V12@W4VipsDirection@@HHHHPEAVVOption@2@@Z@4HA 00000001800357f5 f   VImage.obj
 0001:000347f5       ?dtor$2@?0??insert@VImage@vips@@QEAA?AV12@V12@HHPEAVVOption@2@@Z@4HA 00000001800357f5 f   VImage.obj
 0001:000347f5       ?dtor$2@?0??mosaic1@VImage@vips@@QEAA?AV12@V12@W4VipsDirection@@HHHHHHHHPEAVVOption@2@@Z@4HA 00000001800357f5 f   VImage.obj
 0001:000347f5       ?dtor$2@?0??complex2@VImage@vips@@QEAA?AV12@V12@W4VipsOperationComplex2@@PEAVVOption@2@@Z@4HA 00000001800357f5 f   VImage.obj
 0001:000347f5       ?dtor$2@?0??relational@VImage@vips@@QEAA?AV12@V12@W4VipsOperationRelational@@PEAVVOption@2@@Z@4HA 00000001800357f5 f   VImage.obj
 0001:000347f5       ?dtor$2@?0??join@VImage@vips@@QEAA?AV12@V12@W4VipsDirection@@PEAVVOption@2@@Z@4HA 00000001800357f5 f   VImage.obj
 0001:000347f5       ?dtor$2@?0??morph@VImage@vips@@QEAA?AV12@V12@W4VipsOperationMorphology@@PEAVVOption@2@@Z@4HA 00000001800357f5 f   VImage.obj
 0001:000347f5       ?dtor$2@?0??match@VImage@vips@@QEAA?AV12@V12@HHHHHHHHPEAVVOption@2@@Z@4HA 00000001800357f5 f   VImage.obj
 0001:000347f5       ?dtor$2@?0??merge@VImage@vips@@QEAA?AV12@V12@W4VipsDirection@@HHPEAVVOption@2@@Z@4HA 00000001800357f5 f   VImage.obj
 0001:00034810       ?dtor$0@?0??bandjoin@VImage@vips@@SA?AV12@V?$vector@VVImage@vips@@V?$allocator@VVImage@vips@@@std@@@std@@PEAVVOption@2@@Z@4HA 0000000180035810 f   VImage.obj
 0001:00034810       ?dtor$0@?0??arrayjoin@VImage@vips@@SA?AV12@V?$vector@VVImage@vips@@V?$allocator@VVImage@vips@@@std@@@std@@PEAVVOption@2@@Z@4HA 0000000180035810 f   VImage.obj
 0001:00034810       ?dtor$0@?0??sum@VImage@vips@@SA?AV12@V?$vector@VVImage@vips@@V?$allocator@VVImage@vips@@@std@@@std@@PEAVVOption@2@@Z@4HA 0000000180035810 f   VImage.obj
 0001:00034810       ?dtor$0@?0??bandrank@VImage@vips@@SA?AV12@V?$vector@VVImage@vips@@V?$allocator@VVImage@vips@@@std@@@std@@PEAVVOption@2@@Z@4HA 0000000180035810 f   VImage.obj
 0001:0003481c       ?dtor$1@?0??bandrank@VImage@vips@@SA?AV12@V?$vector@VVImage@vips@@V?$allocator@VVImage@vips@@@std@@@std@@PEAVVOption@2@@Z@4HA 000000018003581c f   VImage.obj
 0001:0003481c       ?dtor$1@?0??arrayjoin@VImage@vips@@SA?AV12@V?$vector@VVImage@vips@@V?$allocator@VVImage@vips@@@std@@@std@@PEAVVOption@2@@Z@4HA 000000018003581c f   VImage.obj
 0001:0003481c       ?dtor$1@?0??bandjoin@VImage@vips@@SA?AV12@V?$vector@VVImage@vips@@V?$allocator@VVImage@vips@@@std@@@std@@PEAVVOption@2@@Z@4HA 000000018003581c f   VImage.obj
 0001:0003481c       ?dtor$1@?0??sum@VImage@vips@@SA?AV12@V?$vector@VVImage@vips@@V?$allocator@VVImage@vips@@@std@@@std@@PEAVVOption@2@@Z@4HA 000000018003581c f   VImage.obj
 0001:00034850       ?dtor$0@?0??float2rad@VImage@vips@@QEAA?AV12@PEAVVOption@2@@Z@4HA 0000000180035850 f   VImage.obj
 0001:00034850       ?dtor$0@?0??hist_cum@VImage@vips@@QEAA?AV12@PEAVVOption@2@@Z@4HA 0000000180035850 f   VImage.obj
 0001:00034850       ?dtor$0@?0??rad2float@VImage@vips@@QEAA?AV12@PEAVVOption@2@@Z@4HA 0000000180035850 f   VImage.obj
 0001:00034850       ?dtor$0@?0??msb@VImage@vips@@QEAA?AV12@PEAVVOption@2@@Z@4HA 0000000180035850 f   VImage.obj
 0001:00034850       ?dtor$0@?0??invert@VImage@vips@@QEAA?AV12@PEAVVOption@2@@Z@4HA 0000000180035850 f   VImage.obj
 0001:00034850       ?dtor$0@?0??LabQ2Lab@VImage@vips@@QEAA?AV12@PEAVVOption@2@@Z@4HA 0000000180035850 f   VImage.obj
 0001:00034850       ?dtor$0@?0??gamma@VImage@vips@@QEAA?AV12@PEAVVOption@2@@Z@4HA 0000000180035850 f   VImage.obj
 0001:00034850       ?dtor$0@?0??globalbalance@VImage@vips@@QEAA?AV12@PEAVVOption@2@@Z@4HA 0000000180035850 f   VImage.obj
 0001:00034850       ?dtor$0@?0??invertlut@VImage@vips@@QEAA?AV12@PEAVVOption@2@@Z@4HA 0000000180035850 f   VImage.obj
 0001:00034850       ?dtor$0@?0??invfft@VImage@vips@@QEAA?AV12@PEAVVOption@2@@Z@4HA 0000000180035850 f   VImage.obj
 0001:00034850       ?dtor$0@?0??fwfft@VImage@vips@@QEAA?AV12@PEAVVOption@2@@Z@4HA 0000000180035850 f   VImage.obj
 0001:00034850       ?dtor$0@?0??falsecolour@VImage@vips@@QEAA?AV12@PEAVVOption@2@@Z@4HA 0000000180035850 f   VImage.obj
 0001:00034850       ?dtor$0@?0??icc_import@VImage@vips@@QEAA?AV12@PEAVVOption@2@@Z@4HA 0000000180035850 f   VImage.obj
 0001:00034850       ?dtor$0@?0??labelregions@VImage@vips@@QEAA?AV12@PEAVVOption@2@@Z@4HA 0000000180035850 f   VImage.obj
 0001:00034850       ?dtor$0@?0??Yxy2XYZ@VImage@vips@@QEAA?AV12@PEAVVOption@2@@Z@4HA 0000000180035850 f   VImage.obj
 0001:00034850       ?dtor$0@?0??Lab2XYZ@VImage@vips@@QEAA?AV12@PEAVVOption@2@@Z@4HA 0000000180035850 f   VImage.obj
 0001:00034850       ?dtor$0@?0??sRGB2HSV@VImage@vips@@QEAA?AV12@PEAVVOption@2@@Z@4HA 0000000180035850 f   VImage.obj
 0001:00034850       ?dtor$0@?0??sRGB2scRGB@VImage@vips@@QEAA?AV12@PEAVVOption@2@@Z@4HA 0000000180035850 f   VImage.obj
 0001:00034850       ?dtor$0@?0??buildlut@VImage@vips@@QEAA?AV12@PEAVVOption@2@@Z@4HA 0000000180035850 f   VImage.obj
 0001:00034850       ?dtor$0@?0??scRGB2BW@VImage@vips@@QEAA?AV12@PEAVVOption@2@@Z@4HA 0000000180035850 f   VImage.obj
 0001:00034850       ?dtor$0@?0??hist_find@VImage@vips@@QEAA?AV12@PEAVVOption@2@@Z@4HA 0000000180035850 f   VImage.obj
 0001:00034850       ?dtor$0@?0??scRGB2XYZ@VImage@vips@@QEAA?AV12@PEAVVOption@2@@Z@4HA 0000000180035850 f   VImage.obj
 0001:00034850       ?dtor$0@?0??icc_export@VImage@vips@@QEAA?AV12@PEAVVOption@2@@Z@4HA 0000000180035850 f   VImage.obj
 0001:00034850       ?dtor$0@?0??hist_equal@VImage@vips@@QEAA?AV12@PEAVVOption@2@@Z@4HA 0000000180035850 f   VImage.obj
 0001:00034850       ?dtor$0@?0??hough_line@VImage@vips@@QEAA?AV12@PEAVVOption@2@@Z@4HA 0000000180035850 f   VImage.obj
 0001:00034850       ?dtor$0@?0??scRGB2sRGB@VImage@vips@@QEAA?AV12@PEAVVOption@2@@Z@4HA 0000000180035850 f   VImage.obj
 0001:00034850       ?dtor$0@?0??bandmean@VImage@vips@@QEAA?AV12@PEAVVOption@2@@Z@4HA 0000000180035850 f   VImage.obj
 0001:00034850       ?dtor$0@?0??Lab2LabS@VImage@vips@@QEAA?AV12@PEAVVOption@2@@Z@4HA 0000000180035850 f   VImage.obj
 0001:00034850       ?dtor$0@?0??Lab2LabQ@VImage@vips@@QEAA?AV12@PEAVVOption@2@@Z@4HA 0000000180035850 f   VImage.obj
 0001:00034850       ?dtor$0@?0??LabQ2sRGB@VImage@vips@@QEAA?AV12@PEAVVOption@2@@Z@4HA 0000000180035850 f   VImage.obj
 0001:00034850       ?dtor$0@?0??XYZ2scRGB@VImage@vips@@QEAA?AV12@PEAVVOption@2@@Z@4HA 0000000180035850 f   VImage.obj
 0001:00034850       ?dtor$0@?0??Lab2LCh@VImage@vips@@QEAA?AV12@PEAVVOption@2@@Z@4HA 0000000180035850 f   VImage.obj
 0001:00034850       ?dtor$0@?0??LabS2Lab@VImage@vips@@QEAA?AV12@PEAVVOption@2@@Z@4HA 0000000180035850 f   VImage.obj
 0001:00034850       ?dtor$0@?0??sharpen@VImage@vips@@QEAA?AV12@PEAVVOption@2@@Z@4HA 0000000180035850 f   VImage.obj
 0001:00034850       ?dtor$0@?0??hist_find_ndim@VImage@vips@@QEAA?AV12@PEAVVOption@2@@Z@4HA 0000000180035850 f   VImage.obj
 0001:00034850       ?dtor$0@?0??hough_circle@VImage@vips@@QEAA?AV12@PEAVVOption@2@@Z@4HA 0000000180035850 f   VImage.obj
 0001:00034850       ?dtor$0@?0??hist_plot@VImage@vips@@QEAA?AV12@PEAVVOption@2@@Z@4HA 0000000180035850 f   VImage.obj
 0001:00034850       ?dtor$0@?0??hist_norm@VImage@vips@@QEAA?AV12@PEAVVOption@2@@Z@4HA 0000000180035850 f   VImage.obj
 0001:00034850       ?dtor$0@?0??LabS2LabQ@VImage@vips@@QEAA?AV12@PEAVVOption@2@@Z@4HA 0000000180035850 f   VImage.obj
 0001:00034850       ?dtor$0@?0??CMC2LCh@VImage@vips@@QEAA?AV12@PEAVVOption@2@@Z@4HA 0000000180035850 f   VImage.obj
 0001:00034850       ?dtor$0@?0??XYZ2Yxy@VImage@vips@@QEAA?AV12@PEAVVOption@2@@Z@4HA 0000000180035850 f   VImage.obj
 0001:00034850       ?dtor$0@?0??HSV2sRGB@VImage@vips@@QEAA?AV12@PEAVVOption@2@@Z@4HA 0000000180035850 f   VImage.obj
 0001:00034850       ?dtor$0@?0??XYZ2Lab@VImage@vips@@QEAA?AV12@PEAVVOption@2@@Z@4HA 0000000180035850 f   VImage.obj
 0001:00034850       ?dtor$0@?0??LabQ2LabS@VImage@vips@@QEAA?AV12@PEAVVOption@2@@Z@4HA 0000000180035850 f   VImage.obj
 0001:00034850       ?dtor$0@?0??stats@VImage@vips@@QEAA?AV12@PEAVVOption@2@@Z@4HA 0000000180035850 f   VImage.obj
 0001:00034850       ?dtor$0@?0??spectrum@VImage@vips@@QEAA?AV12@PEAVVOption@2@@Z@4HA 0000000180035850 f   VImage.obj
 0001:00034850       ?dtor$0@?0??LCh2CMC@VImage@vips@@QEAA?AV12@PEAVVOption@2@@Z@4HA 0000000180035850 f   VImage.obj
 0001:00034850       ?dtor$0@?0??LCh2Lab@VImage@vips@@QEAA?AV12@PEAVVOption@2@@Z@4HA 0000000180035850 f   VImage.obj
 0001:00034850       ?dtor$0@?0??similarity@VImage@vips@@QEAA?AV12@PEAVVOption@2@@Z@4HA 0000000180035850 f   VImage.obj
 0001:00034850       ?dtor$0@?0??sign@VImage@vips@@QEAA?AV12@PEAVVOption@2@@Z@4HA 0000000180035850 f   VImage.obj
 0001:00034850       ?dtor$0@?0??abs@VImage@vips@@QEAA?AV12@PEAVVOption@2@@Z@4HA 0000000180035850 f   VImage.obj
 0001:00034880       ?dtor$0@?0??linear@VImage@vips@@QEAA?AV12@V?$vector@NV?$allocator@N@std@@@std@@0PEAVVOption@2@@Z@4HA 0000000180035880 f   VImage.obj
 0001:0003488c       ?dtor$1@?0??linear@VImage@vips@@QEAA?AV12@V?$vector@NV?$allocator@N@std@@@std@@0PEAVVOption@2@@Z@4HA 000000018003588c f   VImage.obj
 0001:00034898       ?dtor$2@?0??linear@VImage@vips@@QEAA?AV12@V?$vector@NV?$allocator@N@std@@@std@@0PEAVVOption@2@@Z@4HA 0000000180035898 f   VImage.obj
 0001:000348c1       ?dtor$3@?0??linear@VImage@vips@@QEAA?AV12@V?$vector@NV?$allocator@N@std@@@std@@0PEAVVOption@2@@Z@4HA 00000001800358c1 f   VImage.obj
 0001:000348cd       ?dtor$4@?0??linear@VImage@vips@@QEAA?AV12@V?$vector@NV?$allocator@N@std@@@std@@0PEAVVOption@2@@Z@4HA 00000001800358cd f   VImage.obj
 0001:000348e0       ?dtor$0@?0??reducev@VImage@vips@@QEAA?AV12@NPEAVVOption@2@@Z@4HA 00000001800358e0 f   VImage.obj
 0001:000348e0       ?dtor$0@?0??resize@VImage@vips@@QEAA?AV12@NPEAVVOption@2@@Z@4HA 00000001800358e0 f   VImage.obj
 0001:000348e0       ?dtor$0@?0??gaussblur@VImage@vips@@QEAA?AV12@NPEAVVOption@2@@Z@4HA 00000001800358e0 f   VImage.obj
 0001:000348e0       ?dtor$0@?0??shrink@VImage@vips@@QEAA?AV12@NNPEAVVOption@2@@Z@4HA 00000001800358e0 f   VImage.obj
 0001:000348e0       ?dtor$0@?0??math@VImage@vips@@QEAA?AV12@W4VipsOperationMath@@PEAVVOption@2@@Z@4HA 00000001800358e0 f   VImage.obj
 0001:000348e0       ?dtor$0@?0??reduceh@VImage@vips@@QEAA?AV12@NPEAVVOption@2@@Z@4HA 00000001800358e0 f   VImage.obj
 0001:000348e0       ?dtor$0@?0??reduce@VImage@vips@@QEAA?AV12@NNPEAVVOption@2@@Z@4HA 00000001800358e0 f   VImage.obj
 0001:000348e0       ?dtor$0@?0??round@VImage@vips@@QEAA?AV12@W4VipsOperationRound@@PEAVVOption@2@@Z@4HA 00000001800358e0 f   VImage.obj
 0001:00034910       ?dtor$0@?0??bandjoin_const@VImage@vips@@QEAA?AV12@V?$vector@NV?$allocator@N@std@@@std@@PEAVVOption@2@@Z@4HA 0000000180035910 f   VImage.obj
 0001:00034910       ?dtor$0@?0??boolean_const@VImage@vips@@QEAA?AV12@V?$vector@NV?$allocator@N@std@@@std@@W4VipsOperationBoolean@@PEAVVOption@2@@Z@4HA 0000000180035910 f   VImage.obj
 0001:00034910       ?dtor$0@?0??affine@VImage@vips@@QEAA?AV12@V?$vector@NV?$allocator@N@std@@@std@@PEAVVOption@2@@Z@4HA 0000000180035910 f   VImage.obj
 0001:00034910       ?dtor$0@?0??relational_const@VImage@vips@@QEAA?AV12@V?$vector@NV?$allocator@N@std@@@std@@W4VipsOperationRelational@@PEAVVOption@2@@Z@4HA 0000000180035910 f   VImage.obj
 0001:00034910       ?dtor$0@?0??math2_const@VImage@vips@@QEAA?AV12@V?$vector@NV?$allocator@N@std@@@std@@W4VipsOperationMath2@@PEAVVOption@2@@Z@4HA 0000000180035910 f   VImage.obj
 0001:00034910       ?dtor$0@?0??remainder_const@VImage@vips@@QEAA?AV12@V?$vector@NV?$allocator@N@std@@@std@@PEAVVOption@2@@Z@4HA 0000000180035910 f   VImage.obj
 0001:0003491c       ?dtor$1@?0??bandjoin_const@VImage@vips@@QEAA?AV12@V?$vector@NV?$allocator@N@std@@@std@@PEAVVOption@2@@Z@4HA 000000018003591c f   VImage.obj
 0001:0003491c       ?dtor$1@?0??boolean_const@VImage@vips@@QEAA?AV12@V?$vector@NV?$allocator@N@std@@@std@@W4VipsOperationBoolean@@PEAVVOption@2@@Z@4HA 000000018003591c f   VImage.obj
 0001:0003491c       ?dtor$1@?0??relational_const@VImage@vips@@QEAA?AV12@V?$vector@NV?$allocator@N@std@@@std@@W4VipsOperationRelational@@PEAVVOption@2@@Z@4HA 000000018003591c f   VImage.obj
 0001:0003491c       ?dtor$1@?0??math2_const@VImage@vips@@QEAA?AV12@V?$vector@NV?$allocator@N@std@@@std@@W4VipsOperationMath2@@PEAVVOption@2@@Z@4HA 000000018003591c f   VImage.obj
 0001:0003491c       ?dtor$1@?0??affine@VImage@vips@@QEAA?AV12@V?$vector@NV?$allocator@N@std@@@std@@PEAVVOption@2@@Z@4HA 000000018003591c f   VImage.obj
 0001:0003491c       ?dtor$1@?0??remainder_const@VImage@vips@@QEAA?AV12@V?$vector@NV?$allocator@N@std@@@std@@PEAVVOption@2@@Z@4HA 000000018003591c f   VImage.obj
 0001:00034945       ?dtor$2@?0??bandjoin_const@VImage@vips@@QEAA?AV12@V?$vector@NV?$allocator@N@std@@@std@@PEAVVOption@2@@Z@4HA 0000000180035945 f   VImage.obj
 0001:00034945       ?dtor$2@?0??remainder_const@VImage@vips@@QEAA?AV12@V?$vector@NV?$allocator@N@std@@@std@@PEAVVOption@2@@Z@4HA 0000000180035945 f   VImage.obj
 0001:00034945       ?dtor$2@?0??boolean_const@VImage@vips@@QEAA?AV12@V?$vector@NV?$allocator@N@std@@@std@@W4VipsOperationBoolean@@PEAVVOption@2@@Z@4HA 0000000180035945 f   VImage.obj
 0001:00034945       ?dtor$2@?0??relational_const@VImage@vips@@QEAA?AV12@V?$vector@NV?$allocator@N@std@@@std@@W4VipsOperationRelational@@PEAVVOption@2@@Z@4HA 0000000180035945 f   VImage.obj
 0001:00034945       ?dtor$2@?0??math2_const@VImage@vips@@QEAA?AV12@V?$vector@NV?$allocator@N@std@@@std@@W4VipsOperationMath2@@PEAVVOption@2@@Z@4HA 0000000180035945 f   VImage.obj
 0001:00034945       ?dtor$2@?0??affine@VImage@vips@@QEAA?AV12@V?$vector@NV?$allocator@N@std@@@std@@PEAVVOption@2@@Z@4HA 0000000180035945 f   VImage.obj
 0001:00034960       ?dtor$0@?0??project@VImage@vips@@QEAA?AV12@PEAV12@PEAVVOption@2@@Z@4HA 0000000180035960 f   VImage.obj
 0001:00034960       ?dtor$0@?0??profile@VImage@vips@@QEAA?AV12@PEAV12@PEAVVOption@2@@Z@4HA 0000000180035960 f   VImage.obj
 0001:00034960       ?dtor$0@?0??rank@VImage@vips@@QEAA?AV12@HHHPEAVVOption@2@@Z@4HA 0000000180035960 f   VImage.obj
 0001:00034960       ?dtor$0@?0??replicate@VImage@vips@@QEAA?AV12@HHPEAVVOption@2@@Z@4HA 0000000180035960 f   VImage.obj
 0001:00034960       ?dtor$0@?0??bandbool@VImage@vips@@QEAA?AV12@W4VipsOperationBoolean@@PEAVVOption@2@@Z@4HA 0000000180035960 f   VImage.obj
 0001:00034960       ?dtor$0@?0??shrinkh@VImage@vips@@QEAA?AV12@HPEAVVOption@2@@Z@4HA 0000000180035960 f   VImage.obj
 0001:00034960       ?dtor$0@?0??stdif@VImage@vips@@QEAA?AV12@HHPEAVVOption@2@@Z@4HA 0000000180035960 f   VImage.obj
 0001:00034960       ?dtor$0@?0??measure@VImage@vips@@QEAA?AV12@HHPEAVVOption@2@@Z@4HA 0000000180035960 f   VImage.obj
 0001:00034960       ?dtor$0@?0??subsample@VImage@vips@@QEAA?AV12@HHPEAVVOption@2@@Z@4HA 0000000180035960 f   VImage.obj
 0001:00034960       ?dtor$0@?0??hist_local@VImage@vips@@QEAA?AV12@HHPEAVVOption@2@@Z@4HA 0000000180035960 f   VImage.obj
 0001:00034960       ?dtor$0@?0??zoom@VImage@vips@@QEAA?AV12@HHPEAVVOption@2@@Z@4HA 0000000180035960 f   VImage.obj
 0001:00034960       ?dtor$0@?0??extract_area@VImage@vips@@QEAA?AV12@HHHHPEAVVOption@2@@Z@4HA 0000000180035960 f   VImage.obj
 0001:00034960       ?dtor$0@?0??extract_band@VImage@vips@@QEAA?AV12@HPEAVVOption@2@@Z@4HA 0000000180035960 f   VImage.obj
 0001:00034960       ?dtor$0@?0??embed@VImage@vips@@QEAA?AV12@HHHHPEAVVOption@2@@Z@4HA 0000000180035960 f   VImage.obj
 0001:00034960       ?dtor$0@?0??icc_transform@VImage@vips@@QEAA?AV12@PEADPEAVVOption@2@@Z@4HA 0000000180035960 f   VImage.obj
 0001:00034960       ?dtor$0@?0??complexget@VImage@vips@@QEAA?AV12@W4VipsOperationComplexget@@PEAVVOption@2@@Z@4HA 0000000180035960 f   VImage.obj
 0001:00034960       ?dtor$0@?0??colourspace@VImage@vips@@QEAA?AV12@W4VipsInterpretation@@PEAVVOption@2@@Z@4HA 0000000180035960 f   VImage.obj
 0001:00034960       ?dtor$0@?0??complex@VImage@vips@@QEAA?AV12@W4VipsOperationComplex@@PEAVVOption@2@@Z@4HA 0000000180035960 f   VImage.obj
 0001:00034960       ?dtor$0@?0??shrinkv@VImage@vips@@QEAA?AV12@HPEAVVOption@2@@Z@4HA 0000000180035960 f   VImage.obj
 0001:00034990       ?dtor$0@?0??getpoint@VImage@vips@@QEAA?AV?$vector@NV?$allocator@N@std@@@std@@HHPEAVVOption@2@@Z@4HA 0000000180035990 f   VImage.obj
 0001:000349c0       ?dtor$0@?0??flatten@VImage@vips@@QEAA?AV12@PEAVVOption@2@@Z@4HA 00000001800359c0 f   VImage.obj
 0001:000349c0       ?dtor$0@?0??unpremultiply@VImage@vips@@QEAA?AV12@PEAVVOption@2@@Z@4HA 00000001800359c0 f   VImage.obj
 0001:000349c0       ?dtor$0@?0??copy@VImage@vips@@QEAA?AV12@PEAVVOption@2@@Z@4HA 00000001800359c0 f   VImage.obj
 0001:000349c0       ?dtor$0@?0??premultiply@VImage@vips@@QEAA?AV12@PEAVVOption@2@@Z@4HA 00000001800359c0 f   VImage.obj
 0001:000349c0       ?dtor$0@?0??byteswap@VImage@vips@@QEAA?AV12@PEAVVOption@2@@Z@4HA 00000001800359c0 f   VImage.obj
 0001:000349c0       ?dtor$0@?0??bandunfold@VImage@vips@@QEAA?AV12@PEAVVOption@2@@Z@4HA 00000001800359c0 f   VImage.obj
 0001:000349c0       ?dtor$0@?0??autorot@VImage@vips@@QEAA?AV12@PEAVVOption@2@@Z@4HA 00000001800359c0 f   VImage.obj
 0001:000349c0       ?dtor$0@?0??rot45@VImage@vips@@QEAA?AV12@PEAVVOption@2@@Z@4HA 00000001800359c0 f   VImage.obj
 0001:000349c0       ?dtor$0@?0??cache@VImage@vips@@QEAA?AV12@PEAVVOption@2@@Z@4HA 00000001800359c0 f   VImage.obj
 0001:000349c0       ?dtor$0@?0??scale@VImage@vips@@QEAA?AV12@PEAVVOption@2@@Z@4HA 00000001800359c0 f   VImage.obj
 0001:000349c0       ?dtor$0@?0??sequential@VImage@vips@@QEAA?AV12@PEAVVOption@2@@Z@4HA 00000001800359c0 f   VImage.obj
 0001:000349c0       ?dtor$0@?0??linecache@VImage@vips@@QEAA?AV12@PEAVVOption@2@@Z@4HA 00000001800359c0 f   VImage.obj
 0001:000349c0       ?dtor$0@?0??bandfold@VImage@vips@@QEAA?AV12@PEAVVOption@2@@Z@4HA 00000001800359c0 f   VImage.obj
 0001:000349c0       ?dtor$0@?0??wrap@VImage@vips@@QEAA?AV12@PEAVVOption@2@@Z@4HA 00000001800359c0 f   VImage.obj
 0001:000349c0       ?dtor$0@?0??tilecache@VImage@vips@@QEAA?AV12@PEAVVOption@2@@Z@4HA 00000001800359c0 f   VImage.obj
 0001:000349e6       ?dtor$1@?0??tilecache@VImage@vips@@QEAA?AV12@PEAVVOption@2@@Z@4HA 00000001800359e6 f   VImage.obj
 0001:000349e6       ?dtor$1@?0??flatten@VImage@vips@@QEAA?AV12@PEAVVOption@2@@Z@4HA 00000001800359e6 f   VImage.obj
 0001:000349e6       ?dtor$1@?0??copy@VImage@vips@@QEAA?AV12@PEAVVOption@2@@Z@4HA 00000001800359e6 f   VImage.obj
 0001:000349e6       ?dtor$1@?0??wrap@VImage@vips@@QEAA?AV12@PEAVVOption@2@@Z@4HA 00000001800359e6 f   VImage.obj
 0001:000349e6       ?dtor$1@?0??bandfold@VImage@vips@@QEAA?AV12@PEAVVOption@2@@Z@4HA 00000001800359e6 f   VImage.obj
 0001:000349e6       ?dtor$1@?0??autorot@VImage@vips@@QEAA?AV12@PEAVVOption@2@@Z@4HA 00000001800359e6 f   VImage.obj
 0001:000349e6       ?dtor$1@?0??bandunfold@VImage@vips@@QEAA?AV12@PEAVVOption@2@@Z@4HA 00000001800359e6 f   VImage.obj
 0001:000349e6       ?dtor$1@?0??premultiply@VImage@vips@@QEAA?AV12@PEAVVOption@2@@Z@4HA 00000001800359e6 f   VImage.obj
 0001:000349e6       ?dtor$1@?0??linecache@VImage@vips@@QEAA?AV12@PEAVVOption@2@@Z@4HA 00000001800359e6 f   VImage.obj
 0001:000349e6       ?dtor$1@?0??byteswap@VImage@vips@@QEAA?AV12@PEAVVOption@2@@Z@4HA 00000001800359e6 f   VImage.obj
 0001:000349e6       ?dtor$1@?0??scale@VImage@vips@@QEAA?AV12@PEAVVOption@2@@Z@4HA 00000001800359e6 f   VImage.obj
 0001:000349e6       ?dtor$1@?0??cache@VImage@vips@@QEAA?AV12@PEAVVOption@2@@Z@4HA 00000001800359e6 f   VImage.obj
 0001:000349e6       ?dtor$1@?0??rot45@VImage@vips@@QEAA?AV12@PEAVVOption@2@@Z@4HA 00000001800359e6 f   VImage.obj
 0001:000349e6       ?dtor$1@?0??sequential@VImage@vips@@QEAA?AV12@PEAVVOption@2@@Z@4HA 00000001800359e6 f   VImage.obj
 0001:000349e6       ?dtor$1@?0??unpremultiply@VImage@vips@@QEAA?AV12@PEAVVOption@2@@Z@4HA 00000001800359e6 f   VImage.obj
 0001:00034a00       ?dtor$0@?0??grid@VImage@vips@@QEAA?AV12@HHHPEAVVOption@2@@Z@4HA 0000000180035a00 f   VImage.obj
 0001:00034a00       ?dtor$0@?0??cast@VImage@vips@@QEAA?AV12@W4VipsBandFormat@@PEAVVOption@2@@Z@4HA 0000000180035a00 f   VImage.obj
 0001:00034a00       ?dtor$0@?0??flip@VImage@vips@@QEAA?AV12@W4VipsDirection@@PEAVVOption@2@@Z@4HA 0000000180035a00 f   VImage.obj
 0001:00034a00       ?dtor$0@?0??rot@VImage@vips@@QEAA?AV12@W4VipsAngle@@PEAVVOption@2@@Z@4HA 0000000180035a00 f   VImage.obj
 0001:00034a29       ?dtor$1@?0??flip@VImage@vips@@QEAA?AV12@W4VipsDirection@@PEAVVOption@2@@Z@4HA 0000000180035a29 f   VImage.obj
 0001:00034a29       ?dtor$1@?0??grid@VImage@vips@@QEAA?AV12@HHHPEAVVOption@2@@Z@4HA 0000000180035a29 f   VImage.obj
 0001:00034a29       ?dtor$1@?0??cast@VImage@vips@@QEAA?AV12@W4VipsBandFormat@@PEAVVOption@2@@Z@4HA 0000000180035a29 f   VImage.obj
 0001:00034a29       ?dtor$1@?0??rot@VImage@vips@@QEAA?AV12@W4VipsAngle@@PEAVVOption@2@@Z@4HA 0000000180035a29 f   VImage.obj
 0001:00034a40       ?dtor$0@?0??ifthenelse@VImage@vips@@QEAA?AV12@V12@0PEAVVOption@2@@Z@4HA 0000000180035a40 f   VImage.obj
 0001:00034a4c       ?dtor$1@?0??ifthenelse@VImage@vips@@QEAA?AV12@V12@0PEAVVOption@2@@Z@4HA 0000000180035a4c f   VImage.obj
 0001:00034a58       ?dtor$2@?0??ifthenelse@VImage@vips@@QEAA?AV12@V12@0PEAVVOption@2@@Z@4HA 0000000180035a58 f   VImage.obj
 0001:00034a81       ?dtor$3@?0??ifthenelse@VImage@vips@@QEAA?AV12@V12@0PEAVVOption@2@@Z@4HA 0000000180035a81 f   VImage.obj
 0001:00034a8d       ?dtor$4@?0??ifthenelse@VImage@vips@@QEAA?AV12@V12@0PEAVVOption@2@@Z@4HA 0000000180035a8d f   VImage.obj
 0001:00034aa0       ?dtor$0@?0??conv@VImage@vips@@QEAA?AV12@V12@PEAVVOption@2@@Z@4HA 0000000180035aa0 f   VImage.obj
 0001:00034aa0       ?dtor$0@?0??conva@VImage@vips@@QEAA?AV12@V12@PEAVVOption@2@@Z@4HA 0000000180035aa0 f   VImage.obj
 0001:00034aa0       ?dtor$0@?0??recomb@VImage@vips@@QEAA?AV12@V12@PEAVVOption@2@@Z@4HA 0000000180035aa0 f   VImage.obj
 0001:00034aa0       ?dtor$0@?0??maplut@VImage@vips@@QEAA?AV12@V12@PEAVVOption@2@@Z@4HA 0000000180035aa0 f   VImage.obj
 0001:00034aa0       ?dtor$0@?0??compass@VImage@vips@@QEAA?AV12@V12@PEAVVOption@2@@Z@4HA 0000000180035aa0 f   VImage.obj
 0001:00034aa0       ?dtor$0@?0??quadratic@VImage@vips@@QEAA?AV12@V12@PEAVVOption@2@@Z@4HA 0000000180035aa0 f   VImage.obj
 0001:00034aa0       ?dtor$0@?0??convi@VImage@vips@@QEAA?AV12@V12@PEAVVOption@2@@Z@4HA 0000000180035aa0 f   VImage.obj
 0001:00034aa0       ?dtor$0@?0??mapim@VImage@vips@@QEAA?AV12@V12@PEAVVOption@2@@Z@4HA 0000000180035aa0 f   VImage.obj
 0001:00034aa0       ?dtor$0@?0??convsep@VImage@vips@@QEAA?AV12@V12@PEAVVOption@2@@Z@4HA 0000000180035aa0 f   VImage.obj
 0001:00034aa0       ?dtor$0@?0??convasep@VImage@vips@@QEAA?AV12@V12@PEAVVOption@2@@Z@4HA 0000000180035aa0 f   VImage.obj
 0001:00034aa0       ?dtor$0@?0??convf@VImage@vips@@QEAA?AV12@V12@PEAVVOption@2@@Z@4HA 0000000180035aa0 f   VImage.obj
 0001:00034aac       ?dtor$1@?0??convsep@VImage@vips@@QEAA?AV12@V12@PEAVVOption@2@@Z@4HA 0000000180035aac f   VImage.obj
 0001:00034aac       ?dtor$1@?0??maplut@VImage@vips@@QEAA?AV12@V12@PEAVVOption@2@@Z@4HA 0000000180035aac f   VImage.obj
 0001:00034aac       ?dtor$1@?0??convi@VImage@vips@@QEAA?AV12@V12@PEAVVOption@2@@Z@4HA 0000000180035aac f   VImage.obj
 0001:00034aac       ?dtor$1@?0??recomb@VImage@vips@@QEAA?AV12@V12@PEAVVOption@2@@Z@4HA 0000000180035aac f   VImage.obj
 0001:00034aac       ?dtor$1@?0??convf@VImage@vips@@QEAA?AV12@V12@PEAVVOption@2@@Z@4HA 0000000180035aac f   VImage.obj
 0001:00034aac       ?dtor$1@?0??compass@VImage@vips@@QEAA?AV12@V12@PEAVVOption@2@@Z@4HA 0000000180035aac f   VImage.obj
 0001:00034aac       ?dtor$1@?0??quadratic@VImage@vips@@QEAA?AV12@V12@PEAVVOption@2@@Z@4HA 0000000180035aac f   VImage.obj
 0001:00034aac       ?dtor$1@?0??conv@VImage@vips@@QEAA?AV12@V12@PEAVVOption@2@@Z@4HA 0000000180035aac f   VImage.obj
 0001:00034aac       ?dtor$1@?0??conva@VImage@vips@@QEAA?AV12@V12@PEAVVOption@2@@Z@4HA 0000000180035aac f   VImage.obj
 0001:00034aac       ?dtor$1@?0??convasep@VImage@vips@@QEAA?AV12@V12@PEAVVOption@2@@Z@4HA 0000000180035aac f   VImage.obj
 0001:00034aac       ?dtor$1@?0??mapim@VImage@vips@@QEAA?AV12@V12@PEAVVOption@2@@Z@4HA 0000000180035aac f   VImage.obj
 0001:00034ad5       ?dtor$2@?0??quadratic@VImage@vips@@QEAA?AV12@V12@PEAVVOption@2@@Z@4HA 0000000180035ad5 f   VImage.obj
 0001:00034ad5       ?dtor$2@?0??mapim@VImage@vips@@QEAA?AV12@V12@PEAVVOption@2@@Z@4HA 0000000180035ad5 f   VImage.obj
 0001:00034ad5       ?dtor$2@?0??recomb@VImage@vips@@QEAA?AV12@V12@PEAVVOption@2@@Z@4HA 0000000180035ad5 f   VImage.obj
 0001:00034ad5       ?dtor$2@?0??convsep@VImage@vips@@QEAA?AV12@V12@PEAVVOption@2@@Z@4HA 0000000180035ad5 f   VImage.obj
 0001:00034ad5       ?dtor$2@?0??convi@VImage@vips@@QEAA?AV12@V12@PEAVVOption@2@@Z@4HA 0000000180035ad5 f   VImage.obj
 0001:00034ad5       ?dtor$2@?0??maplut@VImage@vips@@QEAA?AV12@V12@PEAVVOption@2@@Z@4HA 0000000180035ad5 f   VImage.obj
 0001:00034ad5       ?dtor$2@?0??convf@VImage@vips@@QEAA?AV12@V12@PEAVVOption@2@@Z@4HA 0000000180035ad5 f   VImage.obj
 0001:00034ad5       ?dtor$2@?0??convasep@VImage@vips@@QEAA?AV12@V12@PEAVVOption@2@@Z@4HA 0000000180035ad5 f   VImage.obj
 0001:00034ad5       ?dtor$2@?0??compass@VImage@vips@@QEAA?AV12@V12@PEAVVOption@2@@Z@4HA 0000000180035ad5 f   VImage.obj
 0001:00034ad5       ?dtor$2@?0??conv@VImage@vips@@QEAA?AV12@V12@PEAVVOption@2@@Z@4HA 0000000180035ad5 f   VImage.obj
 0001:00034ad5       ?dtor$2@?0??conva@VImage@vips@@QEAA?AV12@V12@PEAVVOption@2@@Z@4HA 0000000180035ad5 f   VImage.obj
 0001:00034af0       ?dtor$0@?0??text@VImage@vips@@SA?AV12@PEADPEAVVOption@2@@Z@4HA 0000000180035af0 f   VImage.obj
 0001:00034af0       ?dtor$0@?0??black@VImage@vips@@SA?AV12@HHPEAVVOption@2@@Z@4HA 0000000180035af0 f   VImage.obj
 0001:00034af0       ?dtor$0@?0??gaussnoise@VImage@vips@@SA?AV12@HHPEAVVOption@2@@Z@4HA 0000000180035af0 f   VImage.obj
 0001:00034af0       ?dtor$0@?0??sines@VImage@vips@@SA?AV12@HHPEAVVOption@2@@Z@4HA 0000000180035af0 f   VImage.obj
 0001:00034af0       ?dtor$0@?0??rawload@VImage@vips@@SA?AV12@PEADHHHPEAVVOption@2@@Z@4HA 0000000180035af0 f   VImage.obj
 0001:00034af0       ?dtor$0@?0??eye@VImage@vips@@SA?AV12@HHPEAVVOption@2@@Z@4HA 0000000180035af0 f   VImage.obj
 0001:00034af0       ?dtor$0@?0??grey@VImage@vips@@SA?AV12@HHPEAVVOption@2@@Z@4HA 0000000180035af0 f   VImage.obj
 0001:00034af0       ?dtor$0@?0??worley@VImage@vips@@SA?AV12@HHPEAVVOption@2@@Z@4HA 0000000180035af0 f   VImage.obj
 0001:00034af0       ?dtor$0@?0??xyz@VImage@vips@@SA?AV12@HHPEAVVOption@2@@Z@4HA 0000000180035af0 f   VImage.obj
 0001:00034af0       ?dtor$0@?0??perlin@VImage@vips@@SA?AV12@HHPEAVVOption@2@@Z@4HA 0000000180035af0 f   VImage.obj
 0001:00034af0       ?dtor$0@?0??zone@VImage@vips@@SA?AV12@HHPEAVVOption@2@@Z@4HA 0000000180035af0 f   VImage.obj
 0001:00034b20       ?dtor$0@?0??logmat@VImage@vips@@SA?AV12@NNPEAVVOption@2@@Z@4HA 0000000180035b20 f   VImage.obj
 0001:00034b20       ?dtor$0@?0??gaussmat@VImage@vips@@SA?AV12@NNPEAVVOption@2@@Z@4HA 0000000180035b20 f   VImage.obj
 0001:00034b20       ?dtor$0@?0??mask_butterworth_band@VImage@vips@@SA?AV12@HHNNNNNPEAVVOption@2@@Z@4HA 0000000180035b20 f   VImage.obj
 0001:00034b20       ?dtor$0@?0??mask_butterworth_ring@VImage@vips@@SA?AV12@HHNNNNPEAVVOption@2@@Z@4HA 0000000180035b20 f   VImage.obj
 0001:00034b20       ?dtor$0@?0??mask_fractal@VImage@vips@@SA?AV12@HHNPEAVVOption@2@@Z@4HA 0000000180035b20 f   VImage.obj
 0001:00034b20       ?dtor$0@?0??mask_gaussian@VImage@vips@@SA?AV12@HHNNPEAVVOption@2@@Z@4HA 0000000180035b20 f   VImage.obj
 0001:00034b20       ?dtor$0@?0??fractsurf@VImage@vips@@SA?AV12@HHNPEAVVOption@2@@Z@4HA 0000000180035b20 f   VImage.obj
 0001:00034b20       ?dtor$0@?0??mask_gaussian_band@VImage@vips@@SA?AV12@HHNNNNPEAVVOption@2@@Z@4HA 0000000180035b20 f   VImage.obj
 0001:00034b20       ?dtor$0@?0??mask_gaussian_ring@VImage@vips@@SA?AV12@HHNNNPEAVVOption@2@@Z@4HA 0000000180035b20 f   VImage.obj
 0001:00034b20       ?dtor$0@?0??mask_ideal@VImage@vips@@SA?AV12@HHNPEAVVOption@2@@Z@4HA 0000000180035b20 f   VImage.obj
 0001:00034b20       ?dtor$0@?0??mask_ideal_band@VImage@vips@@SA?AV12@HHNNNPEAVVOption@2@@Z@4HA 0000000180035b20 f   VImage.obj
 0001:00034b20       ?dtor$0@?0??mask_ideal_ring@VImage@vips@@SA?AV12@HHNNPEAVVOption@2@@Z@4HA 0000000180035b20 f   VImage.obj
 0001:00034b20       ?dtor$0@?0??mask_butterworth@VImage@vips@@SA?AV12@HHNNNPEAVVOption@2@@Z@4HA 0000000180035b20 f   VImage.obj
 0001:00034b50       ?dtor$0@?0??identity@VImage@vips@@SA?AV12@PEAVVOption@2@@Z@4HA 0000000180035b50 f   VImage.obj
 0001:00034b50       ?dtor$0@?0??tonelut@VImage@vips@@SA?AV12@PEAVVOption@2@@Z@4HA 0000000180035b50 f   VImage.obj
 0001:00034b80       ?dtor$0@?0??magickload_buffer@VImage@vips@@SA?AV12@PEAU_VipsBlob@@PEAVVOption@2@@Z@4HA 0000000180035b80 f   VImage.obj
 0001:00034b80       ?dtor$0@?0??pdfload@VImage@vips@@SA?AV12@PEADPEAVVOption@2@@Z@4HA 0000000180035b80 f   VImage.obj
 0001:00034b80       ?dtor$0@?0??pdfload_buffer@VImage@vips@@SA?AV12@PEAU_VipsBlob@@PEAVVOption@2@@Z@4HA 0000000180035b80 f   VImage.obj
 0001:00034b80       ?dtor$0@?0??webpload_buffer@VImage@vips@@SA?AV12@PEAU_VipsBlob@@PEAVVOption@2@@Z@4HA 0000000180035b80 f   VImage.obj
 0001:00034b80       ?dtor$0@?0??vipsload@VImage@vips@@SA?AV12@PEADPEAVVOption@2@@Z@4HA 0000000180035b80 f   VImage.obj
 0001:00034b80       ?dtor$0@?0??openslideload@VImage@vips@@SA?AV12@PEADPEAVVOption@2@@Z@4HA 0000000180035b80 f   VImage.obj
 0001:00034b80       ?dtor$0@?0??gifload@VImage@vips@@SA?AV12@PEADPEAVVOption@2@@Z@4HA 0000000180035b80 f   VImage.obj
 0001:00034b80       ?dtor$0@?0??openexrload@VImage@vips@@SA?AV12@PEADPEAVVOption@2@@Z@4HA 0000000180035b80 f   VImage.obj
 0001:00034b80       ?dtor$0@?0??matrixload@VImage@vips@@SA?AV12@PEADPEAVVOption@2@@Z@4HA 0000000180035b80 f   VImage.obj
 0001:00034b80       ?dtor$0@?0??jpegload_buffer@VImage@vips@@SA?AV12@PEAU_VipsBlob@@PEAVVOption@2@@Z@4HA 0000000180035b80 f   VImage.obj
 0001:00034b80       ?dtor$0@?0??matload@VImage@vips@@SA?AV12@PEADPEAVVOption@2@@Z@4HA 0000000180035b80 f   VImage.obj
 0001:00034b80       ?dtor$0@?0??csvload@VImage@vips@@SA?AV12@PEADPEAVVOption@2@@Z@4HA 0000000180035b80 f   VImage.obj
 0001:00034b80       ?dtor$0@?0??pngload@VImage@vips@@SA?AV12@PEADPEAVVOption@2@@Z@4HA 0000000180035b80 f   VImage.obj
 0001:00034b80       ?dtor$0@?0??fitsload@VImage@vips@@SA?AV12@PEADPEAVVOption@2@@Z@4HA 0000000180035b80 f   VImage.obj
 0001:00034b80       ?dtor$0@?0??pngload_buffer@VImage@vips@@SA?AV12@PEAU_VipsBlob@@PEAVVOption@2@@Z@4HA 0000000180035b80 f   VImage.obj
 0001:00034b80       ?dtor$0@?0??ppmload@VImage@vips@@SA?AV12@PEADPEAVVOption@2@@Z@4HA 0000000180035b80 f   VImage.obj
 0001:00034b80       ?dtor$0@?0??radload@VImage@vips@@SA?AV12@PEADPEAVVOption@2@@Z@4HA 0000000180035b80 f   VImage.obj
 0001:00034b80       ?dtor$0@?0??analyzeload@VImage@vips@@SA?AV12@PEADPEAVVOption@2@@Z@4HA 0000000180035b80 f   VImage.obj
 0001:00034b80       ?dtor$0@?0??svgload@VImage@vips@@SA?AV12@PEADPEAVVOption@2@@Z@4HA 0000000180035b80 f   VImage.obj
 0001:00034b80       ?dtor$0@?0??svgload_buffer@VImage@vips@@SA?AV12@PEAU_VipsBlob@@PEAVVOption@2@@Z@4HA 0000000180035b80 f   VImage.obj
 0001:00034b80       ?dtor$0@?0??webpload@VImage@vips@@SA?AV12@PEADPEAVVOption@2@@Z@4HA 0000000180035b80 f   VImage.obj
 0001:00034b80       ?dtor$0@?0??tiffload_buffer@VImage@vips@@SA?AV12@PEAU_VipsBlob@@PEAVVOption@2@@Z@4HA 0000000180035b80 f   VImage.obj
 0001:00034b80       ?dtor$0@?0??tiffload@VImage@vips@@SA?AV12@PEADPEAVVOption@2@@Z@4HA 0000000180035b80 f   VImage.obj
 0001:00034b80       ?dtor$0@?0??gifload_buffer@VImage@vips@@SA?AV12@PEAU_VipsBlob@@PEAVVOption@2@@Z@4HA 0000000180035b80 f   VImage.obj
 0001:00034b80       ?dtor$0@?0??jpegload@VImage@vips@@SA?AV12@PEADPEAVVOption@2@@Z@4HA 0000000180035b80 f   VImage.obj
 0001:00034b80       ?dtor$0@?0??magickload@VImage@vips@@SA?AV12@PEADPEAVVOption@2@@Z@4HA 0000000180035b80 f   VImage.obj
 0001:00034bb0       ?dtor$0@?0??draw_flood@VImage@vips@@QEAAXV?$vector@NV?$allocator@N@std@@@std@@HHPEAVVOption@2@@Z@4HA 0000000180035bb0 f   VImage.obj
 0001:00034bb0       ?dtor$0@?0??draw_circle@VImage@vips@@QEAAXV?$vector@NV?$allocator@N@std@@@std@@HHHPEAVVOption@2@@Z@4HA 0000000180035bb0 f   VImage.obj
 0001:00034bb0       ?dtor$0@?0??draw_line@VImage@vips@@QEAAXV?$vector@NV?$allocator@N@std@@@std@@HHHHPEAVVOption@2@@Z@4HA 0000000180035bb0 f   VImage.obj
 0001:00034bb0       ?dtor$0@?0??draw_rect@VImage@vips@@QEAAXV?$vector@NV?$allocator@N@std@@@std@@HHHHPEAVVOption@2@@Z@4HA 0000000180035bb0 f   VImage.obj
 0001:00034bbc       ?dtor$1@?0??draw_line@VImage@vips@@QEAAXV?$vector@NV?$allocator@N@std@@@std@@HHHHPEAVVOption@2@@Z@4HA 0000000180035bbc f   VImage.obj
 0001:00034bbc       ?dtor$1@?0??draw_circle@VImage@vips@@QEAAXV?$vector@NV?$allocator@N@std@@@std@@HHHPEAVVOption@2@@Z@4HA 0000000180035bbc f   VImage.obj
 0001:00034bbc       ?dtor$1@?0??draw_flood@VImage@vips@@QEAAXV?$vector@NV?$allocator@N@std@@@std@@HHPEAVVOption@2@@Z@4HA 0000000180035bbc f   VImage.obj
 0001:00034bbc       ?dtor$1@?0??draw_rect@VImage@vips@@QEAAXV?$vector@NV?$allocator@N@std@@@std@@HHHHPEAVVOption@2@@Z@4HA 0000000180035bbc f   VImage.obj
 0001:00034bd0       ?dtor$0@?0??draw_mask@VImage@vips@@QEAAXV?$vector@NV?$allocator@N@std@@@std@@V12@HHPEAVVOption@2@@Z@4HA 0000000180035bd0 f   VImage.obj
 0001:00034bdc       ?dtor$1@?0??draw_mask@VImage@vips@@QEAAXV?$vector@NV?$allocator@N@std@@@std@@V12@HHPEAVVOption@2@@Z@4HA 0000000180035bdc f   VImage.obj
 0001:00034be8       ?dtor$2@?0??draw_mask@VImage@vips@@QEAAXV?$vector@NV?$allocator@N@std@@@std@@V12@HHPEAVVOption@2@@Z@4HA 0000000180035be8 f   VImage.obj
 0001:00034bf4       ?dtor$3@?0??draw_mask@VImage@vips@@QEAAXV?$vector@NV?$allocator@N@std@@@std@@V12@HHPEAVVOption@2@@Z@4HA 0000000180035bf4 f   VImage.obj
 0001:00034c00       ?dtor$0@?0??draw_image@VImage@vips@@QEAAXV12@HHPEAVVOption@2@@Z@4HA 0000000180035c00 f   VImage.obj
 0001:00034c0c       ?dtor$1@?0??draw_image@VImage@vips@@QEAAXV12@HHPEAVVOption@2@@Z@4HA 0000000180035c0c f   VImage.obj
 0001:00034c20       ?dtor$0@?0??bandsplit@VImage@vips@@QEAA?AV?$vector@VVImage@vips@@V?$allocator@VVImage@vips@@@std@@@std@@PEAVVOption@2@@Z@4HA 0000000180035c20 f   VImage.obj
 0001:00034c46       ?dtor$1@?0??bandsplit@VImage@vips@@QEAA?AV?$vector@VVImage@vips@@V?$allocator@VVImage@vips@@@std@@@std@@PEAVVOption@2@@Z@4HA 0000000180035c46 f   VImage.obj
 0001:00034c60       ?dtor$0@?0??bandjoin@VImage@vips@@QEAA?AV12@V12@PEAVVOption@2@@Z@4HA 0000000180035c60 f   VImage.obj
 0001:00034c6c       ?dtor$3@?0??bandjoin@VImage@vips@@QEAA?AV12@V12@PEAVVOption@2@@Z@4HA 0000000180035c6c f   VImage.obj
 0001:00034c96       ?dtor$4@?0??bandjoin@VImage@vips@@QEAA?AV12@V12@PEAVVOption@2@@Z@4HA 0000000180035c96 f   VImage.obj
 0001:00034ca2       ?dtor$6@?0??bandjoin@VImage@vips@@QEAA?AV12@V12@PEAVVOption@2@@Z@4HA 0000000180035ca2 f   VImage.obj
 0001:00034cd0       ?dtor$0@?0???Pvips@@YA?AVVImage@0@V10@0@Z@4HA 0000000180035cd0 f   VImage.obj
 0001:00034cd0       ?dtor$0@?0???Tvips@@YA?AVVImage@0@V10@0@Z@4HA 0000000180035cd0 f   VImage.obj
 0001:00034cd0       ?dtor$0@?0???Lvips@@YA?AVVImage@0@V10@0@Z@4HA 0000000180035cd0 f   VImage.obj
 0001:00034cd0       ?dtor$0@?0???Mvips@@YA?AVVImage@0@V10@0@Z@4HA 0000000180035cd0 f   VImage.obj
 0001:00034cd0       ?dtor$0@?0???Nvips@@YA?AVVImage@0@V10@0@Z@4HA 0000000180035cd0 f   VImage.obj
 0001:00034cd0       ?dtor$0@?0???Gvips@@YA?AVVImage@0@V10@0@Z@4HA 0000000180035cd0 f   VImage.obj
 0001:00034cd0       ?dtor$0@?0???Ivips@@YA?AVVImage@0@V10@0@Z@4HA 0000000180035cd0 f   VImage.obj
 0001:00034cd0       ?dtor$0@?0???Dvips@@YA?AVVImage@0@V10@0@Z@4HA 0000000180035cd0 f   VImage.obj
 0001:00034cd0       ?dtor$0@?0???5vips@@YA?AVVImage@0@V10@0@Z@4HA 0000000180035cd0 f   VImage.obj
 0001:00034cd0       ?dtor$0@?0???Ovips@@YA?AVVImage@0@V10@0@Z@4HA 0000000180035cd0 f   VImage.obj
 0001:00034cd0       ?dtor$0@?0???Uvips@@YA?AVVImage@0@V10@0@Z@4HA 0000000180035cd0 f   VImage.obj
 0001:00034cd0       ?dtor$0@?0???9vips@@YA?AVVImage@0@V10@0@Z@4HA 0000000180035cd0 f   VImage.obj
 0001:00034cd0       ?dtor$0@?0???Kvips@@YA?AVVImage@0@V10@0@Z@4HA 0000000180035cd0 f   VImage.obj
 0001:00034cd0       ?dtor$0@?0???6vips@@YA?AVVImage@0@V10@0@Z@4HA 0000000180035cd0 f   VImage.obj
 0001:00034cd0       ?dtor$0@?0???Hvips@@YA?AVVImage@0@V10@0@Z@4HA 0000000180035cd0 f   VImage.obj
 0001:00034cd0       ?dtor$0@?0???8vips@@YA?AVVImage@0@V10@0@Z@4HA 0000000180035cd0 f   VImage.obj
 0001:00034cdc       ?dtor$1@?0???Ovips@@YA?AVVImage@0@V10@0@Z@4HA 0000000180035cdc f   VImage.obj
 0001:00034cdc       ?dtor$1@?0???Gvips@@YA?AVVImage@0@V10@0@Z@4HA 0000000180035cdc f   VImage.obj
 0001:00034cdc       ?dtor$1@?0???Lvips@@YA?AVVImage@0@V10@0@Z@4HA 0000000180035cdc f   VImage.obj
 0001:00034cdc       ?dtor$1@?0???9vips@@YA?AVVImage@0@V10@0@Z@4HA 0000000180035cdc f   VImage.obj
 0001:00034cdc       ?dtor$1@?0???Pvips@@YA?AVVImage@0@V10@0@Z@4HA 0000000180035cdc f   VImage.obj
 0001:00034cdc       ?dtor$1@?0???Ivips@@YA?AVVImage@0@V10@0@Z@4HA 0000000180035cdc f   VImage.obj
 0001:00034cdc       ?dtor$1@?0???6vips@@YA?AVVImage@0@V10@0@Z@4HA 0000000180035cdc f   VImage.obj
 0001:00034cdc       ?dtor$1@?0???Nvips@@YA?AVVImage@0@V10@0@Z@4HA 0000000180035cdc f   VImage.obj
 0001:00034cdc       ?dtor$1@?0???Tvips@@YA?AVVImage@0@V10@0@Z@4HA 0000000180035cdc f   VImage.obj
 0001:00034cdc       ?dtor$1@?0???Kvips@@YA?AVVImage@0@V10@0@Z@4HA 0000000180035cdc f   VImage.obj
 0001:00034cdc       ?dtor$1@?0???5vips@@YA?AVVImage@0@V10@0@Z@4HA 0000000180035cdc f   VImage.obj
 0001:00034cdc       ?dtor$1@?0???Uvips@@YA?AVVImage@0@V10@0@Z@4HA 0000000180035cdc f   VImage.obj
 0001:00034cdc       ?dtor$1@?0???Hvips@@YA?AVVImage@0@V10@0@Z@4HA 0000000180035cdc f   VImage.obj
 0001:00034cdc       ?dtor$1@?0???8vips@@YA?AVVImage@0@V10@0@Z@4HA 0000000180035cdc f   VImage.obj
 0001:00034cdc       ?dtor$1@?0???Dvips@@YA?AVVImage@0@V10@0@Z@4HA 0000000180035cdc f   VImage.obj
 0001:00034cdc       ?dtor$1@?0???Mvips@@YA?AVVImage@0@V10@0@Z@4HA 0000000180035cdc f   VImage.obj
 0001:00034cf0       ?dtor$0@?0???Hvips@@YA?AVVImage@0@NV10@@Z@4HA 0000000180035cf0 f   VImage.obj
 0001:00034cf0       ?dtor$0@?0???Gvips@@YA?AVVImage@0@NV10@@Z@4HA 0000000180035cf0 f   VImage.obj
 0001:00034cf0       ?dtor$0@?0???Xvips@@YAAEAVVImage@0@V10@N@Z@4HA 0000000180035cf0 f   VImage.obj
 0001:00034cf0       ?dtor$0@?0???Yvips@@YAAEAVVImage@0@V10@N@Z@4HA 0000000180035cf0 f   VImage.obj
 0001:00034cf0       ?dtor$0@?0???Zvips@@YAAEAVVImage@0@V10@N@Z@4HA 0000000180035cf0 f   VImage.obj
 0001:00034cf0       ?dtor$0@?0???_0vips@@YAAEAVVImage@0@V10@N@Z@4HA 0000000180035cf0 f   VImage.obj
 0001:00034cf0       ?dtor$0@?0???_1vips@@YAAEAVVImage@0@V10@N@Z@4HA 0000000180035cf0 f   VImage.obj
 0001:00034cf0       ?dtor$0@?0???_2vips@@YAAEAVVImage@0@V10@N@Z@4HA 0000000180035cf0 f   VImage.obj
 0001:00034cf0       ?dtor$0@?0???_3vips@@YAAEAVVImage@0@V10@N@Z@4HA 0000000180035cf0 f   VImage.obj
 0001:00034cf0       ?dtor$0@?0???_4vips@@YAAEAVVImage@0@V10@N@Z@4HA 0000000180035cf0 f   VImage.obj
 0001:00034cf0       ?dtor$0@?0???_6vips@@YAAEAVVImage@0@V10@N@Z@4HA 0000000180035cf0 f   VImage.obj
 0001:00034cf0       ?dtor$0@?0???_5vips@@YAAEAVVImage@0@V10@N@Z@4HA 0000000180035cf0 f   VImage.obj
 0001:00034cf0       ?dtor$0@?0???Dvips@@YA?AVVImage@0@NV10@@Z@4HA 0000000180035cf0 f   VImage.obj
 0001:00034d00       ?dtor$0@?0???Gvips@@YA?AVVImage@0@V10@@Z@4HA 0000000180035d00 f   VImage.obj
 0001:00034d00       ?dtor$0@?0???Kvips@@YA?AVVImage@0@V10@N@Z@4HA 0000000180035d00 f   VImage.obj
 0001:00034d00       ?dtor$0@?0???Gvips@@YA?AVVImage@0@V10@N@Z@4HA 0000000180035d00 f   VImage.obj
 0001:00034d00       ?dtor$0@?0???Hvips@@YA?AVVImage@0@V10@N@Z@4HA 0000000180035d00 f   VImage.obj
 0001:00034d00       ?dtor$0@?0???Dvips@@YA?AVVImage@0@V10@N@Z@4HA 0000000180035d00 f   VImage.obj
 0001:00034d10       ?dtor$0@?0???Tvips@@YA?AVVImage@0@V?$vector@NV?$allocator@N@std@@@std@@V10@@Z@4HA 0000000180035d10 f   VImage.obj
 0001:00034d10       ?dtor$0@?0???Nvips@@YA?AVVImage@0@V?$vector@NV?$allocator@N@std@@@std@@V10@@Z@4HA 0000000180035d10 f   VImage.obj
 0001:00034d10       ?dtor$0@?0???Dvips@@YA?AVVImage@0@V?$vector@NV?$allocator@N@std@@@std@@V10@@Z@4HA 0000000180035d10 f   VImage.obj
 0001:00034d10       ?dtor$0@?0???9vips@@YA?AVVImage@0@V?$vector@NV?$allocator@N@std@@@std@@V10@@Z@4HA 0000000180035d10 f   VImage.obj
 0001:00034d10       ?dtor$0@?0???Uvips@@YA?AVVImage@0@V?$vector@NV?$allocator@N@std@@@std@@V10@@Z@4HA 0000000180035d10 f   VImage.obj
 0001:00034d10       ?dtor$0@?0???8vips@@YA?AVVImage@0@V?$vector@NV?$allocator@N@std@@@std@@V10@@Z@4HA 0000000180035d10 f   VImage.obj
 0001:00034d10       ?dtor$0@?0???Ovips@@YA?AVVImage@0@V?$vector@NV?$allocator@N@std@@@std@@V10@@Z@4HA 0000000180035d10 f   VImage.obj
 0001:00034d10       ?dtor$0@?0???Gvips@@YA?AVVImage@0@V?$vector@NV?$allocator@N@std@@@std@@V10@@Z@4HA 0000000180035d10 f   VImage.obj
 0001:00034d10       ?dtor$0@?0???Ivips@@YA?AVVImage@0@V?$vector@NV?$allocator@N@std@@@std@@V10@@Z@4HA 0000000180035d10 f   VImage.obj
 0001:00034d10       ?dtor$0@?0???Pvips@@YA?AVVImage@0@V?$vector@NV?$allocator@N@std@@@std@@V10@@Z@4HA 0000000180035d10 f   VImage.obj
 0001:00034d10       ?dtor$0@?0???Mvips@@YA?AVVImage@0@V?$vector@NV?$allocator@N@std@@@std@@V10@@Z@4HA 0000000180035d10 f   VImage.obj
 0001:00034d10       ?dtor$0@?0???Hvips@@YA?AVVImage@0@V?$vector@NV?$allocator@N@std@@@std@@V10@@Z@4HA 0000000180035d10 f   VImage.obj
 0001:00034d1c       ?dtor$1@?0???Ivips@@YA?AVVImage@0@V?$vector@NV?$allocator@N@std@@@std@@V10@@Z@4HA 0000000180035d1c f   VImage.obj
 0001:00034d1c       ?dtor$1@?0???Hvips@@YA?AVVImage@0@V?$vector@NV?$allocator@N@std@@@std@@V10@@Z@4HA 0000000180035d1c f   VImage.obj
 0001:00034d1c       ?dtor$1@?0???Nvips@@YA?AVVImage@0@V?$vector@NV?$allocator@N@std@@@std@@V10@@Z@4HA 0000000180035d1c f   VImage.obj
 0001:00034d1c       ?dtor$1@?0???Pvips@@YA?AVVImage@0@V?$vector@NV?$allocator@N@std@@@std@@V10@@Z@4HA 0000000180035d1c f   VImage.obj
 0001:00034d1c       ?dtor$1@?0???Uvips@@YA?AVVImage@0@V?$vector@NV?$allocator@N@std@@@std@@V10@@Z@4HA 0000000180035d1c f   VImage.obj
 0001:00034d1c       ?dtor$1@?0???Ovips@@YA?AVVImage@0@V?$vector@NV?$allocator@N@std@@@std@@V10@@Z@4HA 0000000180035d1c f   VImage.obj
 0001:00034d1c       ?dtor$1@?0???Dvips@@YA?AVVImage@0@V?$vector@NV?$allocator@N@std@@@std@@V10@@Z@4HA 0000000180035d1c f   VImage.obj
 0001:00034d1c       ?dtor$1@?0???9vips@@YA?AVVImage@0@V?$vector@NV?$allocator@N@std@@@std@@V10@@Z@4HA 0000000180035d1c f   VImage.obj
 0001:00034d1c       ?dtor$1@?0???Tvips@@YA?AVVImage@0@V?$vector@NV?$allocator@N@std@@@std@@V10@@Z@4HA 0000000180035d1c f   VImage.obj
 0001:00034d1c       ?dtor$1@?0???Gvips@@YA?AVVImage@0@V?$vector@NV?$allocator@N@std@@@std@@V10@@Z@4HA 0000000180035d1c f   VImage.obj
 0001:00034d1c       ?dtor$1@?0???Mvips@@YA?AVVImage@0@V?$vector@NV?$allocator@N@std@@@std@@V10@@Z@4HA 0000000180035d1c f   VImage.obj
 0001:00034d1c       ?dtor$1@?0???8vips@@YA?AVVImage@0@V?$vector@NV?$allocator@N@std@@@std@@V10@@Z@4HA 0000000180035d1c f   VImage.obj
 0001:00034d30       ?dtor$0@?0???Tvips@@YA?AVVImage@0@V10@V?$vector@NV?$allocator@N@std@@@std@@@Z@4HA 0000000180035d30 f   VImage.obj
 0001:00034d30       ?dtor$0@?0???Dvips@@YA?AVVImage@0@V10@V?$vector@NV?$allocator@N@std@@@std@@@Z@4HA 0000000180035d30 f   VImage.obj
 0001:00034d30       ?dtor$0@?0???Nvips@@YA?AVVImage@0@V10@V?$vector@NV?$allocator@N@std@@@std@@@Z@4HA 0000000180035d30 f   VImage.obj
 0001:00034d30       ?dtor$0@?0???Ovips@@YA?AVVImage@0@V10@V?$vector@NV?$allocator@N@std@@@std@@@Z@4HA 0000000180035d30 f   VImage.obj
 0001:00034d30       ?dtor$0@?0???6vips@@YA?AVVImage@0@V10@V?$vector@NV?$allocator@N@std@@@std@@@Z@4HA 0000000180035d30 f   VImage.obj
 0001:00034d30       ?dtor$0@?0???Ivips@@YA?AVVImage@0@V10@V?$vector@NV?$allocator@N@std@@@std@@@Z@4HA 0000000180035d30 f   VImage.obj
 0001:00034d30       ?dtor$0@?0???9vips@@YA?AVVImage@0@V10@V?$vector@NV?$allocator@N@std@@@std@@@Z@4HA 0000000180035d30 f   VImage.obj
 0001:00034d30       ?dtor$0@?0???Hvips@@YA?AVVImage@0@V10@V?$vector@NV?$allocator@N@std@@@std@@@Z@4HA 0000000180035d30 f   VImage.obj
 0001:00034d30       ?dtor$0@?0???Uvips@@YA?AVVImage@0@V10@V?$vector@NV?$allocator@N@std@@@std@@@Z@4HA 0000000180035d30 f   VImage.obj
 0001:00034d30       ?dtor$0@?0???5vips@@YA?AVVImage@0@V10@V?$vector@NV?$allocator@N@std@@@std@@@Z@4HA 0000000180035d30 f   VImage.obj
 0001:00034d30       ?dtor$0@?0???Mvips@@YA?AVVImage@0@V10@V?$vector@NV?$allocator@N@std@@@std@@@Z@4HA 0000000180035d30 f   VImage.obj
 0001:00034d30       ?dtor$0@?0???8vips@@YA?AVVImage@0@V10@V?$vector@NV?$allocator@N@std@@@std@@@Z@4HA 0000000180035d30 f   VImage.obj
 0001:00034d30       ?dtor$0@?0???Pvips@@YA?AVVImage@0@V10@V?$vector@NV?$allocator@N@std@@@std@@@Z@4HA 0000000180035d30 f   VImage.obj
 0001:00034d30       ?dtor$0@?0???Lvips@@YA?AVVImage@0@V10@V?$vector@NV?$allocator@N@std@@@std@@@Z@4HA 0000000180035d30 f   VImage.obj
 0001:00034d3c       ?dtor$1@?0???8vips@@YA?AVVImage@0@V10@V?$vector@NV?$allocator@N@std@@@std@@@Z@4HA 0000000180035d3c f   VImage.obj
 0001:00034d3c       ?dtor$1@?0???Nvips@@YA?AVVImage@0@V10@V?$vector@NV?$allocator@N@std@@@std@@@Z@4HA 0000000180035d3c f   VImage.obj
 0001:00034d3c       ?dtor$1@?0???Ovips@@YA?AVVImage@0@V10@V?$vector@NV?$allocator@N@std@@@std@@@Z@4HA 0000000180035d3c f   VImage.obj
 0001:00034d3c       ?dtor$1@?0???Mvips@@YA?AVVImage@0@V10@V?$vector@NV?$allocator@N@std@@@std@@@Z@4HA 0000000180035d3c f   VImage.obj
 0001:00034d3c       ?dtor$1@?0???Lvips@@YA?AVVImage@0@V10@V?$vector@NV?$allocator@N@std@@@std@@@Z@4HA 0000000180035d3c f   VImage.obj
 0001:00034d3c       ?dtor$1@?0???Pvips@@YA?AVVImage@0@V10@V?$vector@NV?$allocator@N@std@@@std@@@Z@4HA 0000000180035d3c f   VImage.obj
 0001:00034d3c       ?dtor$1@?0???Dvips@@YA?AVVImage@0@V10@V?$vector@NV?$allocator@N@std@@@std@@@Z@4HA 0000000180035d3c f   VImage.obj
 0001:00034d3c       ?dtor$1@?0???5vips@@YA?AVVImage@0@V10@V?$vector@NV?$allocator@N@std@@@std@@@Z@4HA 0000000180035d3c f   VImage.obj
 0001:00034d3c       ?dtor$1@?0???Tvips@@YA?AVVImage@0@V10@V?$vector@NV?$allocator@N@std@@@std@@@Z@4HA 0000000180035d3c f   VImage.obj
 0001:00034d3c       ?dtor$1@?0???Hvips@@YA?AVVImage@0@V10@V?$vector@NV?$allocator@N@std@@@std@@@Z@4HA 0000000180035d3c f   VImage.obj
 0001:00034d3c       ?dtor$1@?0???Uvips@@YA?AVVImage@0@V10@V?$vector@NV?$allocator@N@std@@@std@@@Z@4HA 0000000180035d3c f   VImage.obj
 0001:00034d3c       ?dtor$1@?0???Ivips@@YA?AVVImage@0@V10@V?$vector@NV?$allocator@N@std@@@std@@@Z@4HA 0000000180035d3c f   VImage.obj
 0001:00034d3c       ?dtor$1@?0???6vips@@YA?AVVImage@0@V10@V?$vector@NV?$allocator@N@std@@@std@@@Z@4HA 0000000180035d3c f   VImage.obj
 0001:00034d3c       ?dtor$1@?0???9vips@@YA?AVVImage@0@V10@V?$vector@NV?$allocator@N@std@@@std@@@Z@4HA 0000000180035d3c f   VImage.obj
 0001:00034d50       ?dtor$0@?0???_3vips@@YAAEAVVImage@0@V10@V10@@Z@4HA 0000000180035d50 f   VImage.obj
 0001:00034d50       ?dtor$0@?0???Yvips@@YAAEAVVImage@0@V10@V10@@Z@4HA 0000000180035d50 f   VImage.obj
 0001:00034d50       ?dtor$0@?0???_6vips@@YAAEAVVImage@0@V10@V10@@Z@4HA 0000000180035d50 f   VImage.obj
 0001:00034d50       ?dtor$0@?0???Xvips@@YAAEAVVImage@0@V10@V10@@Z@4HA 0000000180035d50 f   VImage.obj
 0001:00034d50       ?dtor$0@?0???_0vips@@YAAEAVVImage@0@V10@V10@@Z@4HA 0000000180035d50 f   VImage.obj
 0001:00034d50       ?dtor$0@?0???_5vips@@YAAEAVVImage@0@V10@V10@@Z@4HA 0000000180035d50 f   VImage.obj
 0001:00034d50       ?dtor$0@?0???_1vips@@YAAEAVVImage@0@V10@V10@@Z@4HA 0000000180035d50 f   VImage.obj
 0001:00034d50       ?dtor$0@?0???_4vips@@YAAEAVVImage@0@V10@V10@@Z@4HA 0000000180035d50 f   VImage.obj
 0001:00034d50       ?dtor$0@?0???_2vips@@YAAEAVVImage@0@V10@V10@@Z@4HA 0000000180035d50 f   VImage.obj
 0001:00034d50       ?dtor$0@?0???Zvips@@YAAEAVVImage@0@V10@V10@@Z@4HA 0000000180035d50 f   VImage.obj
 0001:00034d5c       ?dtor$1@?0???_6vips@@YAAEAVVImage@0@V10@V10@@Z@4HA 0000000180035d5c f   VImage.obj
 0001:00034d5c       ?dtor$1@?0???Yvips@@YAAEAVVImage@0@V10@V10@@Z@4HA 0000000180035d5c f   VImage.obj
 0001:00034d5c       ?dtor$1@?0???_5vips@@YAAEAVVImage@0@V10@V10@@Z@4HA 0000000180035d5c f   VImage.obj
 0001:00034d5c       ?dtor$1@?0???_0vips@@YAAEAVVImage@0@V10@V10@@Z@4HA 0000000180035d5c f   VImage.obj
 0001:00034d5c       ?dtor$1@?0???_4vips@@YAAEAVVImage@0@V10@V10@@Z@4HA 0000000180035d5c f   VImage.obj
 0001:00034d5c       ?dtor$1@?0???Xvips@@YAAEAVVImage@0@V10@V10@@Z@4HA 0000000180035d5c f   VImage.obj
 0001:00034d5c       ?dtor$1@?0???_3vips@@YAAEAVVImage@0@V10@V10@@Z@4HA 0000000180035d5c f   VImage.obj
 0001:00034d5c       ?dtor$1@?0???_1vips@@YAAEAVVImage@0@V10@V10@@Z@4HA 0000000180035d5c f   VImage.obj
 0001:00034d5c       ?dtor$1@?0???_2vips@@YAAEAVVImage@0@V10@V10@@Z@4HA 0000000180035d5c f   VImage.obj
 0001:00034d5c       ?dtor$1@?0???Zvips@@YAAEAVVImage@0@V10@V10@@Z@4HA 0000000180035d5c f   VImage.obj
 0001:00034d70       ?dtor$0@?0???_0vips@@YAAEAVVImage@0@V10@V?$vector@NV?$allocator@N@std@@@std@@@Z@4HA 0000000180035d70 f   VImage.obj
 0001:00034d70       ?dtor$0@?0???Yvips@@YAAEAVVImage@0@V10@V?$vector@NV?$allocator@N@std@@@std@@@Z@4HA 0000000180035d70 f   VImage.obj
 0001:00034d70       ?dtor$0@?0???_4vips@@YAAEAVVImage@0@V10@V?$vector@NV?$allocator@N@std@@@std@@@Z@4HA 0000000180035d70 f   VImage.obj
 0001:00034d70       ?dtor$0@?0???_1vips@@YAAEAVVImage@0@V10@V?$vector@NV?$allocator@N@std@@@std@@@Z@4HA 0000000180035d70 f   VImage.obj
 0001:00034d70       ?dtor$0@?0???_6vips@@YAAEAVVImage@0@V10@V?$vector@NV?$allocator@N@std@@@std@@@Z@4HA 0000000180035d70 f   VImage.obj
 0001:00034d70       ?dtor$0@?0???_3vips@@YAAEAVVImage@0@V10@V?$vector@NV?$allocator@N@std@@@std@@@Z@4HA 0000000180035d70 f   VImage.obj
 0001:00034d70       ?dtor$0@?0???Xvips@@YAAEAVVImage@0@V10@V?$vector@NV?$allocator@N@std@@@std@@@Z@4HA 0000000180035d70 f   VImage.obj
 0001:00034d70       ?dtor$0@?0???_5vips@@YAAEAVVImage@0@V10@V?$vector@NV?$allocator@N@std@@@std@@@Z@4HA 0000000180035d70 f   VImage.obj
 0001:00034d70       ?dtor$0@?0???_2vips@@YAAEAVVImage@0@V10@V?$vector@NV?$allocator@N@std@@@std@@@Z@4HA 0000000180035d70 f   VImage.obj
 0001:00034d70       ?dtor$0@?0???Zvips@@YAAEAVVImage@0@V10@V?$vector@NV?$allocator@N@std@@@std@@@Z@4HA 0000000180035d70 f   VImage.obj
 0001:00034d7c       ?dtor$1@?0???Yvips@@YAAEAVVImage@0@V10@V?$vector@NV?$allocator@N@std@@@std@@@Z@4HA 0000000180035d7c f   VImage.obj
 0001:00034d7c       ?dtor$1@?0???Zvips@@YAAEAVVImage@0@V10@V?$vector@NV?$allocator@N@std@@@std@@@Z@4HA 0000000180035d7c f   VImage.obj
 0001:00034d7c       ?dtor$1@?0???Xvips@@YAAEAVVImage@0@V10@V?$vector@NV?$allocator@N@std@@@std@@@Z@4HA 0000000180035d7c f   VImage.obj
 0001:00034d7c       ?dtor$1@?0???_0vips@@YAAEAVVImage@0@V10@V?$vector@NV?$allocator@N@std@@@std@@@Z@4HA 0000000180035d7c f   VImage.obj
 0001:00034d7c       ?dtor$1@?0???_1vips@@YAAEAVVImage@0@V10@V?$vector@NV?$allocator@N@std@@@std@@@Z@4HA 0000000180035d7c f   VImage.obj
 0001:00034d7c       ?dtor$1@?0???_2vips@@YAAEAVVImage@0@V10@V?$vector@NV?$allocator@N@std@@@std@@@Z@4HA 0000000180035d7c f   VImage.obj
 0001:00034d7c       ?dtor$1@?0???_3vips@@YAAEAVVImage@0@V10@V?$vector@NV?$allocator@N@std@@@std@@@Z@4HA 0000000180035d7c f   VImage.obj
 0001:00034d7c       ?dtor$1@?0???_4vips@@YAAEAVVImage@0@V10@V?$vector@NV?$allocator@N@std@@@std@@@Z@4HA 0000000180035d7c f   VImage.obj
 0001:00034d7c       ?dtor$1@?0???_5vips@@YAAEAVVImage@0@V10@V?$vector@NV?$allocator@N@std@@@std@@@Z@4HA 0000000180035d7c f   VImage.obj
 0001:00034d7c       ?dtor$1@?0???_6vips@@YAAEAVVImage@0@V10@V?$vector@NV?$allocator@N@std@@@std@@@Z@4HA 0000000180035d7c f   VImage.obj
 0001:00034d90       ?dtor$0@?0???Gvips@@YA?AVVImage@0@V10@V?$vector@NV?$allocator@N@std@@@std@@@Z@4HA 0000000180035d90 f   VImage.obj
 0001:00034d90       ?dtor$0@?0???Kvips@@YA?AVVImage@0@V10@V?$vector@NV?$allocator@N@std@@@std@@@Z@4HA 0000000180035d90 f   VImage.obj
 0001:00034d9c       ?dtor$1@?0???Gvips@@YA?AVVImage@0@V10@V?$vector@NV?$allocator@N@std@@@std@@@Z@4HA 0000000180035d9c f   VImage.obj
 0001:00034d9c       ?dtor$1@?0???Kvips@@YA?AVVImage@0@V10@V?$vector@NV?$allocator@N@std@@@std@@@Z@4HA 0000000180035d9c f   VImage.obj
 0001:00034db0       ?dtor$0@?0???Kvips@@YA?AVVImage@0@NV10@@Z@4HA 0000000180035db0 f   VImage.obj
 0001:00034dbc       ?dtor$1@?0???Kvips@@YA?AVVImage@0@NV10@@Z@4HA 0000000180035dbc f   VImage.obj
 0001:00034dd0       ?dtor$0@?0???Kvips@@YA?AVVImage@0@V?$vector@NV?$allocator@N@std@@@std@@V10@@Z@4HA 0000000180035dd0 f   VImage.obj
 0001:00034ddc       ?dtor$1@?0???Kvips@@YA?AVVImage@0@V?$vector@NV?$allocator@N@std@@@std@@V10@@Z@4HA 0000000180035ddc f   VImage.obj
 0001:00034de8       ?dtor$2@?0???Kvips@@YA?AVVImage@0@V?$vector@NV?$allocator@N@std@@@std@@V10@@Z@4HA 0000000180035de8 f   VImage.obj
 0001:00034df4       ?dtor$3@?0???Kvips@@YA?AVVImage@0@V?$vector@NV?$allocator@N@std@@@std@@V10@@Z@4HA 0000000180035df4 f   VImage.obj
 0001:00034e00       ?dtor$0@?0???Uvips@@YA?AVVImage@0@V10@N@Z@4HA 0000000180035e00 f   VImage.obj
 0001:00034e00       ?dtor$0@?0???5vips@@YA?AVVImage@0@V10@N@Z@4HA 0000000180035e00 f   VImage.obj
 0001:00034e00       ?dtor$0@?0???Tvips@@YA?AVVImage@0@V10@N@Z@4HA 0000000180035e00 f   VImage.obj
 0001:00034e00       ?dtor$0@?0???6vips@@YA?AVVImage@0@V10@N@Z@4HA 0000000180035e00 f   VImage.obj
 0001:00034e00       ?dtor$0@?0???Pvips@@YA?AVVImage@0@V10@N@Z@4HA 0000000180035e00 f   VImage.obj
 0001:00034e00       ?dtor$0@?0???8vips@@YA?AVVImage@0@V10@N@Z@4HA 0000000180035e00 f   VImage.obj
 0001:00034e00       ?dtor$0@?0???Ovips@@YA?AVVImage@0@V10@N@Z@4HA 0000000180035e00 f   VImage.obj
 0001:00034e00       ?dtor$0@?0???9vips@@YA?AVVImage@0@V10@N@Z@4HA 0000000180035e00 f   VImage.obj
 0001:00034e00       ?dtor$0@?0???Ivips@@YA?AVVImage@0@V10@N@Z@4HA 0000000180035e00 f   VImage.obj
 0001:00034e00       ?dtor$0@?0???Nvips@@YA?AVVImage@0@V10@N@Z@4HA 0000000180035e00 f   VImage.obj
 0001:00034e00       ?dtor$0@?0???Lvips@@YA?AVVImage@0@V10@N@Z@4HA 0000000180035e00 f   VImage.obj
 0001:00034e00       ?dtor$0@?0???Mvips@@YA?AVVImage@0@V10@N@Z@4HA 0000000180035e00 f   VImage.obj
 0001:00034e10       ?dtor$0@?0???Mvips@@YA?AVVImage@0@NV10@@Z@4HA 0000000180035e10 f   VImage.obj
 0001:00034e10       ?dtor$0@?0???Nvips@@YA?AVVImage@0@NV10@@Z@4HA 0000000180035e10 f   VImage.obj
 0001:00034e10       ?dtor$0@?0???Uvips@@YA?AVVImage@0@NV10@@Z@4HA 0000000180035e10 f   VImage.obj
 0001:00034e10       ?dtor$0@?0???Ivips@@YA?AVVImage@0@NV10@@Z@4HA 0000000180035e10 f   VImage.obj
 0001:00034e10       ?dtor$0@?0???Ovips@@YA?AVVImage@0@NV10@@Z@4HA 0000000180035e10 f   VImage.obj
 0001:00034e10       ?dtor$0@?0???9vips@@YA?AVVImage@0@NV10@@Z@4HA 0000000180035e10 f   VImage.obj
 0001:00034e10       ?dtor$0@?0???Pvips@@YA?AVVImage@0@NV10@@Z@4HA 0000000180035e10 f   VImage.obj
 0001:00034e10       ?dtor$0@?0???8vips@@YA?AVVImage@0@NV10@@Z@4HA 0000000180035e10 f   VImage.obj
 0001:00034e10       ?dtor$0@?0???Tvips@@YA?AVVImage@0@NV10@@Z@4HA 0000000180035e10 f   VImage.obj
 0001:00034e1c       ?fin$0@?0???_M@YAXPEAX_K1P6AX0@Z@Z@4HA 0000000180035e1c f   LIBCMT:ehvecdtr.obj
 0001:00034e48       ?filt$0@?0??__ArrayUnwind@@YAXPEAX_K1P6AX0@Z@Z@4HA 0000000180035e48 f   LIBCMT:ehvecdtr.obj
 0001:00034e89       __scrt_is_nonwritable_in_current_image$filt$0 0000000180035e89 f   LIBCMT:utility.obj
 0001:00034ea1       ?fin$0@?0??dllmain_crt_process_attach@@YAHQEAUHINSTANCE__@@QEAX@Z@4HA 0000000180035ea1 f   LIBCMT:dll_dllmain.obj
 0001:00034eb8       ?fin$0@?0??dllmain_crt_process_detach@@YAH_N@Z@4HA 0000000180035eb8 f   LIBCMT:dll_dllmain.obj
 0001:00034ed4       ?filt$0@?0??dllmain_dispatch@@YAHQEAUHINSTANCE__@@KQEAX@Z@4HA 0000000180035ed4 f   LIBCMT:dll_dllmain.obj
 0001:00034f0a       __CxxCallCatchBlock$filt$0 0000000180035f0a f   libvcruntime:frame.obj
 0001:00034f2f       __CxxCallCatchBlock$fin$1  0000000180035f2f f   libvcruntime:frame.obj
 0001:00034fa7       __DestructExceptionObject$filt$0 0000000180035fa7 f   libvcruntime:frame.obj
 0001:00034fbf       __FrameUnwindToState$filt$0 0000000180035fbf f   libvcruntime:frame.obj
 0001:00034fd5       __FrameUnwindToState$fin$1 0000000180035fd5 f   libvcruntime:frame.obj
 0001:00034ff8       _CallSETranslator$filt$0   0000000180035ff8 f   libvcruntime:trnsctrl.obj
 0001:00035044       _query_new_handler$fin$0   0000000180036044 f   libucrt:new_handler.obj
 0001:0003505a       ?filt$0@?0??common_exit@@YAXHW4_crt_exit_cleanup_mode@@W4_crt_exit_return_mode@@@Z@4HA 000000018003605a f   libucrt:exit.obj
 0001:00035075       ?fin$1@?0??common_exit@@YAXHW4_crt_exit_cleanup_mode@@W4_crt_exit_return_mode@@@Z@4HA 0000000180036075 f   libucrt:exit.obj
 0001:0003508e       ?fin$0@?0???$?RV<lambda_e24bbb7b643b32fcea6fa61b31d4c984>@@AEAV<lambda_275893d493268fdec8709772e3fcec0e>@@V<lambda_9d71df4d7cf3f480f8d633942495c3b0>@@@?$__crt_seh_guarded_call@H@@QEAAH$$QEAV<lambda_e24bbb7b643b32fcea6fa61b31d4c984>@@AEAV<lambda_275893d493268fdec8709772e3fcec0e>@@$$QEAV<lambda_9d71df4d7cf3f480f8d633942495c3b0>@@@Z@4HA 000000018003608e f   libucrt:onexit.obj
 0001:000350ab       __acrt_update_thread_multibyte_data$fin$0 00000001800360ab f   libucrt:mbctype.obj
 0001:000350c4       ?fin$0@?0???$?RV<lambda_5e887d1dcbef67a5eb4283622ba103bf>@@AEAV<lambda_4466841279450cc726390878d4a41900>@@V<lambda_341c25c0346d94847f1f3c463c57e077>@@@?$__crt_seh_guarded_call@X@@QEAAX$$QEAV<lambda_5e887d1dcbef67a5eb4283622ba103bf>@@AEAV<lambda_4466841279450cc726390878d4a41900>@@$$QEAV<lambda_341c25c0346d94847f1f3c463c57e077>@@@Z@4HA 00000001800360c4 f   libucrt:per_thread_data.obj
 0001:000350c4       ?fin$0@?0???$?RV<lambda_99476a1ad63dd22509b5d3e65b0ffc95>@@AEAV<lambda_ad1ced32f4ac17aa236e5ef05d6b3b7c>@@V<lambda_f7424dd8d45958661754dc4f2697e9c3>@@@?$__crt_seh_guarded_call@X@@QEAAX$$QEAV<lambda_99476a1ad63dd22509b5d3e65b0ffc95>@@AEAV<lambda_ad1ced32f4ac17aa236e5ef05d6b3b7c>@@$$QEAV<lambda_f7424dd8d45958661754dc4f2697e9c3>@@@Z@4HA 00000001800360c4 f   libucrt:mbctype.obj
 0001:000350c4       ?fin$0@?0???$?RV<lambda_fb3a7dec4e47f37f22dae91bb15c9095>@@AEAV<lambda_698284760c8add0bfb0756c19673e34b>@@V<lambda_dfb8eca1e75fef3034a8fb18dd509707>@@@?$__crt_seh_guarded_call@X@@QEAAX$$QEAV<lambda_fb3a7dec4e47f37f22dae91bb15c9095>@@AEAV<lambda_698284760c8add0bfb0756c19673e34b>@@$$QEAV<lambda_dfb8eca1e75fef3034a8fb18dd509707>@@@Z@4HA 00000001800360c4 f   libucrt:per_thread_data.obj
 0001:000350c4       ?fin$0@?0???$?RV<lambda_c36588078e9f5dfd39652860aa6b3aaf>@@AEAV<lambda_ec61778202f4f5fc7e7711acc23c3bca>@@V<lambda_dc9d2797ccde5d239b4a0efae8ebd7db>@@@?$__crt_seh_guarded_call@P6AXH@Z@@QEAAP6AXH@Z$$QEAV<lambda_c36588078e9f5dfd39652860aa6b3aaf>@@AEAV<lambda_ec61778202f4f5fc7e7711acc23c3bca>@@$$QEAV<lambda_dc9d2797ccde5d239b4a0efae8ebd7db>@@@Z@4HA 00000001800360c4 f   libucrt:signal.obj
 0001:000350c4       ?fin$0@?0???$?RV<lambda_46352004c1216016012b18bd6f87e700>@@AEAV<lambda_3bd07e1a1191394380780325891bf33f>@@V<lambda_334532d3f185bcaa59b5be82d7d22bff>@@@?$__crt_seh_guarded_call@X@@QEAAX$$QEAV<lambda_46352004c1216016012b18bd6f87e700>@@AEAV<lambda_3bd07e1a1191394380780325891bf33f>@@$$QEAV<lambda_334532d3f185bcaa59b5be82d7d22bff>@@@Z@4HA 00000001800360c4 f   libucrt:per_thread_data.obj
 0001:000350c4       ?fin$0@?0???$?RV<lambda_b8c45f8f788dd370798f47cfe8ac3a86>@@AEAV<lambda_4e60a939b0d047cfe11ddc22648dfba9>@@V<lambda_332c3edc96d0294ec56c57d38c1cdfd5>@@@?$__crt_seh_guarded_call@H@@QEAAH$$QEAV<lambda_b8c45f8f788dd370798f47cfe8ac3a86>@@AEAV<lambda_4e60a939b0d047cfe11ddc22648dfba9>@@$$QEAV<lambda_332c3edc96d0294ec56c57d38c1cdfd5>@@@Z@4HA 00000001800360c4 f   libucrt:onexit.obj
 0001:000350c4       ?fin$0@?0???$?RV<lambda_72d1df2b273a38828b1ce30cbf4cdab5>@@AEAV<lambda_876a65b173b8412d3a47c70a915b0cf4>@@V<lambda_41932305e351933ebe8f8be3ed8bb5dc>@@@?$__crt_seh_guarded_call@X@@QEAAX$$QEAV<lambda_72d1df2b273a38828b1ce30cbf4cdab5>@@AEAV<lambda_876a65b173b8412d3a47c70a915b0cf4>@@$$QEAV<lambda_41932305e351933ebe8f8be3ed8bb5dc>@@@Z@4HA 00000001800360c4 f   libucrt:per_thread_data.obj
 0001:000350de       raise$fin$0                00000001800360de f   libucrt:signal.obj
 0001:00035102       __acrt_uninitialize_locale$fin$0 0000000180036102 f   libucrt:wsetlocale.obj
 0001:00035102       __acrt_update_thread_locale_data$fin$0 0000000180036102 f   libucrt:locale_refcounting.obj
 0001:0003511b       __acrt_lowio_ensure_fh_exists$fin$0 000000018003611b f   libucrt:osfinfo.obj
 0001:0003511b       __acrt_initialize_lowio$fin$0 000000018003611b f   libucrt:ioinit.obj
 0001:00035134       common_flush_all$fin$0     0000000180036134 f   libucrt:fflush.obj
 0001:0003514e       common_flush_all$fin$1     000000018003614e f   libucrt:fflush.obj
 0001:00035167       _fcloseall$fin$0           0000000180036167 f   libucrt:closeall.obj
 0001:00035180       ?fin$0@?0???$?RV<lambda_b521505b218e5242e90febf6bfebc422>@@AEAV<lambda_6978c1fb23f02e42e1d9e99668cc68aa>@@V<lambda_314360699dd331753a4119843814e9a7>@@@?$__crt_seh_guarded_call@H@@QEAAH$$QEAV<lambda_b521505b218e5242e90febf6bfebc422>@@AEAV<lambda_6978c1fb23f02e42e1d9e99668cc68aa>@@$$QEAV<lambda_314360699dd331753a4119843814e9a7>@@@Z@4HA 0000000180036180 f   libucrt:commit.obj
 0001:00035180       ?fin$0@?0???$?RV<lambda_bfedae4ebbf01fab1bb6dcc6a9e276e0>@@AEAV<lambda_2fe9b910cf3cbf4a0ab98a02ba45b3ec>@@V<lambda_237c231691f317818eb88cc1d5d642d6>@@@?$__crt_seh_guarded_call@H@@QEAAH$$QEAV<lambda_bfedae4ebbf01fab1bb6dcc6a9e276e0>@@AEAV<lambda_2fe9b910cf3cbf4a0ab98a02ba45b3ec>@@$$QEAV<lambda_237c231691f317818eb88cc1d5d642d6>@@@Z@4HA 0000000180036180 f   libucrt:close.obj
 0001:0003519a       _write$fin$0               000000018003619a f   libucrt:write.obj
 0001:000351b1       fclose$fin$0               00000001800361b1 f   libucrt:fclose.obj
 0001:000351c9       _ctrlfp$filt$0             00000001800361c9 f   libucrt:fpctrl.obj
 0001:00035200       _IsNonwritableInCurrentImage$filt$0 0000000180036200 f   LIBCMT:pesect.obj
 0002:00000248       .idata$5                   0000000180037248     libglib-2.0:dgoks00041.o
 0002:00000258       .idata$5                   0000000180037258     libvips:dmrks00701.o
 0002:00000260       .idata$5                   0000000180037260     libvips:dmrks00870.o
 0002:00000268       .idata$5                   0000000180037268     libvips:dmrks00883.o
 0002:00000270       .idata$5                   0000000180037270     libvips:dmrks00889.o
 0002:00000278       .idata$5                   0000000180037278     libvips:dmrks00939.o
 0002:00000280       .idata$5                   0000000180037280     libvips:dmrks00940.o
 0002:00000288       .idata$5                   0000000180037288     libvips:dmrks00992.o
 0002:00000290       .idata$5                   0000000180037290     libvips:dmrks01175.o
 0002:00000298       .idata$5                   0000000180037298     libvips:dmrks01185.o
 0002:000002a0       .idata$5                   00000001800372a0     libvips:dmrks01186.o
 0002:000002a8       .idata$5                   00000001800372a8     libvips:dmrks01229.o
 0002:000002b0       .idata$5                   00000001800372b0     libvips:dmrks01230.o
 0002:000002b8       .idata$5                   00000001800372b8     libvips:dmrks01231.o
 0002:000002c0       .idata$5                   00000001800372c0     libvips:dmrks01232.o
 0002:000002c8       .idata$5                   00000001800372c8     libvips:dmrks01307.o
 0002:000002d0       .idata$5                   00000001800372d0     libvips:dmrks01405.o
 0002:000002d8       .idata$5                   00000001800372d8     libvips:dmrks01406.o
 0002:000002e0       .idata$5                   00000001800372e0     libvips:dmrks01407.o
 0002:000002e8       .idata$5                   00000001800372e8     libvips:dmrks01408.o
 0002:000002f0       .idata$5                   00000001800372f0     libvips:dmrks01409.o
 0002:000002f8       .idata$5                   00000001800372f8     libvips:dmrks01410.o
 0002:00000300       .idata$5                   0000000180037300     libvips:dmrks01411.o
 0002:00000308       .idata$5                   0000000180037308     libvips:dmrks01412.o
 0002:00000310       .idata$5                   0000000180037310     libvips:dmrks01414.o
 0002:00000318       .idata$5                   0000000180037318     libvips:dmrks01415.o
 0002:00000320       .idata$5                   0000000180037320     libvips:dmrks01419.o
 0002:00000328       .idata$5                   0000000180037328     libvips:dmrks01420.o
 0002:00000330       .idata$5                   0000000180037330     libvips:dmrks01421.o
 0002:00000338       .idata$5                   0000000180037338     libvips:dmrks01422.o
 0002:00000340       .idata$5                   0000000180037340     libvips:dmrks01423.o
 0002:00000348       .idata$5                   0000000180037348     libvips:dmrks01424.o
 0002:00000350       .idata$5                   0000000180037350     libvips:dmrks01425.o
 0002:00000358       .idata$5                   0000000180037358     libvips:dmrks01426.o
 0002:00000360       .idata$5                   0000000180037360     libvips:dmrks01428.o
 0002:00000368       .idata$5                   0000000180037368     libvips:dmrks01449.o
 0002:00000370       .idata$5                   0000000180037370     libvips:dmrks01451.o
 0002:00000378       .idata$5                   0000000180037378     libvips:dmrks01452.o
 0002:00000380       .idata$5                   0000000180037380     libvips:dmrks01454.o
 0002:00000388       .idata$5                   0000000180037388     libvips:dmrks01456.o
 0002:00000390       .idata$5                   0000000180037390     libvips:dmrks01468.o
 0002:00000398       .idata$5                   0000000180037398     libvips:dmrks01470.o
 0002:000003a0       .idata$5                   00000001800373a0     libvips:dmrks01471.o
 0002:000003a8       .idata$5                   00000001800373a8     libvips:dmrks01474.o
 0002:000003b0       .idata$5                   00000001800373b0     libvips:dmrks01477.o
 0002:000003b8       .idata$5                   00000001800373b8     libvips:dmrks01482.o
 0002:000003c0       .idata$5                   00000001800373c0     libvips:dmrks01496.o
 0002:000003c8       .idata$5                   00000001800373c8     libvips:dmrks01503.o
 0002:000003d0       .idata$5                   00000001800373d0     libvips:dmrks01629.o
 0002:000003d8       .idata$5                   00000001800373d8     libvips:dmrks01635.o
 0002:000003e0       .idata$5                   00000001800373e0     libvips:dmrks01652.o
 0002:000003e8       .idata$5                   00000001800373e8     libvips:dmrks01659.o
 0002:000003f0       .idata$5                   00000001800373f0     libvips:dmrks01674.o
 0002:000003f8       .idata$5                   00000001800373f8     libvips:dmrks01919.o
 0002:00000400       .idata$5                   0000000180037400     libvips:dmrks01920.o
 0002:00000408       .idata$5                   0000000180037408     libvips:dmrks01929.o
 0002:00000410       .idata$5                   0000000180037410     libvips:dmrks01930.o
 0002:00000418       .idata$5                   0000000180037418     libvips:dmrks01964.o
 0002:00000428       .idata$5                   0000000180037428     libgobject-2.0:dqoks00125.o
 0002:00000430       .idata$5                   0000000180037430     libgobject-2.0:dqoks00138.o
 0002:00000438       .idata$5                   0000000180037438     libgobject-2.0:dqoks00148.o
 0002:00000440       .idata$5                   0000000180037440     libgobject-2.0:dqoks00155.o
 0002:00000448       .idata$5                   0000000180037448     libgobject-2.0:dqoks00196.o
 0002:00000450       .idata$5                   0000000180037450     libgobject-2.0:dqoks00271.o
 0002:00000458       .idata$5                   0000000180037458     libgobject-2.0:dqoks00272.o
 0002:00000460       .idata$5                   0000000180037460     libgobject-2.0:dqoks00353.o
 0002:00000468       .idata$5                   0000000180037468     libgobject-2.0:dqoks00359.o
 0002:00000470       .idata$5                   0000000180037470     libgobject-2.0:dqoks00362.o
 0002:00000478       .idata$5                   0000000180037478     libgobject-2.0:dqoks00367.o
 0002:00000480       .idata$5                   0000000180037480     libgobject-2.0:dqoks00370.o
 0002:00000488       .idata$5                   0000000180037488     libgobject-2.0:dqoks00374.o
 0002:00000490       .idata$5                   0000000180037490     libgobject-2.0:dqoks00381.o
 0002:00000498       .idata$5                   0000000180037498     libgobject-2.0:dqoks00386.o
 0002:000004a0       .idata$5                   00000001800374a0     libgobject-2.0:dqoks00387.o
 0002:000004a8       .idata$5                   00000001800374a8     libgobject-2.0:dqoks00390.o
 0002:000004b0       .idata$5                   00000001800374b0     libgobject-2.0:dqoks00391.o
 0002:000004b8       .idata$5                   00000001800374b8     libgobject-2.0:dqoks00396.o
 0002:000004c0       .idata$5                   00000001800374c0     libgobject-2.0:dqoks00399.o
 0002:000004c8       .idata$5                   00000001800374c8     libgobject-2.0:dqoks00407.o
 0002:000004d0       .idata$5                   00000001800374d0     libgobject-2.0:dqoks00422.o
 0002:00000508       ?__scrt_initialize_tss_var@@3P6AHXZEA 0000000180037508     LIBCMT:thread_safe_statics.obj
 0002:00000640       ?_Win_errtab@std@@3QBU_Win_errtab_t@1@B 0000000180037640     libcpmt:syserror.obj
 0002:00000890       ?_Sys_errtab@std@@3QBU_Sys_errtab_t@1@B 0000000180037890     libcpmt:syserror.obj
 0002:000014c8       GS_ExceptionPointers       00000001800384c8     LIBCMT:gs_report.obj
 0002:00001540       ?ExceptionTemplate@?1??_CxxThrowException@@9@4UEHExceptionRecord@@B 0000000180038540     libvcruntime:throw.obj
 0002:00001580       ?ExceptionTemplate@?1??_UnwindNestedFrames@@9@4U_EXCEPTION_RECORD@@B 0000000180038580     libvcruntime:trnsctrl.obj
 0002:00001618       ?module_names@?A0x679b24ab@@3QBQEB_WB 0000000180038618     libvcruntime:winapi_downlevel.obj
 0002:000016e8       ?candidate_modules@?1??try_get_FlsAlloc@@YAP6AKP6AXPEAX@Z@ZXZ@4QBW4module_id@?A0x679b24ab@@B 00000001800386e8     libvcruntime:winapi_downlevel.obj
 0002:00001700       ?candidate_modules@?1??try_get_FlsFree@@YAP6AHK@ZXZ@4QBW4module_id@?A0x679b24ab@@B 0000000180038700     libvcruntime:winapi_downlevel.obj
 0002:00001710       ?candidate_modules@?1??try_get_FlsGetValue@@YAP6APEAXK@ZXZ@4QBW4module_id@?A0x679b24ab@@B 0000000180038710     libvcruntime:winapi_downlevel.obj
 0002:00001728       ?candidate_modules@?1??try_get_FlsSetValue@@YAP6AHKPEAX@ZXZ@4QBW4module_id@?A0x679b24ab@@B 0000000180038728     libvcruntime:winapi_downlevel.obj
 0002:00001740       ?candidate_modules@?1??try_get_InitializeCriticalSectionEx@@YAP6AHPEAU_RTL_CRITICAL_SECTION@@KK@ZXZ@4QBW4module_id@?A0x679b24ab@@B 0000000180038740     libvcruntime:winapi_downlevel.obj
 0002:00001770       ?tokenTable@@3QBQEBDB      0000000180038770     libvcruntime:undname.obj
 0002:000017e0       ?nameTable@@3QBQEBDB       00000001800387e0     libvcruntime:undname.obj
 0002:00001a68       ?rttiTable@@3QBQEBDB       0000000180038a68     libvcruntime:undname.obj
 0002:000021f0       __acrt_initializers        00000001800391f0     libucrt:initialization.obj
 0002:000022e0       errtable                   00000001800392e0     libucrt:errno.obj
 0002:00002ad0       module_names               0000000180039ad0     libucrt:winapi_thunks.obj
 0002:00003000       ?candidate_modules@?1??try_get_FlsAlloc@@YAP6AKP6AXPEAX@Z@ZXZ@4QBW4module_id@?A0x63058377@@B 000000018003a000     libucrt:winapi_thunks.obj
 0002:00003008       ?candidate_modules@?1??try_get_FlsFree@@YAP6AHK@ZXZ@4QBW4module_id@?A0x63058377@@B 000000018003a008     libucrt:winapi_thunks.obj
 0002:00003010       ?candidate_modules@?1??try_get_FlsGetValue@@YAP6APEAXK@ZXZ@4QBW4module_id@?A0x63058377@@B 000000018003a010     libucrt:winapi_thunks.obj
 0002:00003018       ?candidate_modules@?1??try_get_FlsSetValue@@YAP6AHKPEAX@ZXZ@4QBW4module_id@?A0x63058377@@B 000000018003a018     libucrt:winapi_thunks.obj
 0002:00003020       ?candidate_modules@?1??try_get_GetCurrentPackageId@@YAP6AJPEAIPEAE@ZXZ@4QBW4module_id@?A0x63058377@@B 000000018003a020     libucrt:winapi_thunks.obj
 0002:00003040       ?candidate_modules@?1??try_get_InitializeCriticalSectionEx@@YAP6AHPEAU_RTL_CRITICAL_SECTION@@KK@ZXZ@4QBW4module_id@?A0x63058377@@B 000000018003a040     libucrt:winapi_thunks.obj
 0002:00003048       ?candidate_modules@?1??try_get_LCMapStringEx@@YAP6AHPEB_WK0HPEA_WHPEAU_nlsversioninfo@@PEAX_J@ZXZ@4QBW4module_id@?A0x63058377@@B 000000018003a048     libucrt:winapi_thunks.obj
 0002:00003060       ?candidate_modules@?1??try_get_LocaleNameToLCID@@YAP6AKPEB_WK@ZXZ@4QBW4module_id@?A0x63058377@@B 000000018003a060     libucrt:winapi_thunks.obj
 0002:00003080       _mb_locale_names           000000018003a080     libucrt:mbctype.obj
 0002:000036f0       LcidToLocaleNameTable      000000018003a6f0     libucrt:lcidtoname_downlevel.obj
 0002:00005150       LocaleNameToIndexTable     000000018003c150     libucrt:lcidtoname_downlevel.obj
 0002:000069f0       __real_ninf                000000018003d9f0     libucrt:log10.obj
 0002:00006a00       __real_inf                 000000018003da00     libucrt:log10.obj
 0002:00006a10       __real_neg_qnan            000000018003da10     libucrt:log10.obj
 0002:00006a20       __real_qnanbit             000000018003da20     libucrt:log10.obj
 0002:00006a30       __int_1023                 000000018003da30     libucrt:log10.obj
 0002:00006a40       __mask_001                 000000018003da40     libucrt:log10.obj
 0002:00006a50       __mask_mant                000000018003da50     libucrt:log10.obj
 0002:00006a60       __mask_mant_top8           000000018003da60     libucrt:log10.obj
 0002:00006a70       __mask_mant9               000000018003da70     libucrt:log10.obj
 0002:00006a80       __real_log10_e             000000018003da80     libucrt:log10.obj
 0002:00006a90       __real_log10_e_lead        000000018003da90     libucrt:log10.obj
 0002:00006aa0       __real_log10_e_tail        000000018003daa0     libucrt:log10.obj
 0002:00006ab0       __real_log10_2_lead        000000018003dab0     libucrt:log10.obj
 0002:00006ac0       __real_log10_2_tail        000000018003dac0     libucrt:log10.obj
 0002:00006ad0       __real_two                 000000018003dad0     libucrt:log10.obj
 0002:00006ae0       __real_one                 000000018003dae0     libucrt:log10.obj
 0002:00006af0       __real_half                000000018003daf0     libucrt:log10.obj
 0002:00006b00       __mask_100                 000000018003db00     libucrt:log10.obj
 0002:00006b10       __real_1_over_512          000000018003db10     libucrt:log10.obj
 0002:00006b20       __real_1_over_2            000000018003db20     libucrt:log10.obj
 0002:00006b30       __real_1_over_3            000000018003db30     libucrt:log10.obj
 0002:00006b40       __real_1_over_4            000000018003db40     libucrt:log10.obj
 0002:00006b50       __real_1_over_5            000000018003db50     libucrt:log10.obj
 0002:00006b60       __real_1_over_6            000000018003db60     libucrt:log10.obj
 0002:00006b70       __real_neg_1023            000000018003db70     libucrt:log10.obj
 0002:00006b80       __mask_2045                000000018003db80     libucrt:log10.obj
 0002:00006b90       __real_threshold           000000018003db90     libucrt:log10.obj
 0002:00006ba0       __real_near_one_lt         000000018003dba0     libucrt:log10.obj
 0002:00006bb0       __real_near_one_gt         000000018003dbb0     libucrt:log10.obj
 0002:00006bc0       __real_min_norm            000000018003dbc0     libucrt:log10.obj
 0002:00006bd0       __real_notsign             000000018003dbd0     libucrt:log10.obj
 0002:00006be0       __real_ca1                 000000018003dbe0     libucrt:log10.obj
 0002:00006bf0       __real_ca2                 000000018003dbf0     libucrt:log10.obj
 0002:00006c00       __real_ca3                 000000018003dc00     libucrt:log10.obj
 0002:00006c10       __real_ca4                 000000018003dc10     libucrt:log10.obj
 0002:00006c20       __mask_lower               000000018003dc20     libucrt:log10.obj
 0002:00006c30       __flag_x_zero              000000018003dc30     libucrt:log10.obj
 0002:00006c34       __flag_x_neg               000000018003dc34     libucrt:log10.obj
 0002:00006c38       __flag_x_nan               000000018003dc38     libucrt:log10.obj
 0002:00008490       __real@433fffffffffffff    000000018003f490     libucrt:fpsr.obj
 0002:00008498       __real@c33fffffffffffff    000000018003f498     libucrt:fpsr.obj
 0002:00009630       $cppxdata$?flush@?$basic_ostream@DU?$char_traits@D@std@@@std@@QEAAAEAV12@XZ 0000000180040630     VError.obj
 0002:00009658       $cppxdata$??0sentry@?$basic_ostream@DU?$char_traits@D@std@@@std@@QEAA@AEAV12@@Z 0000000180040658     VError.obj
 0002:00009680       $cppxdata$??$?6DU?$char_traits@D@std@@V?$allocator@D@1@@std@@YAAEAV?$basic_ostream@DU?$char_traits@D@std@@@0@AEAV10@AEBV?$basic_string@DU?$char_traits@D@std@@V?$allocator@D@2@@0@@Z 0000000180040680     VError.obj
 0002:000096a8       $cppxdata$??0?$list@PEAUPair@VOption@vips@@V?$allocator@PEAUPair@VOption@vips@@@std@@@std@@QEAA@AEBV01@@Z 00000001800406a8     VError.obj
 0002:000096d0       $cppxdata$?ifthenelse@VImage@vips@@QEAA?AV12@NNPEAVVOption@2@@Z 00000001800406d0     VError.obj
 0002:000096f8       $cppxdata$?ifthenelse@VImage@vips@@QEAA?AV12@V12@NPEAVVOption@2@@Z 00000001800406f8     VError.obj
 0002:00009720       $cppxdata$?ifthenelse@VImage@vips@@QEAA?AV12@NV12@PEAVVOption@2@@Z 0000000180040720     VError.obj
 0002:00009748       $cppxdata$?ifthenelse@VImage@vips@@QEAA?AV12@V?$vector@NV?$allocator@N@std@@@std@@0PEAVVOption@2@@Z 0000000180040748     VError.obj
 0002:00009770       $cppxdata$?ifthenelse@VImage@vips@@QEAA?AV12@V12@V?$vector@NV?$allocator@N@std@@@std@@PEAVVOption@2@@Z 0000000180040770     VError.obj
 0002:00009798       $cppxdata$?ifthenelse@VImage@vips@@QEAA?AV12@V?$vector@NV?$allocator@N@std@@@std@@V12@PEAVVOption@2@@Z 0000000180040798     VError.obj
 0002:000097c0       $cppxdata$?wop@VImage@vips@@QEAA?AV12@V?$vector@NV?$allocator@N@std@@@std@@PEAVVOption@2@@Z 00000001800407c0     VError.obj
 0002:000097e8       $cppxdata$?wop@VImage@vips@@QEAA?AV12@V12@PEAVVOption@2@@Z 00000001800407e8     VError.obj
 0002:00009810       $cppxdata$?pow@VImage@vips@@QEAA?AV12@V?$vector@NV?$allocator@N@std@@@std@@PEAVVOption@2@@Z 0000000180040810     VError.obj
 0002:00009838       $cppxdata$?pow@VImage@vips@@QEAA?AV12@V12@PEAVVOption@2@@Z 0000000180040838     VError.obj
 0002:00009860       $cppxdata$?erode@VImage@vips@@QEAA?AV12@V12@PEAVVOption@2@@Z 0000000180040860     VError.obj
 0002:00009888       $cppxdata$?dilate@VImage@vips@@QEAA?AV12@V12@PEAVVOption@2@@Z 0000000180040888     VError.obj
 0002:000098b0       $cppxdata$?bandjoin@VImage@vips@@QEAA?AV12@V?$vector@NV?$allocator@N@std@@@std@@PEAVVOption@2@@Z 00000001800408b0     VError.obj
 0002:000098d8       $cppxdata$?linear@VImage@vips@@QEAA?AV12@NV?$vector@NV?$allocator@N@std@@@std@@PEAVVOption@2@@Z 00000001800408d8     VError.obj
 0002:00009900       $cppxdata$?linear@VImage@vips@@QEAA?AV12@V?$vector@NV?$allocator@N@std@@@std@@NPEAVVOption@2@@Z 0000000180040900     VError.obj
 0002:00009928       $cppxdata$?linear@VImage@vips@@QEAA?AV12@NNPEAVVOption@2@@Z 0000000180040928     VError.obj
 0002:00009950       $cppxdata$?write_to_memory@VImage@vips@@QEAAPEAXPEA_K@Z 0000000180040950     VError.obj
 0002:00009978       $cppxdata$?new_matrix@VImage@vips@@SA?AV12@HHPEANH@Z 0000000180040978     VError.obj
 0002:000099a0       $cppxdata$?new_from_memory@VImage@vips@@SA?AV12@PEAX_KHHHW4VipsBandFormat@@@Z 00000001800409a0     VError.obj
 0002:000099c8       $cppxdata$?new_temp_file@VImage@vips@@SA?AV12@PEBD@Z 00000001800409c8     VError.obj
 0002:000099f0       $cppxdata$?option@VImage@vips@@SAPEAVVOption@2@XZ 00000001800409f0     VError.obj
 0002:00009a18       $cppxdata$?get_blob@VImage@vips@@QEAAPEBXPEBDPEA_K@Z 0000000180040a18     VError.obj
 0002:00009a40       $cppxdata$?get_string@VImage@vips@@QEAAPEBDPEBD@Z 0000000180040a40     VError.obj
 0002:00009a68       $cppxdata$?get_double@VImage@vips@@QEAANPEBD@Z 0000000180040a68     VError.obj
 0002:00009a90       $cppxdata$?get_int@VImage@vips@@QEAAHPEBD@Z 0000000180040a90     VError.obj
 0002:00009ab8       $cppxdata$??_EVOption@vips@@UEAAPEAXI@Z 0000000180040ab8     VError.obj
 0002:00009ae0       $cppxdata$??0VError@vips@@QEAA@AEBV01@@Z 0000000180040ae0     VError.obj
 0002:00009b08       $cppxdata$??0VError@vips@@QEAA@XZ 0000000180040b08     VError.obj
 0002:00009b30       $cppxdata$??0VError@vips@@QEAA@V?$basic_string@DU?$char_traits@D@std@@V?$allocator@D@2@@std@@@Z 0000000180040b30     VError.obj
 0002:00009b58       $cppxdata$?clear@ios_base@std@@QEAAXH_N@Z 0000000180040b58     VError.obj
 0002:00009b80       $cppxdata$??0system_error@std@@QEAA@Verror_code@1@PEBD@Z 0000000180040b80     VError.obj
 0002:00009ba8       $cppxdata$?_Makestr@_System_error@std@@CA?AV?$basic_string@DU?$char_traits@D@std@@V?$allocator@D@2@@2@Verror_code@2@V32@@Z 0000000180040ba8     VError.obj
 0002:00009bf0       $cppxdata$?set@VOption@vips@@QEAAPEAV12@PEBDVVInterpolate@2@@Z 0000000180040bf0     VInterpolate.obj
 0002:00009c18       $cppxdata$?new_from_name@VInterpolate@vips@@SA?AV12@PEBDPEAVVOption@2@@Z 0000000180040c18     VInterpolate.obj
 0002:00009c40       $cppxdata$??5vips@@YA?AVVImage@0@V10@V?$vector@NV?$allocator@N@std@@@std@@@Z 0000000180040c40     VImage.obj
 0002:00009c68       $cppxdata$??5vips@@YA?AVVImage@0@V10@N@Z 0000000180040c68     VImage.obj
 0002:00009c90       $cppxdata$??5vips@@YA?AVVImage@0@V10@0@Z 0000000180040c90     VImage.obj
 0002:00009cb8       $cppxdata$??_3vips@@YAAEAVVImage@0@V10@V?$vector@NV?$allocator@N@std@@@std@@@Z 0000000180040cb8     VImage.obj
 0002:00009cb8       $cppxdata$??_2vips@@YAAEAVVImage@0@V10@V?$vector@NV?$allocator@N@std@@@std@@@Z 0000000180040cb8     VImage.obj
 0002:00009ce0       $cppxdata$??_3vips@@YAAEAVVImage@0@V10@N@Z 0000000180040ce0     VImage.obj
 0002:00009ce0       $cppxdata$??_2vips@@YAAEAVVImage@0@V10@N@Z 0000000180040ce0     VImage.obj
 0002:00009d08       $cppxdata$??_3vips@@YAAEAVVImage@0@V10@V10@@Z 0000000180040d08     VImage.obj
 0002:00009d08       $cppxdata$??_2vips@@YAAEAVVImage@0@V10@V10@@Z 0000000180040d08     VImage.obj
 0002:00009d30       $cppxdata$??6vips@@YA?AVVImage@0@V10@V?$vector@NV?$allocator@N@std@@@std@@@Z 0000000180040d30     VImage.obj
 0002:00009d58       $cppxdata$??6vips@@YA?AVVImage@0@V10@N@Z 0000000180040d58     VImage.obj
 0002:00009d80       $cppxdata$??6vips@@YA?AVVImage@0@V10@0@Z 0000000180040d80     VImage.obj
 0002:00009da8       $cppxdata$??_6vips@@YAAEAVVImage@0@V10@V?$vector@NV?$allocator@N@std@@@std@@@Z 0000000180040da8     VImage.obj
 0002:00009dd0       $cppxdata$??_6vips@@YAAEAVVImage@0@V10@N@Z 0000000180040dd0     VImage.obj
 0002:00009df8       $cppxdata$??_6vips@@YAAEAVVImage@0@V10@V10@@Z 0000000180040df8     VImage.obj
 0002:00009e20       $cppxdata$??Tvips@@YA?AVVImage@0@V10@V?$vector@NV?$allocator@N@std@@@std@@@Z 0000000180040e20     VImage.obj
 0002:00009e48       $cppxdata$??Tvips@@YA?AVVImage@0@V?$vector@NV?$allocator@N@std@@@std@@V10@@Z 0000000180040e48     VImage.obj
 0002:00009e70       $cppxdata$??Tvips@@YA?AVVImage@0@V10@N@Z 0000000180040e70     VImage.obj
 0002:00009e98       $cppxdata$??Tvips@@YA?AVVImage@0@NV10@@Z 0000000180040e98     VImage.obj
 0002:00009ec0       $cppxdata$??Tvips@@YA?AVVImage@0@V10@0@Z 0000000180040ec0     VImage.obj
 0002:00009ee8       $cppxdata$??_5vips@@YAAEAVVImage@0@V10@V?$vector@NV?$allocator@N@std@@@std@@@Z 0000000180040ee8     VImage.obj
 0002:00009f10       $cppxdata$??_5vips@@YAAEAVVImage@0@V10@N@Z 0000000180040f10     VImage.obj
 0002:00009f38       $cppxdata$??_5vips@@YAAEAVVImage@0@V10@V10@@Z 0000000180040f38     VImage.obj
 0002:00009f60       $cppxdata$??Uvips@@YA?AVVImage@0@V10@V?$vector@NV?$allocator@N@std@@@std@@@Z 0000000180040f60     VImage.obj
 0002:00009f88       $cppxdata$??Uvips@@YA?AVVImage@0@V?$vector@NV?$allocator@N@std@@@std@@V10@@Z 0000000180040f88     VImage.obj
 0002:00009fb0       $cppxdata$??Uvips@@YA?AVVImage@0@V10@N@Z 0000000180040fb0     VImage.obj
 0002:00009fd8       $cppxdata$??Uvips@@YA?AVVImage@0@NV10@@Z 0000000180040fd8     VImage.obj
 0002:0000a000       $cppxdata$??Uvips@@YA?AVVImage@0@V10@0@Z 0000000180041000     VImage.obj
 0002:0000a028       $cppxdata$??_4vips@@YAAEAVVImage@0@V10@V?$vector@NV?$allocator@N@std@@@std@@@Z 0000000180041028     VImage.obj
 0002:0000a050       $cppxdata$??_4vips@@YAAEAVVImage@0@V10@N@Z 0000000180041050     VImage.obj
 0002:0000a078       $cppxdata$??_4vips@@YAAEAVVImage@0@V10@V10@@Z 0000000180041078     VImage.obj
 0002:0000a0a0       $cppxdata$??Ivips@@YA?AVVImage@0@V10@V?$vector@NV?$allocator@N@std@@@std@@@Z 00000001800410a0     VImage.obj
 0002:0000a0c8       $cppxdata$??Ivips@@YA?AVVImage@0@V?$vector@NV?$allocator@N@std@@@std@@V10@@Z 00000001800410c8     VImage.obj
 0002:0000a0f0       $cppxdata$??Ivips@@YA?AVVImage@0@V10@N@Z 00000001800410f0     VImage.obj
 0002:0000a118       $cppxdata$??Ivips@@YA?AVVImage@0@NV10@@Z 0000000180041118     VImage.obj
 0002:0000a140       $cppxdata$??Ivips@@YA?AVVImage@0@V10@0@Z 0000000180041140     VImage.obj
 0002:0000a168       $cppxdata$??9vips@@YA?AVVImage@0@V10@V?$vector@NV?$allocator@N@std@@@std@@@Z 0000000180041168     VImage.obj
 0002:0000a190       $cppxdata$??9vips@@YA?AVVImage@0@V?$vector@NV?$allocator@N@std@@@std@@V10@@Z 0000000180041190     VImage.obj
 0002:0000a1b8       $cppxdata$??9vips@@YA?AVVImage@0@V10@N@Z 00000001800411b8     VImage.obj
 0002:0000a1e0       $cppxdata$??9vips@@YA?AVVImage@0@NV10@@Z 00000001800411e0     VImage.obj
 0002:0000a208       $cppxdata$??9vips@@YA?AVVImage@0@V10@0@Z 0000000180041208     VImage.obj
 0002:0000a230       $cppxdata$??8vips@@YA?AVVImage@0@V10@V?$vector@NV?$allocator@N@std@@@std@@@Z 0000000180041230     VImage.obj
 0002:0000a258       $cppxdata$??8vips@@YA?AVVImage@0@V?$vector@NV?$allocator@N@std@@@std@@V10@@Z 0000000180041258     VImage.obj
 0002:0000a280       $cppxdata$??8vips@@YA?AVVImage@0@V10@N@Z 0000000180041280     VImage.obj
 0002:0000a2a8       $cppxdata$??8vips@@YA?AVVImage@0@NV10@@Z 00000001800412a8     VImage.obj
 0002:0000a2d0       $cppxdata$??8vips@@YA?AVVImage@0@V10@0@Z 00000001800412d0     VImage.obj
 0002:0000a2f8       $cppxdata$??Pvips@@YA?AVVImage@0@V10@V?$vector@NV?$allocator@N@std@@@std@@@Z 00000001800412f8     VImage.obj
 0002:0000a320       $cppxdata$??Pvips@@YA?AVVImage@0@V?$vector@NV?$allocator@N@std@@@std@@V10@@Z 0000000180041320     VImage.obj
 0002:0000a348       $cppxdata$??Pvips@@YA?AVVImage@0@V10@N@Z 0000000180041348     VImage.obj
 0002:0000a370       $cppxdata$??Pvips@@YA?AVVImage@0@NV10@@Z 0000000180041370     VImage.obj
 0002:0000a398       $cppxdata$??Pvips@@YA?AVVImage@0@V10@0@Z 0000000180041398     VImage.obj
 0002:0000a3c0       $cppxdata$??Ovips@@YA?AVVImage@0@V10@V?$vector@NV?$allocator@N@std@@@std@@@Z 00000001800413c0     VImage.obj
 0002:0000a3e8       $cppxdata$??Ovips@@YA?AVVImage@0@V?$vector@NV?$allocator@N@std@@@std@@V10@@Z 00000001800413e8     VImage.obj
 0002:0000a410       $cppxdata$??Ovips@@YA?AVVImage@0@V10@N@Z 0000000180041410     VImage.obj
 0002:0000a438       $cppxdata$??Ovips@@YA?AVVImage@0@NV10@@Z 0000000180041438     VImage.obj
 0002:0000a460       $cppxdata$??Ovips@@YA?AVVImage@0@V10@0@Z 0000000180041460     VImage.obj
 0002:0000a488       $cppxdata$??Nvips@@YA?AVVImage@0@V10@V?$vector@NV?$allocator@N@std@@@std@@@Z 0000000180041488     VImage.obj
 0002:0000a4b0       $cppxdata$??Nvips@@YA?AVVImage@0@V?$vector@NV?$allocator@N@std@@@std@@V10@@Z 00000001800414b0     VImage.obj
 0002:0000a4d8       $cppxdata$??Nvips@@YA?AVVImage@0@V10@N@Z 00000001800414d8     VImage.obj
 0002:0000a500       $cppxdata$??Nvips@@YA?AVVImage@0@NV10@@Z 0000000180041500     VImage.obj
 0002:0000a528       $cppxdata$??Nvips@@YA?AVVImage@0@V10@0@Z 0000000180041528     VImage.obj
 0002:0000a550       $cppxdata$??Mvips@@YA?AVVImage@0@V10@V?$vector@NV?$allocator@N@std@@@std@@@Z 0000000180041550     VImage.obj
 0002:0000a578       $cppxdata$??Mvips@@YA?AVVImage@0@V?$vector@NV?$allocator@N@std@@@std@@V10@@Z 0000000180041578     VImage.obj
 0002:0000a5a0       $cppxdata$??Mvips@@YA?AVVImage@0@V10@N@Z 00000001800415a0     VImage.obj
 0002:0000a5c8       $cppxdata$??Mvips@@YA?AVVImage@0@NV10@@Z 00000001800415c8     VImage.obj
 0002:0000a5f0       $cppxdata$??Mvips@@YA?AVVImage@0@V10@0@Z 00000001800415f0     VImage.obj
 0002:0000a618       $cppxdata$??_1vips@@YAAEAVVImage@0@V10@V?$vector@NV?$allocator@N@std@@@std@@@Z 0000000180041618     VImage.obj
 0002:0000a640       $cppxdata$??_1vips@@YAAEAVVImage@0@V10@N@Z 0000000180041640     VImage.obj
 0002:0000a668       $cppxdata$??_1vips@@YAAEAVVImage@0@V10@V10@@Z 0000000180041668     VImage.obj
 0002:0000a690       $cppxdata$??Lvips@@YA?AVVImage@0@V10@V?$vector@NV?$allocator@N@std@@@std@@@Z 0000000180041690     VImage.obj
 0002:0000a6b8       $cppxdata$??Lvips@@YA?AVVImage@0@V10@N@Z 00000001800416b8     VImage.obj
 0002:0000a6e0       $cppxdata$??Lvips@@YA?AVVImage@0@V10@0@Z 00000001800416e0     VImage.obj
 0002:0000a708       $cppxdata$??_0vips@@YAAEAVVImage@0@V10@V?$vector@NV?$allocator@N@std@@@std@@@Z 0000000180041708     VImage.obj
 0002:0000a730       $cppxdata$??_0vips@@YAAEAVVImage@0@V10@N@Z 0000000180041730     VImage.obj
 0002:0000a758       $cppxdata$??_0vips@@YAAEAVVImage@0@V10@V10@@Z 0000000180041758     VImage.obj
 0002:0000a780       $cppxdata$??Kvips@@YA?AVVImage@0@V10@V?$vector@NV?$allocator@N@std@@@std@@@Z 0000000180041780     VImage.obj
 0002:0000a7a8       $cppxdata$??Kvips@@YA?AVVImage@0@V?$vector@NV?$allocator@N@std@@@std@@V10@@Z 00000001800417a8     VImage.obj
 0002:0000a7d0       $cppxdata$??Kvips@@YA?AVVImage@0@V10@N@Z 00000001800417d0     VImage.obj
 0002:0000a7f8       $cppxdata$??Kvips@@YA?AVVImage@0@NV10@@Z 00000001800417f8     VImage.obj
 0002:0000a820       $cppxdata$??Kvips@@YA?AVVImage@0@V10@0@Z 0000000180041820     VImage.obj
 0002:0000a848       $cppxdata$??Xvips@@YAAEAVVImage@0@V10@V?$vector@NV?$allocator@N@std@@@std@@@Z 0000000180041848     VImage.obj
 0002:0000a870       $cppxdata$??Xvips@@YAAEAVVImage@0@V10@N@Z 0000000180041870     VImage.obj
 0002:0000a898       $cppxdata$??Xvips@@YAAEAVVImage@0@V10@V10@@Z 0000000180041898     VImage.obj
 0002:0000a8c0       $cppxdata$??Dvips@@YA?AVVImage@0@V10@V?$vector@NV?$allocator@N@std@@@std@@@Z 00000001800418c0     VImage.obj
 0002:0000a8e8       $cppxdata$??Dvips@@YA?AVVImage@0@V?$vector@NV?$allocator@N@std@@@std@@V10@@Z 00000001800418e8     VImage.obj
 0002:0000a910       $cppxdata$??Dvips@@YA?AVVImage@0@V10@N@Z 0000000180041910     VImage.obj
 0002:0000a938       $cppxdata$??Dvips@@YA?AVVImage@0@NV10@@Z 0000000180041938     VImage.obj
 0002:0000a960       $cppxdata$??Dvips@@YA?AVVImage@0@V10@0@Z 0000000180041960     VImage.obj
 0002:0000a988       $cppxdata$??Gvips@@YA?AVVImage@0@V10@@Z 0000000180041988     VImage.obj
 0002:0000a9b0       $cppxdata$??Zvips@@YAAEAVVImage@0@V10@V?$vector@NV?$allocator@N@std@@@std@@@Z 00000001800419b0     VImage.obj
 0002:0000a9d8       $cppxdata$??Zvips@@YAAEAVVImage@0@V10@N@Z 00000001800419d8     VImage.obj
 0002:0000aa00       $cppxdata$??Zvips@@YAAEAVVImage@0@V10@V10@@Z 0000000180041a00     VImage.obj
 0002:0000aa28       $cppxdata$??Gvips@@YA?AVVImage@0@V10@V?$vector@NV?$allocator@N@std@@@std@@@Z 0000000180041a28     VImage.obj
 0002:0000aa50       $cppxdata$??Gvips@@YA?AVVImage@0@V?$vector@NV?$allocator@N@std@@@std@@V10@@Z 0000000180041a50     VImage.obj
 0002:0000aa78       $cppxdata$??Gvips@@YA?AVVImage@0@V10@N@Z 0000000180041a78     VImage.obj
 0002:0000aaa0       $cppxdata$??Gvips@@YA?AVVImage@0@NV10@@Z 0000000180041aa0     VImage.obj
 0002:0000aac8       $cppxdata$??Gvips@@YA?AVVImage@0@V10@0@Z 0000000180041ac8     VImage.obj
 0002:0000aaf0       $cppxdata$??Yvips@@YAAEAVVImage@0@V10@V?$vector@NV?$allocator@N@std@@@std@@@Z 0000000180041af0     VImage.obj
 0002:0000ab18       $cppxdata$??Yvips@@YAAEAVVImage@0@V10@N@Z 0000000180041b18     VImage.obj
 0002:0000ab40       $cppxdata$??Yvips@@YAAEAVVImage@0@V10@V10@@Z 0000000180041b40     VImage.obj
 0002:0000ab68       $cppxdata$??Hvips@@YA?AVVImage@0@V10@V?$vector@NV?$allocator@N@std@@@std@@@Z 0000000180041b68     VImage.obj
 0002:0000ab90       $cppxdata$??Hvips@@YA?AVVImage@0@V?$vector@NV?$allocator@N@std@@@std@@V10@@Z 0000000180041b90     VImage.obj
 0002:0000abb8       $cppxdata$??Hvips@@YA?AVVImage@0@V10@N@Z 0000000180041bb8     VImage.obj
 0002:0000abe0       $cppxdata$??Hvips@@YA?AVVImage@0@NV10@@Z 0000000180041be0     VImage.obj
 0002:0000ac08       $cppxdata$??Hvips@@YA?AVVImage@0@V10@0@Z 0000000180041c08     VImage.obj
 0002:0000ac30       $cppxdata$?bandsplit@VImage@vips@@QEAA?AV?$vector@VVImage@vips@@V?$allocator@VVImage@vips@@@std@@@std@@PEAVVOption@2@@Z 0000000180041c30     VImage.obj
 0002:0000ac58       $cppxdata$?globalbalance@VImage@vips@@QEAA?AV12@PEAVVOption@2@@Z 0000000180041c58     VImage.obj
 0002:0000ac80       $cppxdata$?match@VImage@vips@@QEAA?AV12@V12@HHHHHHHHPEAVVOption@2@@Z 0000000180041c80     VImage.obj
 0002:0000aca8       $cppxdata$?mosaic1@VImage@vips@@QEAA?AV12@V12@W4VipsDirection@@HHHHHHHHPEAVVOption@2@@Z 0000000180041ca8     VImage.obj
 0002:0000acd0       $cppxdata$?mosaic@VImage@vips@@QEAA?AV12@V12@W4VipsDirection@@HHHHPEAVVOption@2@@Z 0000000180041cd0     VImage.obj
 0002:0000acf8       $cppxdata$?merge@VImage@vips@@QEAA?AV12@V12@W4VipsDirection@@HHPEAVVOption@2@@Z 0000000180041cf8     VImage.obj
 0002:0000ad20       $cppxdata$?draw_image@VImage@vips@@QEAAXV12@HHPEAVVOption@2@@Z 0000000180041d20     VImage.obj
 0002:0000ad48       $cppxdata$?draw_flood@VImage@vips@@QEAAXV?$vector@NV?$allocator@N@std@@@std@@HHPEAVVOption@2@@Z 0000000180041d48     VImage.obj
 0002:0000ad70       $cppxdata$?draw_circle@VImage@vips@@QEAAXV?$vector@NV?$allocator@N@std@@@std@@HHHPEAVVOption@2@@Z 0000000180041d70     VImage.obj
 0002:0000ad98       $cppxdata$?draw_line@VImage@vips@@QEAAXV?$vector@NV?$allocator@N@std@@@std@@HHHHPEAVVOption@2@@Z 0000000180041d98     VImage.obj
 0002:0000adc0       $cppxdata$?draw_mask@VImage@vips@@QEAAXV?$vector@NV?$allocator@N@std@@@std@@V12@HHPEAVVOption@2@@Z 0000000180041dc0     VImage.obj
 0002:0000ade8       $cppxdata$?draw_rect@VImage@vips@@QEAAXV?$vector@NV?$allocator@N@std@@@std@@HHHHPEAVVOption@2@@Z 0000000180041de8     VImage.obj
 0002:0000ae10       $cppxdata$?labelregions@VImage@vips@@QEAA?AV12@PEAVVOption@2@@Z 0000000180041e10     VImage.obj
 0002:0000ae38       $cppxdata$?phasecor@VImage@vips@@QEAA?AV12@V12@PEAVVOption@2@@Z 0000000180041e38     VImage.obj
 0002:0000ae60       $cppxdata$?spectrum@VImage@vips@@QEAA?AV12@PEAVVOption@2@@Z 0000000180041e60     VImage.obj
 0002:0000ae88       $cppxdata$?freqmult@VImage@vips@@QEAA?AV12@V12@PEAVVOption@2@@Z 0000000180041e88     VImage.obj
 0002:0000aeb0       $cppxdata$?invfft@VImage@vips@@QEAA?AV12@PEAVVOption@2@@Z 0000000180041eb0     VImage.obj
 0002:0000aed8       $cppxdata$?fwfft@VImage@vips@@QEAA?AV12@PEAVVOption@2@@Z 0000000180041ed8     VImage.obj
 0002:0000af00       $cppxdata$?gaussblur@VImage@vips@@QEAA?AV12@NPEAVVOption@2@@Z 0000000180041f00     VImage.obj
 0002:0000af28       $cppxdata$?sharpen@VImage@vips@@QEAA?AV12@PEAVVOption@2@@Z 0000000180041f28     VImage.obj
 0002:0000af50       $cppxdata$?spcor@VImage@vips@@QEAA?AV12@V12@PEAVVOption@2@@Z 0000000180041f50     VImage.obj
 0002:0000af78       $cppxdata$?fastcor@VImage@vips@@QEAA?AV12@V12@PEAVVOption@2@@Z 0000000180041f78     VImage.obj
 0002:0000afa0       $cppxdata$?convasep@VImage@vips@@QEAA?AV12@V12@PEAVVOption@2@@Z 0000000180041fa0     VImage.obj
 0002:0000afc8       $cppxdata$?convsep@VImage@vips@@QEAA?AV12@V12@PEAVVOption@2@@Z 0000000180041fc8     VImage.obj
 0002:0000aff0       $cppxdata$?compass@VImage@vips@@QEAA?AV12@V12@PEAVVOption@2@@Z 0000000180041ff0     VImage.obj
 0002:0000b018       $cppxdata$?convi@VImage@vips@@QEAA?AV12@V12@PEAVVOption@2@@Z 0000000180042018     VImage.obj
 0002:0000b040       $cppxdata$?convf@VImage@vips@@QEAA?AV12@V12@PEAVVOption@2@@Z 0000000180042040     VImage.obj
 0002:0000b068       $cppxdata$?conva@VImage@vips@@QEAA?AV12@V12@PEAVVOption@2@@Z 0000000180042068     VImage.obj
 0002:0000b090       $cppxdata$?conv@VImage@vips@@QEAA?AV12@V12@PEAVVOption@2@@Z 0000000180042090     VImage.obj
 0002:0000b0b8       $cppxdata$?hist_local@VImage@vips@@QEAA?AV12@HHPEAVVOption@2@@Z 00000001800420b8     VImage.obj
 0002:0000b0e0       $cppxdata$?hist_plot@VImage@vips@@QEAA?AV12@PEAVVOption@2@@Z 00000001800420e0     VImage.obj
 0002:0000b108       $cppxdata$?hist_equal@VImage@vips@@QEAA?AV12@PEAVVOption@2@@Z 0000000180042108     VImage.obj
 0002:0000b130       $cppxdata$?hist_norm@VImage@vips@@QEAA?AV12@PEAVVOption@2@@Z 0000000180042130     VImage.obj
 0002:0000b158       $cppxdata$?hist_match@VImage@vips@@QEAA?AV12@V12@PEAVVOption@2@@Z 0000000180042158     VImage.obj
 0002:0000b180       $cppxdata$?hist_cum@VImage@vips@@QEAA?AV12@PEAVVOption@2@@Z 0000000180042180     VImage.obj
 0002:0000b1a8       $cppxdata$?stdif@VImage@vips@@QEAA?AV12@HHPEAVVOption@2@@Z 00000001800421a8     VImage.obj
 0002:0000b1d0       $cppxdata$?maplut@VImage@vips@@QEAA?AV12@V12@PEAVVOption@2@@Z 00000001800421d0     VImage.obj
 0002:0000b1f8       $cppxdata$?scRGB2sRGB@VImage@vips@@QEAA?AV12@PEAVVOption@2@@Z 00000001800421f8     VImage.obj
 0002:0000b220       $cppxdata$?scRGB2BW@VImage@vips@@QEAA?AV12@PEAVVOption@2@@Z 0000000180042220     VImage.obj
 0002:0000b248       $cppxdata$?sRGB2scRGB@VImage@vips@@QEAA?AV12@PEAVVOption@2@@Z 0000000180042248     VImage.obj
 0002:0000b270       $cppxdata$?dECMC@VImage@vips@@QEAA?AV12@V12@PEAVVOption@2@@Z 0000000180042270     VImage.obj
 0002:0000b298       $cppxdata$?dE00@VImage@vips@@QEAA?AV12@V12@PEAVVOption@2@@Z 0000000180042298     VImage.obj
 0002:0000b2c0       $cppxdata$?dE76@VImage@vips@@QEAA?AV12@V12@PEAVVOption@2@@Z 00000001800422c0     VImage.obj
 0002:0000b2e8       $cppxdata$?icc_transform@VImage@vips@@QEAA?AV12@PEADPEAVVOption@2@@Z 00000001800422e8     VImage.obj
 0002:0000b310       $cppxdata$?icc_export@VImage@vips@@QEAA?AV12@PEAVVOption@2@@Z 0000000180042310     VImage.obj
 0002:0000b338       $cppxdata$?icc_import@VImage@vips@@QEAA?AV12@PEAVVOption@2@@Z 0000000180042338     VImage.obj
 0002:0000b360       $cppxdata$?HSV2sRGB@VImage@vips@@QEAA?AV12@PEAVVOption@2@@Z 0000000180042360     VImage.obj
 0002:0000b388       $cppxdata$?sRGB2HSV@VImage@vips@@QEAA?AV12@PEAVVOption@2@@Z 0000000180042388     VImage.obj
 0002:0000b3b0       $cppxdata$?LabQ2sRGB@VImage@vips@@QEAA?AV12@PEAVVOption@2@@Z 00000001800423b0     VImage.obj
 0002:0000b3d8       $cppxdata$?float2rad@VImage@vips@@QEAA?AV12@PEAVVOption@2@@Z 00000001800423d8     VImage.obj
 0002:0000b400       $cppxdata$?rad2float@VImage@vips@@QEAA?AV12@PEAVVOption@2@@Z 0000000180042400     VImage.obj
 0002:0000b428       $cppxdata$?Lab2LabS@VImage@vips@@QEAA?AV12@PEAVVOption@2@@Z 0000000180042428     VImage.obj
 0002:0000b450       $cppxdata$?LabS2Lab@VImage@vips@@QEAA?AV12@PEAVVOption@2@@Z 0000000180042450     VImage.obj
 0002:0000b478       $cppxdata$?LabS2LabQ@VImage@vips@@QEAA?AV12@PEAVVOption@2@@Z 0000000180042478     VImage.obj
 0002:0000b4a0       $cppxdata$?LabQ2LabS@VImage@vips@@QEAA?AV12@PEAVVOption@2@@Z 00000001800424a0     VImage.obj
 0002:0000b4c8       $cppxdata$?Lab2LabQ@VImage@vips@@QEAA?AV12@PEAVVOption@2@@Z 00000001800424c8     VImage.obj
 0002:0000b4f0       $cppxdata$?LabQ2Lab@VImage@vips@@QEAA?AV12@PEAVVOption@2@@Z 00000001800424f0     VImage.obj
 0002:0000b518       $cppxdata$?XYZ2scRGB@VImage@vips@@QEAA?AV12@PEAVVOption@2@@Z 0000000180042518     VImage.obj
 0002:0000b540       $cppxdata$?scRGB2XYZ@VImage@vips@@QEAA?AV12@PEAVVOption@2@@Z 0000000180042540     VImage.obj
 0002:0000b568       $cppxdata$?Yxy2XYZ@VImage@vips@@QEAA?AV12@PEAVVOption@2@@Z 0000000180042568     VImage.obj
 0002:0000b590       $cppxdata$?XYZ2Yxy@VImage@vips@@QEAA?AV12@PEAVVOption@2@@Z 0000000180042590     VImage.obj
 0002:0000b5b8       $cppxdata$?CMC2LCh@VImage@vips@@QEAA?AV12@PEAVVOption@2@@Z 00000001800425b8     VImage.obj
 0002:0000b5e0       $cppxdata$?LCh2CMC@VImage@vips@@QEAA?AV12@PEAVVOption@2@@Z 00000001800425e0     VImage.obj
 0002:0000b608       $cppxdata$?LCh2Lab@VImage@vips@@QEAA?AV12@PEAVVOption@2@@Z 0000000180042608     VImage.obj
 0002:0000b630       $cppxdata$?Lab2LCh@VImage@vips@@QEAA?AV12@PEAVVOption@2@@Z 0000000180042630     VImage.obj
 0002:0000b658       $cppxdata$?XYZ2Lab@VImage@vips@@QEAA?AV12@PEAVVOption@2@@Z 0000000180042658     VImage.obj
 0002:0000b680       $cppxdata$?Lab2XYZ@VImage@vips@@QEAA?AV12@PEAVVOption@2@@Z 0000000180042680     VImage.obj
 0002:0000b6a8       $cppxdata$?colourspace@VImage@vips@@QEAA?AV12@W4VipsInterpretation@@PEAVVOption@2@@Z 00000001800426a8     VImage.obj
 0002:0000b6d0       $cppxdata$?resize@VImage@vips@@QEAA?AV12@NPEAVVOption@2@@Z 00000001800426d0     VImage.obj
 0002:0000b6f8       $cppxdata$?similarity@VImage@vips@@QEAA?AV12@PEAVVOption@2@@Z 00000001800426f8     VImage.obj
 0002:0000b720       $cppxdata$?affine@VImage@vips@@QEAA?AV12@V?$vector@NV?$allocator@N@std@@@std@@PEAVVOption@2@@Z 0000000180042720     VImage.obj
 0002:0000b748       $cppxdata$?quadratic@VImage@vips@@QEAA?AV12@V12@PEAVVOption@2@@Z 0000000180042748     VImage.obj
 0002:0000b770       $cppxdata$?reduce@VImage@vips@@QEAA?AV12@NNPEAVVOption@2@@Z 0000000180042770     VImage.obj
 0002:0000b798       $cppxdata$?reducev@VImage@vips@@QEAA?AV12@NPEAVVOption@2@@Z 0000000180042798     VImage.obj
 0002:0000b7c0       $cppxdata$?reduceh@VImage@vips@@QEAA?AV12@NPEAVVOption@2@@Z 00000001800427c0     VImage.obj
 0002:0000b7e8       $cppxdata$?shrinkv@VImage@vips@@QEAA?AV12@HPEAVVOption@2@@Z 00000001800427e8     VImage.obj
 0002:0000b810       $cppxdata$?shrinkh@VImage@vips@@QEAA?AV12@HPEAVVOption@2@@Z 0000000180042810     VImage.obj
 0002:0000b838       $cppxdata$?shrink@VImage@vips@@QEAA?AV12@NNPEAVVOption@2@@Z 0000000180042838     VImage.obj
 0002:0000b860       $cppxdata$?mapim@VImage@vips@@QEAA?AV12@V12@PEAVVOption@2@@Z 0000000180042860     VImage.obj
 0002:0000b888       $cppxdata$?openexrload@VImage@vips@@SA?AV12@PEADPEAVVOption@2@@Z 0000000180042888     VImage.obj
 0002:0000b8b0       $cppxdata$?fitsload@VImage@vips@@SA?AV12@PEADPEAVVOption@2@@Z 00000001800428b0     VImage.obj
 0002:0000b8d8       $cppxdata$?magickload_buffer@VImage@vips@@SA?AV12@PEAU_VipsBlob@@PEAVVOption@2@@Z 00000001800428d8     VImage.obj
 0002:0000b900       $cppxdata$?magickload@VImage@vips@@SA?AV12@PEADPEAVVOption@2@@Z 0000000180042900     VImage.obj
 0002:0000b928       $cppxdata$?openslideload@VImage@vips@@SA?AV12@PEADPEAVVOption@2@@Z 0000000180042928     VImage.obj
 0002:0000b950       $cppxdata$?tiffload_buffer@VImage@vips@@SA?AV12@PEAU_VipsBlob@@PEAVVOption@2@@Z 0000000180042950     VImage.obj
 0002:0000b978       $cppxdata$?tiffload@VImage@vips@@SA?AV12@PEADPEAVVOption@2@@Z 0000000180042978     VImage.obj
 0002:0000b9a0       $cppxdata$?webpload_buffer@VImage@vips@@SA?AV12@PEAU_VipsBlob@@PEAVVOption@2@@Z 00000001800429a0     VImage.obj
 0002:0000b9c8       $cppxdata$?webpload@VImage@vips@@SA?AV12@PEADPEAVVOption@2@@Z 00000001800429c8     VImage.obj
 0002:0000b9f0       $cppxdata$?jpegload_buffer@VImage@vips@@SA?AV12@PEAU_VipsBlob@@PEAVVOption@2@@Z 00000001800429f0     VImage.obj
 0002:0000ba18       $cppxdata$?jpegload@VImage@vips@@SA?AV12@PEADPEAVVOption@2@@Z 0000000180042a18     VImage.obj
 0002:0000ba40       $cppxdata$?matload@VImage@vips@@SA?AV12@PEADPEAVVOption@2@@Z 0000000180042a40     VImage.obj
 0002:0000ba68       $cppxdata$?pngload_buffer@VImage@vips@@SA?AV12@PEAU_VipsBlob@@PEAVVOption@2@@Z 0000000180042a68     VImage.obj
 0002:0000ba90       $cppxdata$?pngload@VImage@vips@@SA?AV12@PEADPEAVVOption@2@@Z 0000000180042a90     VImage.obj
 0002:0000bab8       $cppxdata$?gifload_buffer@VImage@vips@@SA?AV12@PEAU_VipsBlob@@PEAVVOption@2@@Z 0000000180042ab8     VImage.obj
 0002:0000bae0       $cppxdata$?gifload@VImage@vips@@SA?AV12@PEADPEAVVOption@2@@Z 0000000180042ae0     VImage.obj
 0002:0000bb08       $cppxdata$?svgload_buffer@VImage@vips@@SA?AV12@PEAU_VipsBlob@@PEAVVOption@2@@Z 0000000180042b08     VImage.obj
 0002:0000bb30       $cppxdata$?svgload@VImage@vips@@SA?AV12@PEADPEAVVOption@2@@Z 0000000180042b30     VImage.obj
 0002:0000bb58       $cppxdata$?pdfload_buffer@VImage@vips@@SA?AV12@PEAU_VipsBlob@@PEAVVOption@2@@Z 0000000180042b58     VImage.obj
 0002:0000bb80       $cppxdata$?pdfload@VImage@vips@@SA?AV12@PEADPEAVVOption@2@@Z 0000000180042b80     VImage.obj
 0002:0000bba8       $cppxdata$?radload@VImage@vips@@SA?AV12@PEADPEAVVOption@2@@Z 0000000180042ba8     VImage.obj
 0002:0000bbd0       $cppxdata$?ppmload@VImage@vips@@SA?AV12@PEADPEAVVOption@2@@Z 0000000180042bd0     VImage.obj
 0002:0000bbf8       $cppxdata$?analyzeload@VImage@vips@@SA?AV12@PEADPEAVVOption@2@@Z 0000000180042bf8     VImage.obj
 0002:0000bc20       $cppxdata$?vipsload@VImage@vips@@SA?AV12@PEADPEAVVOption@2@@Z 0000000180042c20     VImage.obj
 0002:0000bc48       $cppxdata$?rawload@VImage@vips@@SA?AV12@PEADHHHPEAVVOption@2@@Z 0000000180042c48     VImage.obj
 0002:0000bc70       $cppxdata$?matrixload@VImage@vips@@SA?AV12@PEADPEAVVOption@2@@Z 0000000180042c70     VImage.obj
 0002:0000bc98       $cppxdata$?csvload@VImage@vips@@SA?AV12@PEADPEAVVOption@2@@Z 0000000180042c98     VImage.obj
 0002:0000bcc0       $cppxdata$?perlin@VImage@vips@@SA?AV12@HHPEAVVOption@2@@Z 0000000180042cc0     VImage.obj
 0002:0000bce8       $cppxdata$?worley@VImage@vips@@SA?AV12@HHPEAVVOption@2@@Z 0000000180042ce8     VImage.obj
 0002:0000bd10       $cppxdata$?fractsurf@VImage@vips@@SA?AV12@HHNPEAVVOption@2@@Z 0000000180042d10     VImage.obj
 0002:0000bd38       $cppxdata$?identity@VImage@vips@@SA?AV12@PEAVVOption@2@@Z 0000000180042d38     VImage.obj
 0002:0000bd60       $cppxdata$?tonelut@VImage@vips@@SA?AV12@PEAVVOption@2@@Z 0000000180042d60     VImage.obj
 0002:0000bd88       $cppxdata$?invertlut@VImage@vips@@QEAA?AV12@PEAVVOption@2@@Z 0000000180042d88     VImage.obj
 0002:0000bdb0       $cppxdata$?buildlut@VImage@vips@@QEAA?AV12@PEAVVOption@2@@Z 0000000180042db0     VImage.obj
 0002:0000bdd8       $cppxdata$?mask_fractal@VImage@vips@@SA?AV12@HHNPEAVVOption@2@@Z 0000000180042dd8     VImage.obj
 0002:0000be00       $cppxdata$?mask_gaussian_band@VImage@vips@@SA?AV12@HHNNNNPEAVVOption@2@@Z 0000000180042e00     VImage.obj
 0002:0000be28       $cppxdata$?mask_gaussian_ring@VImage@vips@@SA?AV12@HHNNNPEAVVOption@2@@Z 0000000180042e28     VImage.obj
 0002:0000be50       $cppxdata$?mask_gaussian@VImage@vips@@SA?AV12@HHNNPEAVVOption@2@@Z 0000000180042e50     VImage.obj
 0002:0000be78       $cppxdata$?mask_butterworth_band@VImage@vips@@SA?AV12@HHNNNNNPEAVVOption@2@@Z 0000000180042e78     VImage.obj
 0002:0000bea0       $cppxdata$?mask_butterworth_ring@VImage@vips@@SA?AV12@HHNNNNPEAVVOption@2@@Z 0000000180042ea0     VImage.obj
 0002:0000bec8       $cppxdata$?mask_butterworth@VImage@vips@@SA?AV12@HHNNNPEAVVOption@2@@Z 0000000180042ec8     VImage.obj
 0002:0000bef0       $cppxdata$?mask_ideal_band@VImage@vips@@SA?AV12@HHNNNPEAVVOption@2@@Z 0000000180042ef0     VImage.obj
 0002:0000bf18       $cppxdata$?mask_ideal_ring@VImage@vips@@SA?AV12@HHNNPEAVVOption@2@@Z 0000000180042f18     VImage.obj
 0002:0000bf40       $cppxdata$?mask_ideal@VImage@vips@@SA?AV12@HHNPEAVVOption@2@@Z 0000000180042f40     VImage.obj
 0002:0000bf68       $cppxdata$?sines@VImage@vips@@SA?AV12@HHPEAVVOption@2@@Z 0000000180042f68     VImage.obj
 0002:0000bf90       $cppxdata$?zone@VImage@vips@@SA?AV12@HHPEAVVOption@2@@Z 0000000180042f90     VImage.obj
 0002:0000bfb8       $cppxdata$?grey@VImage@vips@@SA?AV12@HHPEAVVOption@2@@Z 0000000180042fb8     VImage.obj
 0002:0000bfe0       $cppxdata$?eye@VImage@vips@@SA?AV12@HHPEAVVOption@2@@Z 0000000180042fe0     VImage.obj
 0002:0000c008       $cppxdata$?logmat@VImage@vips@@SA?AV12@NNPEAVVOption@2@@Z 0000000180043008     VImage.obj
 0002:0000c030       $cppxdata$?gaussmat@VImage@vips@@SA?AV12@NNPEAVVOption@2@@Z 0000000180043030     VImage.obj
 0002:0000c058       $cppxdata$?xyz@VImage@vips@@SA?AV12@HHPEAVVOption@2@@Z 0000000180043058     VImage.obj
 0002:0000c080       $cppxdata$?text@VImage@vips@@SA?AV12@PEADPEAVVOption@2@@Z 0000000180043080     VImage.obj
 0002:0000c0a8       $cppxdata$?gaussnoise@VImage@vips@@SA?AV12@HHPEAVVOption@2@@Z 00000001800430a8     VImage.obj
 0002:0000c0d0       $cppxdata$?black@VImage@vips@@SA?AV12@HHPEAVVOption@2@@Z 00000001800430d0     VImage.obj
 0002:0000c0f8       $cppxdata$?gamma@VImage@vips@@QEAA?AV12@PEAVVOption@2@@Z 00000001800430f8     VImage.obj
 0002:0000c120       $cppxdata$?falsecolour@VImage@vips@@QEAA?AV12@PEAVVOption@2@@Z 0000000180043120     VImage.obj
 0002:0000c148       $cppxdata$?byteswap@VImage@vips@@QEAA?AV12@PEAVVOption@2@@Z 0000000180043148     VImage.obj
 0002:0000c170       $cppxdata$?msb@VImage@vips@@QEAA?AV12@PEAVVOption@2@@Z 0000000180043170     VImage.obj
 0002:0000c198       $cppxdata$?subsample@VImage@vips@@QEAA?AV12@HHPEAVVOption@2@@Z 0000000180043198     VImage.obj
 0002:0000c1c0       $cppxdata$?zoom@VImage@vips@@QEAA?AV12@HHPEAVVOption@2@@Z 00000001800431c0     VImage.obj
 0002:0000c1e8       $cppxdata$?wrap@VImage@vips@@QEAA?AV12@PEAVVOption@2@@Z 00000001800431e8     VImage.obj
 0002:0000c210       $cppxdata$?scale@VImage@vips@@QEAA?AV12@PEAVVOption@2@@Z 0000000180043210     VImage.obj
 0002:0000c238       $cppxdata$?grid@VImage@vips@@QEAA?AV12@HHHPEAVVOption@2@@Z 0000000180043238     VImage.obj
 0002:0000c260       $cppxdata$?unpremultiply@VImage@vips@@QEAA?AV12@PEAVVOption@2@@Z 0000000180043260     VImage.obj
 0002:0000c288       $cppxdata$?premultiply@VImage@vips@@QEAA?AV12@PEAVVOption@2@@Z 0000000180043288     VImage.obj
 0002:0000c2b0       $cppxdata$?flatten@VImage@vips@@QEAA?AV12@PEAVVOption@2@@Z 00000001800432b0     VImage.obj
 0002:0000c2d8       $cppxdata$?bandunfold@VImage@vips@@QEAA?AV12@PEAVVOption@2@@Z 00000001800432d8     VImage.obj
 0002:0000c300       $cppxdata$?bandfold@VImage@vips@@QEAA?AV12@PEAVVOption@2@@Z 0000000180043300     VImage.obj
 0002:0000c328       $cppxdata$?recomb@VImage@vips@@QEAA?AV12@V12@PEAVVOption@2@@Z 0000000180043328     VImage.obj
 0002:0000c350       $cppxdata$?autorot@VImage@vips@@QEAA?AV12@PEAVVOption@2@@Z 0000000180043350     VImage.obj
 0002:0000c378       $cppxdata$?rot45@VImage@vips@@QEAA?AV12@PEAVVOption@2@@Z 0000000180043378     VImage.obj
 0002:0000c3a0       $cppxdata$?cast@VImage@vips@@QEAA?AV12@W4VipsBandFormat@@PEAVVOption@2@@Z 00000001800433a0     VImage.obj
 0002:0000c3c8       $cppxdata$?replicate@VImage@vips@@QEAA?AV12@HHPEAVVOption@2@@Z 00000001800433c8     VImage.obj
 0002:0000c3f0       $cppxdata$?bandbool@VImage@vips@@QEAA?AV12@W4VipsOperationBoolean@@PEAVVOption@2@@Z 00000001800433f0     VImage.obj
 0002:0000c418       $cppxdata$?bandmean@VImage@vips@@QEAA?AV12@PEAVVOption@2@@Z 0000000180043418     VImage.obj
 0002:0000c440       $cppxdata$?bandrank@VImage@vips@@SA?AV12@V?$vector@VVImage@vips@@V?$allocator@VVImage@vips@@@std@@@std@@PEAVVOption@2@@Z 0000000180043440     VImage.obj
 0002:0000c468       $cppxdata$?bandjoin_const@VImage@vips@@QEAA?AV12@V?$vector@NV?$allocator@N@std@@@std@@PEAVVOption@2@@Z 0000000180043468     VImage.obj
 0002:0000c490       $cppxdata$?bandjoin@VImage@vips@@SA?AV12@V?$vector@VVImage@vips@@V?$allocator@VVImage@vips@@@std@@@std@@PEAVVOption@2@@Z 0000000180043490     VImage.obj
 0002:0000c4b8       $cppxdata$?extract_band@VImage@vips@@QEAA?AV12@HPEAVVOption@2@@Z 00000001800434b8     VImage.obj
 0002:0000c4e0       $cppxdata$?extract_area@VImage@vips@@QEAA?AV12@HHHHPEAVVOption@2@@Z 00000001800434e0     VImage.obj
 0002:0000c508       $cppxdata$?arrayjoin@VImage@vips@@SA?AV12@V?$vector@VVImage@vips@@V?$allocator@VVImage@vips@@@std@@@std@@PEAVVOption@2@@Z 0000000180043508     VImage.obj
 0002:0000c530       $cppxdata$?join@VImage@vips@@QEAA?AV12@V12@W4VipsDirection@@PEAVVOption@2@@Z 0000000180043530     VImage.obj
 0002:0000c558       $cppxdata$?insert@VImage@vips@@QEAA?AV12@V12@HHPEAVVOption@2@@Z 0000000180043558     VImage.obj
 0002:0000c580       $cppxdata$?embed@VImage@vips@@QEAA?AV12@HHHHPEAVVOption@2@@Z 0000000180043580     VImage.obj
 0002:0000c5a8       $cppxdata$?cache@VImage@vips@@QEAA?AV12@PEAVVOption@2@@Z 00000001800435a8     VImage.obj
 0002:0000c5d0       $cppxdata$?sequential@VImage@vips@@QEAA?AV12@PEAVVOption@2@@Z 00000001800435d0     VImage.obj
 0002:0000c5f8       $cppxdata$?linecache@VImage@vips@@QEAA?AV12@PEAVVOption@2@@Z 00000001800435f8     VImage.obj
 0002:0000c620       $cppxdata$?tilecache@VImage@vips@@QEAA?AV12@PEAVVOption@2@@Z 0000000180043620     VImage.obj
 0002:0000c648       $cppxdata$?copy@VImage@vips@@QEAA?AV12@PEAVVOption@2@@Z 0000000180043648     VImage.obj
 0002:0000c670       $cppxdata$?getpoint@VImage@vips@@QEAA?AV?$vector@NV?$allocator@N@std@@@std@@HHPEAVVOption@2@@Z 0000000180043670     VImage.obj
 0002:0000c698       $cppxdata$?measure@VImage@vips@@QEAA?AV12@HHPEAVVOption@2@@Z 0000000180043698     VImage.obj
 0002:0000c6c0       $cppxdata$?profile@VImage@vips@@QEAA?AV12@PEAV12@PEAVVOption@2@@Z 00000001800436c0     VImage.obj
 0002:0000c6e8       $cppxdata$?project@VImage@vips@@QEAA?AV12@PEAV12@PEAVVOption@2@@Z 00000001800436e8     VImage.obj
 0002:0000c710       $cppxdata$?hough_circle@VImage@vips@@QEAA?AV12@PEAVVOption@2@@Z 0000000180043710     VImage.obj
 0002:0000c738       $cppxdata$?hough_line@VImage@vips@@QEAA?AV12@PEAVVOption@2@@Z 0000000180043738     VImage.obj
 0002:0000c760       $cppxdata$?hist_find_indexed@VImage@vips@@QEAA?AV12@V12@PEAVVOption@2@@Z 0000000180043760     VImage.obj
 0002:0000c788       $cppxdata$?hist_find_ndim@VImage@vips@@QEAA?AV12@PEAVVOption@2@@Z 0000000180043788     VImage.obj
 0002:0000c7b0       $cppxdata$?hist_find@VImage@vips@@QEAA?AV12@PEAVVOption@2@@Z 00000001800437b0     VImage.obj
 0002:0000c7d8       $cppxdata$?stats@VImage@vips@@QEAA?AV12@PEAVVOption@2@@Z 00000001800437d8     VImage.obj
 0002:0000c800       $cppxdata$?boolean_const@VImage@vips@@QEAA?AV12@V?$vector@NV?$allocator@N@std@@@std@@W4VipsOperationBoolean@@PEAVVOption@2@@Z 0000000180043800     VImage.obj
 0002:0000c828       $cppxdata$?remainder_const@VImage@vips@@QEAA?AV12@V?$vector@NV?$allocator@N@std@@@std@@PEAVVOption@2@@Z 0000000180043828     VImage.obj
 0002:0000c850       $cppxdata$?relational_const@VImage@vips@@QEAA?AV12@V?$vector@NV?$allocator@N@std@@@std@@W4VipsOperationRelational@@PEAVVOption@2@@Z 0000000180043850     VImage.obj
 0002:0000c878       $cppxdata$?sign@VImage@vips@@QEAA?AV12@PEAVVOption@2@@Z 0000000180043878     VImage.obj
 0002:0000c8a0       $cppxdata$?abs@VImage@vips@@QEAA?AV12@PEAVVOption@2@@Z 00000001800438a0     VImage.obj
 0002:0000c8c8       $cppxdata$?invert@VImage@vips@@QEAA?AV12@PEAVVOption@2@@Z 00000001800438c8     VImage.obj
 0002:0000c8f0       $cppxdata$?sum@VImage@vips@@SA?AV12@V?$vector@VVImage@vips@@V?$allocator@VVImage@vips@@@std@@@std@@PEAVVOption@2@@Z 00000001800438f0     VImage.obj
 0002:0000c918       $cppxdata$?complexform@VImage@vips@@QEAA?AV12@V12@PEAVVOption@2@@Z 0000000180043918     VImage.obj
 0002:0000c940       $cppxdata$?complex2@VImage@vips@@QEAA?AV12@V12@W4VipsOperationComplex2@@PEAVVOption@2@@Z 0000000180043940     VImage.obj
 0002:0000c968       $cppxdata$?boolean@VImage@vips@@QEAA?AV12@V12@W4VipsOperationBoolean@@PEAVVOption@2@@Z 0000000180043968     VImage.obj
 0002:0000c990       $cppxdata$?remainder@VImage@vips@@QEAA?AV12@V12@PEAVVOption@2@@Z 0000000180043990     VImage.obj
 0002:0000c9b8       $cppxdata$?relational@VImage@vips@@QEAA?AV12@V12@W4VipsOperationRelational@@PEAVVOption@2@@Z 00000001800439b8     VImage.obj
 0002:0000c9e0       $cppxdata$?divide@VImage@vips@@QEAA?AV12@V12@PEAVVOption@2@@Z 00000001800439e0     VImage.obj
 0002:0000ca08       $cppxdata$?multiply@VImage@vips@@QEAA?AV12@V12@PEAVVOption@2@@Z 0000000180043a08     VImage.obj
 0002:0000ca30       $cppxdata$?subtract@VImage@vips@@QEAA?AV12@V12@PEAVVOption@2@@Z 0000000180043a30     VImage.obj
 0002:0000ca58       $cppxdata$?add@VImage@vips@@QEAA?AV12@V12@PEAVVOption@2@@Z 0000000180043a58     VImage.obj
 0002:0000ca80       $cppxdata$?write_to_buffer@VImage@vips@@QEAAXPEBDPEAPEAXPEA_KPEAVVOption@2@@Z 0000000180043a80     VImage.obj
 0002:0000caa8       $cppxdata$?write_to_file@VImage@vips@@QEAAXPEBDPEAVVOption@2@@Z 0000000180043aa8     VImage.obj
 0002:0000cad0       $cppxdata$?write@VImage@vips@@QEAA?AV12@V12@@Z 0000000180043ad0     VImage.obj
 0002:0000caf8       $cppxdata$?new_from_buffer@VImage@vips@@SA?AV12@PEAX_KPEBDPEAVVOption@2@@Z 0000000180043af8     VImage.obj
 0002:0000cb20       $cppxdata$?new_from_file@VImage@vips@@SA?AV12@PEBDPEAVVOption@2@@Z 0000000180043b20     VImage.obj
 0002:0000cb48       $cppxdata$?call_option_string@VImage@vips@@SAXPEBD0PEAVVOption@2@@Z 0000000180043b48     VImage.obj
 0002:0000cb70       $cppxdata$?set@VOption@vips@@QEAAPEAV12@PEBDV?$vector@VVImage@vips@@V?$allocator@VVImage@vips@@@std@@@std@@@Z 0000000180043b70     VImage.obj
 0002:0000cb98       $cppxdata$?set@VOption@vips@@QEAAPEAV12@PEBDV?$vector@NV?$allocator@N@std@@@std@@@Z 0000000180043b98     VImage.obj
 0002:0000cbc0       $cppxdata$?set@VOption@vips@@QEAAPEAV12@PEBDVVImage@2@@Z 0000000180043bc0     VImage.obj
 0002:0000cbe8       $cppxdata$?invert@vips@@YA?AV?$vector@NV?$allocator@N@std@@@std@@V23@@Z 0000000180043be8     VImage.obj
 0002:0000cc10       $cppxdata$?negate@vips@@YA?AV?$vector@NV?$allocator@N@std@@@std@@V23@@Z 0000000180043c10     VImage.obj
 0002:0000cc38       $cppxdata$?rank@VImage@vips@@QEAA?AV12@HHHPEAVVOption@2@@Z 0000000180043c38     VImage.obj
 0002:0000cc60       $cppxdata$?morph@VImage@vips@@QEAA?AV12@V12@W4VipsOperationMorphology@@PEAVVOption@2@@Z 0000000180043c60     VImage.obj
 0002:0000cc88       $cppxdata$?ifthenelse@VImage@vips@@QEAA?AV12@V12@0PEAVVOption@2@@Z 0000000180043c88     VImage.obj
 0002:0000ccb0       $cppxdata$?rot@VImage@vips@@QEAA?AV12@W4VipsAngle@@PEAVVOption@2@@Z 0000000180043cb0     VImage.obj
 0002:0000ccd8       $cppxdata$?bandjoin@VImage@vips@@QEAA?AV12@V12@PEAVVOption@2@@Z 0000000180043cd8     VImage.obj
 0002:0000cd00       $cppxdata$?flip@VImage@vips@@QEAA?AV12@W4VipsDirection@@PEAVVOption@2@@Z 0000000180043d00     VImage.obj
 0002:0000cd28       $cppxdata$?complexget@VImage@vips@@QEAA?AV12@W4VipsOperationComplexget@@PEAVVOption@2@@Z 0000000180043d28     VImage.obj
 0002:0000cd50       $cppxdata$?complex@VImage@vips@@QEAA?AV12@W4VipsOperationComplex@@PEAVVOption@2@@Z 0000000180043d50     VImage.obj
 0002:0000cd78       $cppxdata$?math2_const@VImage@vips@@QEAA?AV12@V?$vector@NV?$allocator@N@std@@@std@@W4VipsOperationMath2@@PEAVVOption@2@@Z 0000000180043d78     VImage.obj
 0002:0000cda0       $cppxdata$?round@VImage@vips@@QEAA?AV12@W4VipsOperationRound@@PEAVVOption@2@@Z 0000000180043da0     VImage.obj
 0002:0000cdc8       $cppxdata$?math@VImage@vips@@QEAA?AV12@W4VipsOperationMath@@PEAVVOption@2@@Z 0000000180043dc8     VImage.obj
 0002:0000cdf0       $cppxdata$?linear@VImage@vips@@QEAA?AV12@V?$vector@NV?$allocator@N@std@@@std@@0PEAVVOption@2@@Z 0000000180043df0     VImage.obj
 0002:0000ce18       $cppxdata$?math2@VImage@vips@@QEAA?AV12@V12@W4VipsOperationMath2@@PEAVVOption@2@@Z 0000000180043e18     VImage.obj
 0002:0000ce40       $cppxdata$?new_from_image@VImage@vips@@QEAA?AV12@V?$vector@NV?$allocator@N@std@@@std@@@Z 0000000180043e40     VImage.obj
 0002:0000d880       $unwind$?guess_interpretation@VImage@vips@@QEAA?AW4VipsInterpretation@@XZ 0000000180044880     VError.obj
 0002:0000d880       $unwind$?conj@VImage@vips@@QEAA?AV12@PEAVVOption@2@@Z 0000000180044880     VError.obj
 0002:0000d880       $unwind$?width@VImage@vips@@QEAAHXZ 0000000180044880     VError.obj
 0002:0000d880       $unwind$?imag@VImage@vips@@QEAA?AV12@PEAVVOption@2@@Z 0000000180044880     VError.obj
 0002:0000d880       $unwind$?xoffset@VImage@vips@@QEAANXZ 0000000180044880     VError.obj
 0002:0000d880       $unwind$?rect@VImage@vips@@QEAA?AV12@PEAVVOption@2@@Z 0000000180044880     VError.obj
 0002:0000d880       $unwind$?xres@VImage@vips@@QEAANXZ 0000000180044880     VError.obj
 0002:0000d880       $unwind$?polar@VImage@vips@@QEAA?AV12@PEAVVOption@2@@Z 0000000180044880     VError.obj
 0002:0000d880       $unwind$?format@VImage@vips@@QEAA?AW4VipsBandFormat@@XZ 0000000180044880     VError.obj
 0002:0000d880       $unwind$?real@VImage@vips@@QEAA?AV12@PEAVVOption@2@@Z 0000000180044880     VError.obj
 0002:0000d880       $unwind$?sin@VImage@vips@@QEAA?AV12@PEAVVOption@2@@Z 0000000180044880     VError.obj
 0002:0000d880       $unwind$?to_vector@vips@@YA?AV?$vector@NV?$allocator@N@std@@@std@@N@Z 0000000180044880     VImage.obj
 0002:0000d880       $unwind$?exp10@VImage@vips@@QEAA?AV12@PEAVVOption@2@@Z 0000000180044880     VError.obj
 0002:0000d880       $unwind$?message@_Iostream_error_category@std@@UEBA?AV?$basic_string@DU?$char_traits@D@std@@V?$allocator@D@2@@2@H@Z 0000000180044880     VError.obj
 0002:0000d880       $unwind$?rint@VImage@vips@@QEAA?AV12@PEAVVOption@2@@Z 0000000180044880     VError.obj
 0002:0000d880       $unwind$?bands@VImage@vips@@QEAAHXZ 0000000180044880     VError.obj
 0002:0000d880       $unwind$?ceil@VImage@vips@@QEAA?AV12@PEAVVOption@2@@Z 0000000180044880     VError.obj
 0002:0000d880       $unwind$?exp@VImage@vips@@QEAA?AV12@PEAVVOption@2@@Z 0000000180044880     VError.obj
 0002:0000d880       $unwind$?interpretation@VImage@vips@@QEAA?AW4VipsInterpretation@@XZ 0000000180044880     VError.obj
 0002:0000d880       $unwind$?get_image@VImage@vips@@QEAAPEAU_VipsImage@@XZ 0000000180044880     VError.obj
 0002:0000d880       $unwind$?yoffset@VImage@vips@@QEAANXZ 0000000180044880     VError.obj
 0002:0000d880       $unwind$?equivalent@error_category@std@@UEBA_NHAEBVerror_condition@2@@Z 0000000180044880     VError.obj
 0002:0000d880       $unwind$?log10@VImage@vips@@QEAA?AV12@PEAVVOption@2@@Z 0000000180044880     VError.obj
 0002:0000d880       $unwind$?_Raise@exception@stdext@@QEBAXXZ 0000000180044880     VError.obj
 0002:0000d880       $unwind$?floor@VImage@vips@@QEAA?AV12@PEAVVOption@2@@Z 0000000180044880     VError.obj
 0002:0000d880       $unwind$?log@VImage@vips@@QEAA?AV12@PEAVVOption@2@@Z 0000000180044880     VError.obj
 0002:0000d880       $unwind$?rot270@VImage@vips@@QEAA?AV12@PEAVVOption@2@@Z 0000000180044880     VError.obj
 0002:0000d880       $unwind$?atan@VImage@vips@@QEAA?AV12@PEAVVOption@2@@Z 0000000180044880     VError.obj
 0002:0000d880       $unwind$?message@error_code@std@@QEBA?AV?$basic_string@DU?$char_traits@D@std@@V?$allocator@D@2@@2@XZ 0000000180044880     VError.obj
 0002:0000d880       $unwind$?rot180@VImage@vips@@QEAA?AV12@PEAVVOption@2@@Z 0000000180044880     VError.obj
 0002:0000d880       $unwind$?acos@VImage@vips@@QEAA?AV12@PEAVVOption@2@@Z 0000000180044880     VError.obj
 0002:0000d880       $unwind$?rot90@VImage@vips@@QEAA?AV12@PEAVVOption@2@@Z 0000000180044880     VError.obj
 0002:0000d880       $unwind$?asin@VImage@vips@@QEAA?AV12@PEAVVOption@2@@Z 0000000180044880     VError.obj
 0002:0000d880       $unwind$?coding@VImage@vips@@QEAA?AW4VipsCoding@@XZ 0000000180044880     VError.obj
 0002:0000d880       $unwind$?flipver@VImage@vips@@QEAA?AV12@PEAVVOption@2@@Z 0000000180044880     VError.obj
 0002:0000d880       $unwind$?height@VImage@vips@@QEAAHXZ 0000000180044880     VError.obj
 0002:0000d880       $unwind$?fliphor@VImage@vips@@QEAA?AV12@PEAVVOption@2@@Z 0000000180044880     VError.obj
 0002:0000d880       $unwind$?filename@VImage@vips@@QEAAPEBDXZ 0000000180044880     VError.obj
 0002:0000d880       $unwind$??AVImage@vips@@QEAA?AV01@H@Z 0000000180044880     VImage.obj
 0002:0000d880       $unwind$??0length_error@std@@QEAA@PEBD@Z 0000000180044880     libcpmt:xthrow.obj
 0002:0000d880       $unwind$?tan@VImage@vips@@QEAA?AV12@PEAVVOption@2@@Z 0000000180044880     VError.obj
 0002:0000d880       $unwind$??1VImage@vips@@QEAA@XZ 0000000180044880     VError.obj
 0002:0000d880       $unwind$?cos@VImage@vips@@QEAA?AV12@PEAVVOption@2@@Z 0000000180044880     VError.obj
 0002:0000d880       $unwind$??0out_of_range@std@@QEAA@PEBD@Z 0000000180044880     libcpmt:xthrow.obj
 0002:0000d880       $unwind$?get_interpolate@VInterpolate@vips@@QEAAPEAU_VipsInterpolate@@XZ 0000000180044880     VError.obj
 0002:0000d880       $unwind$?data@VImage@vips@@QEAAPEBXXZ 0000000180044880     VError.obj
 0002:0000d880       $unwind$?yres@VImage@vips@@QEAANXZ 0000000180044880     VError.obj
 0002:0000d880       $unwind$??1VInterpolate@vips@@QEAA@XZ 0000000180044880     VError.obj
 0002:0000d888       $unwind$__scrt_initialize_crt 0000000180044888     LIBCMT:utility.obj
 0002:0000d888       $unwind$__vcrt_uninitialize_locks 0000000180044888     libvcruntime:locks.obj
 0002:0000d888       $unwind$_fflush_nolock     0000000180044888     libucrt:fflush.obj
 0002:0000d888       $unwind$??4VOption@vips@@QEAAAEAV01@AEBV01@@Z 0000000180044888     VError.obj
 0002:0000d888       $unwind$?exit_or_terminate_process@@YAXI@Z 0000000180044888     libucrt:exit.obj
 0002:0000d888       $unwind$??_Gruntime_error@std@@UEAAPEAXI@Z 0000000180044888     VError.obj
 0002:0000d888       $unwind$__vcrt_initialize_locks 0000000180044888     libvcruntime:locks.obj
 0002:0000d888       $unwind$__acrt_uninitialize_stdio 0000000180044888     libucrt:_file.obj
 0002:0000d888       $unwind$__acrt_allocate_buffer_for_argv 0000000180044888     libucrt:argv_parsing.obj
 0002:0000d888       $unwind$??0VOption@vips@@QEAA@AEBV01@@Z 0000000180044888     VError.obj
 0002:0000d888       $unwind$__scrt_uninitialize_crt 0000000180044888     LIBCMT:utility.obj
 0002:0000d888       $unwind$__acrt_stdio_free_buffer_nolock 0000000180044888     libucrt:_freebuf.obj
 0002:0000d888       $unwind$strcpy_s           0000000180044888     libucrt:strcpy_s.obj
 0002:0000d888       $unwind$??1?$vector@VVImage@vips@@V?$allocator@VVImage@vips@@@std@@@std@@QEAA@XZ 0000000180044888     VImage.obj
 0002:0000d888       $unwind$__scrt_release_startup_lock 0000000180044888     LIBCMT:utility.obj
 0002:0000d888       $unwind$??_Gerror_category@std@@UEAAPEAXI@Z 0000000180044888     VError.obj
 0002:0000d888       $unwind$__std_type_info_destroy_list 0000000180044888     libvcruntime:std_type_info.obj
 0002:0000d888       $unwind$??0exception@std@@QEAA@AEBV01@@Z 0000000180044888     libcpmt:xthrow.obj
 0002:0000d888       $unwind$??0bad_alloc@std@@QEAA@AEBV01@@Z 0000000180044888     libcpmt:xthrow.obj
 0002:0000d888       $unwind$__std_exception_destroy 0000000180044888     libvcruntime:std_exception.obj
 0002:0000d888       $unwind$??_Gexception@stdext@@UEAAPEAXI@Z 0000000180044888     VError.obj
 0002:0000d888       $unwind$??0logic_error@std@@QEAA@AEBV01@@Z 0000000180044888     libcpmt:xthrow.obj
 0002:0000d888       $unwind$??0length_error@std@@QEAA@AEBV01@@Z 0000000180044888     libcpmt:xthrow.obj
 0002:0000d888       $unwind$??0out_of_range@std@@QEAA@AEBV01@@Z 0000000180044888     libcpmt:xthrow.obj
 0002:0000d888       $unwind$??4VImage@vips@@QEAAAEAV01@AEBV01@@Z 0000000180044888     VError.obj
 0002:0000d888       $unwind$_onexit            0000000180044888     LIBCMT:utility.obj
 0002:0000d888       $unwind$??4VImage@vips@@QEAAAEAV01@$$QEAV01@@Z 0000000180044888     VError.obj
 0002:0000d888       $unwind$__raise_securityfailure 0000000180044888     LIBCMT:gs_report.obj
 0002:0000d888       $unwind$??0VInterpolate@vips@@QEAA@PEAU_VipsInterpolate@@W4VSteal@1@@Z 0000000180044888     VError.obj
 0002:0000d888       $unwind$??_Gtype_info@@UEAAPEAXI@Z 0000000180044888     LIBCMT:std_type_info_static.obj
 0002:0000d888       $unwind$??2@YAPEAX_K@Z     0000000180044888     LIBCMT:new_scalar.obj
 0002:0000d888       $unwind$??0bad_exception@std@@QEAA@AEBV01@@Z 0000000180044888     libvcruntime:frame.obj
 0002:0000d888       $unwind$??4VInterpolate@vips@@QEAAAEAV01@AEBV01@@Z 0000000180044888     VError.obj
 0002:0000d888       $unwind$??4VError@vips@@QEAAAEAV01@AEBV01@@Z 0000000180044888     VError.obj
 0002:0000d888       $unwind$__acrt_update_locale_info 0000000180044888     libucrt:locale_update.obj
 0002:0000d888       $unwind$??0bad_array_new_length@std@@QEAA@AEBV01@@Z 0000000180044888     LIBCMT:throw_bad_alloc.obj
 0002:0000d888       $unwind$??4VInterpolate@vips@@QEAAAEAV01@$$QEAV01@@Z 0000000180044888     VError.obj
 0002:0000d888       $unwind$__acrt_update_multibyte_info 0000000180044888     libucrt:locale_update.obj
 0002:0000d888       $unwind$_Init_thread_header 0000000180044888     LIBCMT:thread_safe_statics.obj
 0002:0000d888       $unwind$_Init_thread_footer 0000000180044888     LIBCMT:thread_safe_statics.obj
 0002:0000d888       $unwind$_Init_thread_notify 0000000180044888     LIBCMT:thread_safe_statics.obj
 0002:0000d888       $unwind$??1?$vector@NV?$allocator@N@std@@@std@@QEAA@XZ 0000000180044888     VError.obj
 0002:0000d888       $unwind$?new_memory@VImage@vips@@SA?AV12@XZ 0000000180044888     VError.obj
 0002:0000d888       $unwind$??1?$basic_string@DU?$char_traits@D@std@@V?$allocator@D@2@@std@@QEAA@XZ 0000000180044888     VError.obj
 0002:0000d888       $unwind$??1VError@vips@@UEAA@XZ 0000000180044888     VError.obj
 0002:0000d888       $unwind$_set_statfp        0000000180044888     libucrt:fpctrl.obj
 0002:0000d888       $unwind$__acrt_uninitialize_winapi_thunks 0000000180044888     libucrt:winapi_thunks.obj
 0002:0000d888       $unwind$__vcrt_freeptd     0000000180044888     libvcruntime:per_thread_data.obj
 0002:0000d888       $unwind$_clrfp             0000000180044888     libucrt:fpctrl.obj
 0002:0000d888       $unwind$??_Gfailure@ios_base@std@@UEAAPEAXI@Z 0000000180044888     VError.obj
 0002:0000d888       $unwind$__acrt_freeptd     0000000180044888     libucrt:per_thread_data.obj
 0002:0000d888       $unwind$??0VImage@vips@@QEAA@PEAU_VipsImage@@W4VSteal@1@@Z 0000000180044888     VError.obj
 0002:0000d888       $unwind$_purecall          0000000180044888     libvcruntime:purevirt.obj
 0002:0000d888       $unwind$__acrt_initialize_locks 0000000180044888     libucrt:locks.obj
 0002:0000d888       $unwind$__acrt_uninitialize_locks 0000000180044888     libucrt:locks.obj
 0002:0000d888       $unwind$??_G_System_error@std@@UEAAPEAXI@Z 0000000180044888     VError.obj
 0002:0000d888       $unwind$_IsExceptionObjectToBeDestroyed 0000000180044888     libvcruntime:trnsctrl.obj
 0002:0000d888       $unwind$?new_matrix@VImage@vips@@SA?AV12@HH@Z 0000000180044888     VImage.obj
 0002:0000d888       $unwind$initialize_pointers 0000000180044888     libucrt:initialization.obj
 0002:0000d888       $unwind$uninitialize_allocated_memory 0000000180044888     libucrt:initialization.obj
 0002:0000d888       $unwind$??_G_Iostream_error_category@std@@UEAAPEAXI@Z 0000000180044888     VError.obj
 0002:0000d888       $unwind$_CreateFrameInfo   0000000180044888     libvcruntime:trnsctrl.obj
 0002:0000d888       $unwind$_malloc_base       0000000180044888     libucrt:malloc_base.obj
 0002:0000d888       $unwind$_SetThrowImageBase 0000000180044888     libvcruntime:trnsctrl.obj
 0002:0000d888       $unwind$_calloc_base       0000000180044888     libucrt:calloc_base.obj
 0002:0000d888       $unwind$_SetImageBase      0000000180044888     libvcruntime:trnsctrl.obj
 0002:0000d888       $unwind$??_Gsystem_error@std@@UEAAPEAXI@Z 0000000180044888     VError.obj
 0002:0000d888       $unwind$?__StateFromIp@@YAHPEBU_s_FuncInfo@@PEAU_xDISPATCHER_CONTEXT@@_J@Z 0000000180044888     libvcruntime:ehstate.obj
 0002:0000d888       $unwind$?__GetUnwindTryBlock@@YAHPEA_KPEAU_xDISPATCHER_CONTEXT@@PEBU_s_FuncInfo@@@Z 0000000180044888     libvcruntime:ehstate.obj
 0002:0000d890       $unwind$?_Doraise@runtime_error@std@@MEBAXXZ 0000000180044890     VError.obj
 0002:0000d890       $unwind$_invalid_parameter_noinfo 0000000180044890     libucrt:invalid_parameter.obj
 0002:0000d890       $unwind$?_Doraise@failure@ios_base@std@@MEBAXXZ 0000000180044890     VError.obj
 0002:0000d890       $unwind$_invalid_parameter_noinfo_noreturn 0000000180044890     libucrt:invalid_parameter.obj
 0002:0000d890       $unwind$_log10_special     0000000180044890     libucrt:log_special.obj
 0002:0000d890       $unwind$?_Doraise@system_error@std@@MEBAXXZ 0000000180044890     VError.obj
 0002:0000d898       $unwind$?_Makestr@_System_error@std@@CA?AV?$basic_string@DU?$char_traits@D@std@@V?$allocator@D@2@@2@Verror_code@2@V32@@Z 0000000180044898     VError.obj
 0002:0000d8b4       $stateUnwindMap$?_Makestr@_System_error@std@@CA?AV?$basic_string@DU?$char_traits@D@std@@V?$allocator@D@2@@2@Verror_code@2@V32@@Z 00000001800448b4     VError.obj
 0002:0000d8c8       $ip2state$?_Makestr@_System_error@std@@CA?AV?$basic_string@DU?$char_traits@D@std@@V?$allocator@D@2@@2@Verror_code@2@V32@@Z 00000001800448c8     VError.obj
 0002:0000d8f0       $unwind$??0system_error@std@@QEAA@Verror_code@1@PEBD@Z 00000001800448f0     VError.obj
 0002:0000d910       $stateUnwindMap$??0system_error@std@@QEAA@Verror_code@1@PEBD@Z 0000000180044910     VError.obj
 0002:0000d918       $ip2state$??0system_error@std@@QEAA@Verror_code@1@PEBD@Z 0000000180044918     VError.obj
 0002:0000d930       $unwind$??0VImage@vips@@QEAA@AEBV01@@Z 0000000180044930     VError.obj
 0002:0000d930       $unwind$?get_typeof@VImage@vips@@QEAA_KPEBD@Z 0000000180044930     VError.obj
 0002:0000d930       $unwind$??0VInterpolate@vips@@QEAA@AEBV01@@Z 0000000180044930     VError.obj
 0002:0000d930       $unwind$?message@_Generic_error_category@std@@UEBA?AV?$basic_string@DU?$char_traits@D@std@@V?$allocator@D@2@@2@H@Z 0000000180044930     VError.obj
 0002:0000d930       $unwind$??0VInterpolate@vips@@QEAA@$$QEAV01@@Z 0000000180044930     VError.obj
 0002:0000d930       $unwind$??0VImage@vips@@QEAA@$$QEAV01@@Z 0000000180044930     VError.obj
 0002:0000d93c       $unwind$?clear@ios_base@std@@QEAAXH_N@Z 000000018004493c     VError.obj
 0002:0000d94c       $stateUnwindMap$?clear@ios_base@std@@QEAAXH_N@Z 000000018004494c     VError.obj
 0002:0000d968       $ip2state$?clear@ios_base@std@@QEAAXH_N@Z 0000000180044968     VError.obj
 0002:0000d9a0       $unwind$??0VError@vips@@QEAA@V?$basic_string@DU?$char_traits@D@std@@V?$allocator@D@2@@std@@@Z 00000001800449a0     VError.obj
 0002:0000d9b8       $stateUnwindMap$??0VError@vips@@QEAA@V?$basic_string@DU?$char_traits@D@std@@V?$allocator@D@2@@std@@@Z 00000001800449b8     VError.obj
 0002:0000d9c8       $ip2state$??0VError@vips@@QEAA@V?$basic_string@DU?$char_traits@D@std@@V?$allocator@D@2@@std@@@Z 00000001800449c8     VError.obj
 0002:0000d9e8       $unwind$??0VError@vips@@QEAA@XZ 00000001800449e8     VError.obj
 0002:0000d9f8       $stateUnwindMap$??0VError@vips@@QEAA@XZ 00000001800449f8     VError.obj
 0002:0000d9f8       $stateUnwindMap$??0VError@vips@@QEAA@AEBV01@@Z 00000001800449f8     VError.obj
 0002:0000da00       $ip2state$??0VError@vips@@QEAA@XZ 0000000180044a00     VError.obj
 0002:0000da18       $unwind$??0VError@vips@@QEAA@AEBV01@@Z 0000000180044a18     VError.obj
 0002:0000da28       $ip2state$??0VError@vips@@QEAA@AEBV01@@Z 0000000180044a28     VError.obj
 0002:0000da40       $unwind$??_EVError@vips@@UEAAPEAXI@Z 0000000180044a40     VError.obj
 0002:0000da4c       $chain$0$??_EVError@vips@@UEAAPEAXI@Z 0000000180044a4c     VError.obj
 0002:0000da60       $chain$1$??_EVError@vips@@UEAAPEAXI@Z 0000000180044a60     VError.obj
 0002:0000da70       $unwind$?push_back@?$vector@VVImage@vips@@V?$allocator@VVImage@vips@@@std@@@std@@QEAAX$$QEAVVImage@vips@@@Z 0000000180044a70     VImage.obj
 0002:0000da70       $unwind$?set@VImage@vips@@QEAAXPEBDH@Z 0000000180044a70     VError.obj
 0002:0000da70       $unwind$??0VObject@vips@@QEAA@PEAU_VipsObject@@W4VSteal@1@@Z 0000000180044a70     VError.obj
 0002:0000da70       $unwind$?set@VImage@vips@@QEAAXPEBD0@Z 0000000180044a70     VError.obj
 0002:0000da70       $unwind$??4VObject@vips@@QEAAAEAV01@AEBV01@@Z 0000000180044a70     VError.obj
 0002:0000da80       $unwind$??0VOption@vips@@QEAA@XZ 0000000180044a80     VError.obj
 0002:0000da80       $unwind$__acrt_is_packaged_app 0000000180044a80     libucrt:winapi_thunks.obj
 0002:0000da80       $unwind$??1VOption@vips@@UEAA@XZ 0000000180044a80     VImage.obj
 0002:0000da8c       $unwind$??_EVOption@vips@@UEAAPEAXI@Z 0000000180044a8c     VError.obj
 0002:0000daa8       $ip2state$??_EVOption@vips@@UEAAPEAXI@Z 0000000180044aa8     VError.obj
 0002:0000dab0       $unwind$?set@VImage@vips@@QEAAXPEBDN@Z 0000000180044ab0     VError.obj
 0002:0000dac0       $unwind$?set@VImage@vips@@QEAAXPEBDP6AHPEAX1@Z1_K@Z 0000000180044ac0     VError.obj
 0002:0000dad4       $unwind$?get_int@VImage@vips@@QEAAHPEBD@Z 0000000180044ad4     VError.obj
 0002:0000daec       $stateUnwindMap$?get_double@VImage@vips@@QEAANPEBD@Z 0000000180044aec     VError.obj
 0002:0000daec       $stateUnwindMap$?get_blob@VImage@vips@@QEAAPEBXPEBDPEA_K@Z 0000000180044aec     VError.obj
 0002:0000daec       $stateUnwindMap$?get_int@VImage@vips@@QEAAHPEBD@Z 0000000180044aec     VError.obj
 0002:0000daec       $stateUnwindMap$?new_from_memory@VImage@vips@@SA?AV12@PEAX_KHHHW4VipsBandFormat@@@Z 0000000180044aec     VError.obj
 0002:0000daec       $stateUnwindMap$?get_string@VImage@vips@@QEAAPEBDPEBD@Z 0000000180044aec     VError.obj
 0002:0000daf8       $ip2state$?get_int@VImage@vips@@QEAAHPEBD@Z 0000000180044af8     VError.obj
 0002:0000db10       $unwind$?get_double@VImage@vips@@QEAANPEBD@Z 0000000180044b10     VError.obj
 0002:0000db28       $ip2state$?get_double@VImage@vips@@QEAANPEBD@Z 0000000180044b28     VError.obj
 0002:0000db40       $unwind$?get_string@VImage@vips@@QEAAPEBDPEBD@Z 0000000180044b40     VError.obj
 0002:0000db58       $ip2state$?get_string@VImage@vips@@QEAAPEBDPEBD@Z 0000000180044b58     VError.obj
 0002:0000db70       $unwind$?get_blob@VImage@vips@@QEAAPEBXPEBDPEA_K@Z 0000000180044b70     VError.obj
 0002:0000db88       $ip2state$?get_blob@VImage@vips@@QEAAPEBXPEBDPEA_K@Z 0000000180044b88     VError.obj
 0002:0000dba0       $unwind$?option@VImage@vips@@SAPEAVVOption@2@XZ 0000000180044ba0     VError.obj
 0002:0000dbb4       $stateUnwindMap$?option@VImage@vips@@SAPEAVVOption@2@XZ 0000000180044bb4     VError.obj
 0002:0000dbc0       $ip2state$?option@VImage@vips@@SAPEAVVOption@2@XZ 0000000180044bc0     VError.obj
 0002:0000dbd8       $unwind$?dtor$0@?0??mask_ideal@VImage@vips@@SA?AV12@HHNPEAVVOption@2@@Z@4HA 0000000180044bd8     VImage.obj
 0002:0000dbd8       $unwind$?dtor$1@?0??add@VImage@vips@@QEAA?AV12@V12@PEAVVOption@2@@Z@4HA 0000000180044bd8     VImage.obj
 0002:0000dbd8       $unwind$?dtor$0@?0??mask_ideal_ring@VImage@vips@@SA?AV12@HHNNPEAVVOption@2@@Z@4HA 0000000180044bd8     VImage.obj
 0002:0000dbd8       $unwind$?dtor$0@?0??black@VImage@vips@@SA?AV12@HHPEAVVOption@2@@Z@4HA 0000000180044bd8     VImage.obj
 0002:0000dbd8       $unwind$?dtor$0@?0??bandmean@VImage@vips@@QEAA?AV12@PEAVVOption@2@@Z@4HA 0000000180044bd8     VImage.obj
 0002:0000dbd8       $unwind$?dtor$0@?0??mask_ideal_band@VImage@vips@@SA?AV12@HHNNNPEAVVOption@2@@Z@4HA 0000000180044bd8     VImage.obj
 0002:0000dbd8       $unwind$?dtor$0@?0??bandsplit@VImage@vips@@QEAA?AV?$vector@VVImage@vips@@V?$allocator@VVImage@vips@@@std@@@std@@PEAVVOption@2@@Z@4HA 0000000180044bd8     VImage.obj
 0002:0000dbd8       $unwind$?fin$0@?0???$?RV<lambda_fb3a7dec4e47f37f22dae91bb15c9095>@@AEAV<lambda_698284760c8add0bfb0756c19673e34b>@@V<lambda_dfb8eca1e75fef3034a8fb18dd509707>@@@?$__crt_seh_guarded_call@X@@QEAAX$$QEAV<lambda_fb3a7dec4e47f37f22dae91bb15c9095>@@AEAV<lambda_698284760c8add0bfb0756c19673e34b>@@$$QEAV<lambda_dfb8eca1e75fef3034a8fb18dd509707>@@@Z@4HA 0000000180044bd8     libucrt:per_thread_data.obj
 0002:0000dbd8       $unwind$?dtor$0@?0??mask_butterworth@VImage@vips@@SA?AV12@HHNNNPEAVVOption@2@@Z@4HA 0000000180044bd8     VImage.obj
 0002:0000dbd8       $unwind$?dtor$0@?0??logmat@VImage@vips@@SA?AV12@NNPEAVVOption@2@@Z@4HA 0000000180044bd8     VImage.obj
 0002:0000dbd8       $unwind$?dtor$6@?0??new_from_image@VImage@vips@@QEAA?AV12@V?$vector@NV?$allocator@N@std@@@std@@@Z@4HA 0000000180044bd8     VImage.obj
 0002:0000dbd8       $unwind$?dtor$0@?0??mask_butterworth_ring@VImage@vips@@SA?AV12@HHNNNNPEAVVOption@2@@Z@4HA 0000000180044bd8     VImage.obj
 0002:0000dbd8       $unwind$?fin$0@?0???$?RV<lambda_46352004c1216016012b18bd6f87e700>@@AEAV<lambda_3bd07e1a1191394380780325891bf33f>@@V<lambda_334532d3f185bcaa59b5be82d7d22bff>@@@?$__crt_seh_guarded_call@X@@QEAAX$$QEAV<lambda_46352004c1216016012b18bd6f87e700>@@AEAV<lambda_3bd07e1a1191394380780325891bf33f>@@$$QEAV<lambda_334532d3f185bcaa59b5be82d7d22bff>@@@Z@4HA 0000000180044bd8     libucrt:per_thread_data.obj
 0002:0000dbd8       $unwind$?dtor$0@?0??globalbalance@VImage@vips@@QEAA?AV12@PEAVVOption@2@@Z@4HA 0000000180044bd8     VImage.obj
 0002:0000dbd8       $unwind$?dtor$0@?0??mask_butterworth_band@VImage@vips@@SA?AV12@HHNNNNNPEAVVOption@2@@Z@4HA 0000000180044bd8     VImage.obj
 0002:0000dbd8       $unwind$?fin$0@?0???$?RV<lambda_5e887d1dcbef67a5eb4283622ba103bf>@@AEAV<lambda_4466841279450cc726390878d4a41900>@@V<lambda_341c25c0346d94847f1f3c463c57e077>@@@?$__crt_seh_guarded_call@X@@QEAAX$$QEAV<lambda_5e887d1dcbef67a5eb4283622ba103bf>@@AEAV<lambda_4466841279450cc726390878d4a41900>@@$$QEAV<lambda_341c25c0346d94847f1f3c463c57e077>@@@Z@4HA 0000000180044bd8     libucrt:per_thread_data.obj
 0002:0000dbd8       $unwind$?dtor$0@?0??mask_gaussian@VImage@vips@@SA?AV12@HHNNPEAVVOption@2@@Z@4HA 0000000180044bd8     VImage.obj
 0002:0000dbd8       $unwind$?dtor$1@?0??bandrank@VImage@vips@@SA?AV12@V?$vector@VVImage@vips@@V?$allocator@VVImage@vips@@@std@@@std@@PEAVVOption@2@@Z@4HA 0000000180044bd8     VImage.obj
 0002:0000dbd8       $unwind$?fin$0@?0???$?RV<lambda_72d1df2b273a38828b1ce30cbf4cdab5>@@AEAV<lambda_876a65b173b8412d3a47c70a915b0cf4>@@V<lambda_41932305e351933ebe8f8be3ed8bb5dc>@@@?$__crt_seh_guarded_call@X@@QEAAX$$QEAV<lambda_72d1df2b273a38828b1ce30cbf4cdab5>@@AEAV<lambda_876a65b173b8412d3a47c70a915b0cf4>@@$$QEAV<lambda_41932305e351933ebe8f8be3ed8bb5dc>@@@Z@4HA 0000000180044bd8     libucrt:per_thread_data.obj
 0002:0000dbd8       $unwind$?dtor$0@?0??mask_gaussian_ring@VImage@vips@@SA?AV12@HHNNNPEAVVOption@2@@Z@4HA 0000000180044bd8     VImage.obj
 0002:0000dbd8       $unwind$?dtor$1@?0??match@VImage@vips@@QEAA?AV12@V12@HHHHHHHHPEAVVOption@2@@Z@4HA 0000000180044bd8     VImage.obj
 0002:0000dbd8       $unwind$?dtor$0@?0??gamma@VImage@vips@@QEAA?AV12@PEAVVOption@2@@Z@4HA 0000000180044bd8     VImage.obj
 0002:0000dbd8       $unwind$?dtor$0@?0??mask_gaussian_band@VImage@vips@@SA?AV12@HHNNNNPEAVVOption@2@@Z@4HA 0000000180044bd8     VImage.obj
 0002:0000dbd8       $unwind$?dtor$0@?0??new_from_file@VImage@vips@@SA?AV12@PEBDPEAVVOption@2@@Z@4HA 0000000180044bd8     VImage.obj
 0002:0000dbd8       $unwind$?dtor$0@?0??falsecolour@VImage@vips@@QEAA?AV12@PEAVVOption@2@@Z@4HA 0000000180044bd8     VImage.obj
 0002:0000dbd8       $unwind$?dtor$0@?0??mask_fractal@VImage@vips@@SA?AV12@HHNPEAVVOption@2@@Z@4HA 0000000180044bd8     VImage.obj
 0002:0000dbd8       $unwind$?dtor$0@?0??zone@VImage@vips@@SA?AV12@HHPEAVVOption@2@@Z@4HA 0000000180044bd8     VImage.obj
 0002:0000dbd8       $unwind$?dtor$1@?0??mosaic1@VImage@vips@@QEAA?AV12@V12@W4VipsDirection@@HHHHHHHHPEAVVOption@2@@Z@4HA 0000000180044bd8     VImage.obj
 0002:0000dbd8       $unwind$?dtor$0@?0??buildlut@VImage@vips@@QEAA?AV12@PEAVVOption@2@@Z@4HA 0000000180044bd8     VImage.obj
 0002:0000dbd8       $unwind$?dtor$0@?0??rot45@VImage@vips@@QEAA?AV12@PEAVVOption@2@@Z@4HA 0000000180044bd8     VImage.obj
 0002:0000dbd8       $unwind$?dtor$0@?0??invertlut@VImage@vips@@QEAA?AV12@PEAVVOption@2@@Z@4HA 0000000180044bd8     VImage.obj
 0002:0000dbd8       $unwind$?dtor$1@?0??subtract@VImage@vips@@QEAA?AV12@V12@PEAVVOption@2@@Z@4HA 0000000180044bd8     VImage.obj
 0002:0000dbd8       $unwind$_query_new_handler$fin$0 0000000180044bd8     libucrt:new_handler.obj
 0002:0000dbd8       $unwind$?dtor$0@?0??new_from_buffer@VImage@vips@@SA?AV12@PEAX_KPEBDPEAVVOption@2@@Z@4HA 0000000180044bd8     VImage.obj
 0002:0000dbd8       $unwind$?dtor$1@?0??mosaic@VImage@vips@@QEAA?AV12@V12@W4VipsDirection@@HHHHPEAVVOption@2@@Z@4HA 0000000180044bd8     VImage.obj
 0002:0000dbd8       $unwind$?dtor$0@?0??bandbool@VImage@vips@@QEAA?AV12@W4VipsOperationBoolean@@PEAVVOption@2@@Z@4HA 0000000180044bd8     VImage.obj
 0002:0000dbd8       $unwind$?dtor$0@?0??identity@VImage@vips@@SA?AV12@PEAVVOption@2@@Z@4HA 0000000180044bd8     VImage.obj
 0002:0000dbd8       $unwind$?dtor$0@?0??gaussnoise@VImage@vips@@SA?AV12@HHPEAVVOption@2@@Z@4HA 0000000180044bd8     VImage.obj
 0002:0000dbd8       $unwind$?dtor$2@?0??linear@VImage@vips@@QEAA?AV12@V?$vector@NV?$allocator@N@std@@@std@@0PEAVVOption@2@@Z@4HA 0000000180044bd8     VImage.obj
 0002:0000dbd8       $unwind$?dtor$0@?0??fractsurf@VImage@vips@@SA?AV12@HHNPEAVVOption@2@@Z@4HA 0000000180044bd8     VImage.obj
 0002:0000dbd8       $unwind$?dtor$0@?0??cast@VImage@vips@@QEAA?AV12@W4VipsBandFormat@@PEAVVOption@2@@Z@4HA 0000000180044bd8     VImage.obj
 0002:0000dbd8       $unwind$?dtor$1@?0??merge@VImage@vips@@QEAA?AV12@V12@W4VipsDirection@@HHPEAVVOption@2@@Z@4HA 0000000180044bd8     VImage.obj
 0002:0000dbd8       $unwind$?dtor$0@?0??worley@VImage@vips@@SA?AV12@HHPEAVVOption@2@@Z@4HA 0000000180044bd8     VImage.obj
 0002:0000dbd8       $unwind$?dtor$0@?0??grey@VImage@vips@@SA?AV12@HHPEAVVOption@2@@Z@4HA 0000000180044bd8     VImage.obj
 0002:0000dbd8       $unwind$?dtor$0@?0??perlin@VImage@vips@@SA?AV12@HHPEAVVOption@2@@Z@4HA 0000000180044bd8     VImage.obj
 0002:0000dbd8       $unwind$?dtor$0@?0??replicate@VImage@vips@@QEAA?AV12@HHPEAVVOption@2@@Z@4HA 0000000180044bd8     VImage.obj
 0002:0000dbd8       $unwind$?dtor$0@?0??csvload@VImage@vips@@SA?AV12@PEADPEAVVOption@2@@Z@4HA 0000000180044bd8     VImage.obj
 0002:0000dbd8       $unwind$?dtor$0@?0??byteswap@VImage@vips@@QEAA?AV12@PEAVVOption@2@@Z@4HA 0000000180044bd8     VImage.obj
 0002:0000dbd8       $unwind$?dtor$0@?0??xyz@VImage@vips@@SA?AV12@HHPEAVVOption@2@@Z@4HA 0000000180044bd8     VImage.obj
 0002:0000dbd8       $unwind$?dtor$0@?0??matrixload@VImage@vips@@SA?AV12@PEADPEAVVOption@2@@Z@4HA 0000000180044bd8     VImage.obj
 0002:0000dbd8       $unwind$?dtor$1@?0??bandjoin_const@VImage@vips@@QEAA?AV12@V?$vector@NV?$allocator@N@std@@@std@@PEAVVOption@2@@Z@4HA 0000000180044bd8     VImage.obj
 0002:0000dbd8       $unwind$?dtor$0@?0??rawload@VImage@vips@@SA?AV12@PEADHHHPEAVVOption@2@@Z@4HA 0000000180044bd8     VImage.obj
 0002:0000dbd8       $unwind$?dtor$0@?0??msb@VImage@vips@@QEAA?AV12@PEAVVOption@2@@Z@4HA 0000000180044bd8     VImage.obj
 0002:0000dbd8       $unwind$?dtor$0@?0??eye@VImage@vips@@SA?AV12@HHPEAVVOption@2@@Z@4HA 0000000180044bd8     VImage.obj
 0002:0000dbd8       $unwind$?dtor$1@?0??multiply@VImage@vips@@QEAA?AV12@V12@PEAVVOption@2@@Z@4HA 0000000180044bd8     VImage.obj
 0002:0000dbd8       $unwind$_ctrlfp$filt$0     0000000180044bd8     libucrt:fpctrl.obj
 0002:0000dbd8       $unwind$?dtor$0@?0??analyzeload@VImage@vips@@SA?AV12@PEADPEAVVOption@2@@Z@4HA 0000000180044bd8     VImage.obj
 0002:0000dbd8       $unwind$?dtor$0@?0??math@VImage@vips@@QEAA?AV12@W4VipsOperationMath@@PEAVVOption@2@@Z@4HA 0000000180044bd8     VImage.obj
 0002:0000dbd8       $unwind$?dtor$0@?0??option@VImage@vips@@SAPEAVVOption@2@XZ@4HA 0000000180044bd8     VError.obj
 0002:0000dbd8       $unwind$?dtor$0@?0??ppmload@VImage@vips@@SA?AV12@PEADPEAVVOption@2@@Z@4HA 0000000180044bd8     VImage.obj
 0002:0000dbd8       $unwind$?dtor$0@?0??gaussmat@VImage@vips@@SA?AV12@NNPEAVVOption@2@@Z@4HA 0000000180044bd8     VImage.obj
 0002:0000dbd8       $unwind$?dtor$0@?0??radload@VImage@vips@@SA?AV12@PEADPEAVVOption@2@@Z@4HA 0000000180044bd8     VImage.obj
 0002:0000dbd8       $unwind$?dtor$0@?0??subsample@VImage@vips@@QEAA?AV12@HHPEAVVOption@2@@Z@4HA 0000000180044bd8     VImage.obj
 0002:0000dbd8       $unwind$?dtor$0@?0??sines@VImage@vips@@SA?AV12@HHPEAVVOption@2@@Z@4HA 0000000180044bd8     VImage.obj
 0002:0000dbd8       $unwind$?dtor$0@?0??pdfload@VImage@vips@@SA?AV12@PEADPEAVVOption@2@@Z@4HA 0000000180044bd8     VImage.obj
 0002:0000dbd8       $unwind$?dtor$0@?0??round@VImage@vips@@QEAA?AV12@W4VipsOperationRound@@PEAVVOption@2@@Z@4HA 0000000180044bd8     VImage.obj
 0002:0000dbd8       $unwind$?dtor$0@?0??pdfload_buffer@VImage@vips@@SA?AV12@PEAU_VipsBlob@@PEAVVOption@2@@Z@4HA 0000000180044bd8     VImage.obj
 0002:0000dbd8       $unwind$?dtor$0@?0??zoom@VImage@vips@@QEAA?AV12@HHPEAVVOption@2@@Z@4HA 0000000180044bd8     VImage.obj
 0002:0000dbd8       $unwind$?dtor$1@?0??bandjoin@VImage@vips@@SA?AV12@V?$vector@VVImage@vips@@V?$allocator@VVImage@vips@@@std@@@std@@PEAVVOption@2@@Z@4HA 0000000180044bd8     VImage.obj
 0002:0000dbd8       $unwind$?dtor$0@?0??svgload@VImage@vips@@SA?AV12@PEADPEAVVOption@2@@Z@4HA 0000000180044bd8     VImage.obj
 0002:0000dbd8       $unwind$?fin$0@?0??dllmain_crt_process_attach@@YAHQEAUHINSTANCE__@@QEAX@Z@4HA 0000000180044bd8     LIBCMT:dll_dllmain.obj
 0002:0000dbd8       $unwind$?dtor$0@?0??svgload_buffer@VImage@vips@@SA?AV12@PEAU_VipsBlob@@PEAVVOption@2@@Z@4HA 0000000180044bd8     VImage.obj
 0002:0000dbd8       $unwind$?dtor$1@?0??divide@VImage@vips@@QEAA?AV12@V12@PEAVVOption@2@@Z@4HA 0000000180044bd8     VImage.obj
 0002:0000dbd8       $unwind$?dtor$0@?0??extract_band@VImage@vips@@QEAA?AV12@HPEAVVOption@2@@Z@4HA 0000000180044bd8     VImage.obj
 0002:0000dbd8       $unwind$?dtor$0@?0??gifload@VImage@vips@@SA?AV12@PEADPEAVVOption@2@@Z@4HA 0000000180044bd8     VImage.obj
 0002:0000dbd8       $unwind$?dtor$0@?0??tonelut@VImage@vips@@SA?AV12@PEAVVOption@2@@Z@4HA 0000000180044bd8     VImage.obj
 0002:0000dbd8       $unwind$?dtor$0@?0??gifload_buffer@VImage@vips@@SA?AV12@PEAU_VipsBlob@@PEAVVOption@2@@Z@4HA 0000000180044bd8     VImage.obj
 0002:0000dbd8       $unwind$?dtor$0@?0??autorot@VImage@vips@@QEAA?AV12@PEAVVOption@2@@Z@4HA 0000000180044bd8     VImage.obj
 0002:0000dbd8       $unwind$?dtor$1@?0??relational@VImage@vips@@QEAA?AV12@V12@W4VipsOperationRelational@@PEAVVOption@2@@Z@4HA 0000000180044bd8     VImage.obj
 0002:0000dbd8       $unwind$?dtor$0@?0??pngload@VImage@vips@@SA?AV12@PEADPEAVVOption@2@@Z@4HA 0000000180044bd8     VImage.obj
 0002:0000dbd8       $unwind$?dtor$0@?0??labelregions@VImage@vips@@QEAA?AV12@PEAVVOption@2@@Z@4HA 0000000180044bd8     VImage.obj
 0002:0000dbd8       $unwind$?dtor$0@?0??extract_area@VImage@vips@@QEAA?AV12@HHHHPEAVVOption@2@@Z@4HA 0000000180044bd8     VImage.obj
 0002:0000dbd8       $unwind$?dtor$0@?0??pngload_buffer@VImage@vips@@SA?AV12@PEAU_VipsBlob@@PEAVVOption@2@@Z@4HA 0000000180044bd8     VImage.obj
 0002:0000dbd8       $unwind$?dtor$1@?0??math2@VImage@vips@@QEAA?AV12@V12@W4VipsOperationMath2@@PEAVVOption@2@@Z@4HA 0000000180044bd8     VImage.obj
 0002:0000dbd8       $unwind$?dtor$0@?0??matload@VImage@vips@@SA?AV12@PEADPEAVVOption@2@@Z@4HA 0000000180044bd8     VImage.obj
 0002:0000dbd8       $unwind$__acrt_update_thread_locale_data$fin$0 0000000180044bd8     libucrt:locale_refcounting.obj
 0002:0000dbd8       $unwind$?dtor$1@?0??math2_const@VImage@vips@@QEAA?AV12@V?$vector@NV?$allocator@N@std@@@std@@W4VipsOperationMath2@@PEAVVOption@2@@Z@4HA 0000000180044bd8     VImage.obj
 0002:0000dbd8       $unwind$?dtor$0@?0??jpegload@VImage@vips@@SA?AV12@PEADPEAVVOption@2@@Z@4HA 0000000180044bd8     VImage.obj
 0002:0000dbd8       $unwind$?dtor$0@?0??wrap@VImage@vips@@QEAA?AV12@PEAVVOption@2@@Z@4HA 0000000180044bd8     VImage.obj
 0002:0000dbd8       $unwind$?dtor$1@?0??phasecor@VImage@vips@@QEAA?AV12@V12@PEAVVOption@2@@Z@4HA 0000000180044bd8     VImage.obj
 0002:0000dbd8       $unwind$?dtor$0@?0??jpegload_buffer@VImage@vips@@SA?AV12@PEAU_VipsBlob@@PEAVVOption@2@@Z@4HA 0000000180044bd8     VImage.obj
 0002:0000dbd8       $unwind$?fin$0@?0??dllmain_crt_process_detach@@YAH_N@Z@4HA 0000000180044bd8     LIBCMT:dll_dllmain.obj
 0002:0000dbd8       $unwind$?dtor$0@?0??webpload@VImage@vips@@SA?AV12@PEADPEAVVOption@2@@Z@4HA 0000000180044bd8     VImage.obj
 0002:0000dbd8       $unwind$?dtor$0@?0??complex@VImage@vips@@QEAA?AV12@W4VipsOperationComplex@@PEAVVOption@2@@Z@4HA 0000000180044bd8     VImage.obj
 0002:0000dbd8       $unwind$?dtor$1@?0??arrayjoin@VImage@vips@@SA?AV12@V?$vector@VVImage@vips@@V?$allocator@VVImage@vips@@@std@@@std@@PEAVVOption@2@@Z@4HA 0000000180044bd8     VImage.obj
 0002:0000dbd8       $unwind$?dtor$0@?0??webpload_buffer@VImage@vips@@SA?AV12@PEAU_VipsBlob@@PEAVVOption@2@@Z@4HA 0000000180044bd8     VImage.obj
 0002:0000dbd8       $unwind$?dtor$0@?0??spectrum@VImage@vips@@QEAA?AV12@PEAVVOption@2@@Z@4HA 0000000180044bd8     VImage.obj
 0002:0000dbd8       $unwind$?dtor$1@?0??remainder@VImage@vips@@QEAA?AV12@V12@PEAVVOption@2@@Z@4HA 0000000180044bd8     VImage.obj
 0002:0000dbd8       $unwind$?dtor$0@?0??tiffload@VImage@vips@@SA?AV12@PEADPEAVVOption@2@@Z@4HA 0000000180044bd8     VImage.obj
 0002:0000dbd8       $unwind$?dtor$1@?0??join@VImage@vips@@QEAA?AV12@V12@W4VipsDirection@@PEAVVOption@2@@Z@4HA 0000000180044bd8     VImage.obj
 0002:0000dbd8       $unwind$__CxxCallCatchBlock$filt$0 0000000180044bd8     libvcruntime:frame.obj
 0002:0000dbd8       $unwind$?dtor$0@?0??tiffload_buffer@VImage@vips@@SA?AV12@PEAU_VipsBlob@@PEAVVOption@2@@Z@4HA 0000000180044bd8     VImage.obj
 0002:0000dbd8       $unwind$?dtor$0@?0??scale@VImage@vips@@QEAA?AV12@PEAVVOption@2@@Z@4HA 0000000180044bd8     VImage.obj
 0002:0000dbd8       $unwind$?dtor$1@?0??freqmult@VImage@vips@@QEAA?AV12@V12@PEAVVOption@2@@Z@4HA 0000000180044bd8     VImage.obj
 0002:0000dbd8       $unwind$?dtor$0@?0??openslideload@VImage@vips@@SA?AV12@PEADPEAVVOption@2@@Z@4HA 0000000180044bd8     VImage.obj
 0002:0000dbd8       $unwind$?dtor$1@?0??boolean@VImage@vips@@QEAA?AV12@V12@W4VipsOperationBoolean@@PEAVVOption@2@@Z@4HA 0000000180044bd8     VImage.obj
 0002:0000dbd8       $unwind$?dtor$0@?0??magickload@VImage@vips@@SA?AV12@PEADPEAVVOption@2@@Z@4HA 0000000180044bd8     VImage.obj
 0002:0000dbd8       $unwind$?dtor$1@?0??insert@VImage@vips@@QEAA?AV12@V12@HHPEAVVOption@2@@Z@4HA 0000000180044bd8     VImage.obj
 0002:0000dbd8       $unwind$?dtor$1@?0??complex2@VImage@vips@@QEAA?AV12@V12@W4VipsOperationComplex2@@PEAVVOption@2@@Z@4HA 0000000180044bd8     VImage.obj
 0002:0000dbd8       $unwind$?dtor$0@?0??magickload_buffer@VImage@vips@@SA?AV12@PEAU_VipsBlob@@PEAVVOption@2@@Z@4HA 0000000180044bd8     VImage.obj
 0002:0000dbd8       $unwind$?dtor$0@?0??invfft@VImage@vips@@QEAA?AV12@PEAVVOption@2@@Z@4HA 0000000180044bd8     VImage.obj
 0002:0000dbd8       $unwind$__acrt_uninitialize_locale$fin$0 0000000180044bd8     libucrt:wsetlocale.obj
 0002:0000dbd8       $unwind$?dtor$0@?0??fitsload@VImage@vips@@SA?AV12@PEADPEAVVOption@2@@Z@4HA 0000000180044bd8     VImage.obj
 0002:0000dbd8       $unwind$?dtor$0@?0??complexget@VImage@vips@@QEAA?AV12@W4VipsOperationComplexget@@PEAVVOption@2@@Z@4HA 0000000180044bd8     VImage.obj
 0002:0000dbd8       $unwind$?dtor$0@?0??embed@VImage@vips@@QEAA?AV12@HHHHPEAVVOption@2@@Z@4HA 0000000180044bd8     VImage.obj
 0002:0000dbd8       $unwind$?dtor$0@?0??openexrload@VImage@vips@@SA?AV12@PEADPEAVVOption@2@@Z@4HA 0000000180044bd8     VImage.obj
 0002:0000dbd8       $unwind$?dtor$1@?0??complexform@VImage@vips@@QEAA?AV12@V12@PEAVVOption@2@@Z@4HA 0000000180044bd8     VImage.obj
 0002:0000dbd8       $unwind$?dtor$0@?0??fwfft@VImage@vips@@QEAA?AV12@PEAVVOption@2@@Z@4HA 0000000180044bd8     VImage.obj
 0002:0000dbd8       $unwind$?dtor$1@?0??mapim@VImage@vips@@QEAA?AV12@V12@PEAVVOption@2@@Z@4HA 0000000180044bd8     VImage.obj
 0002:0000dbd8       $unwind$?dtor$1@?0??sum@VImage@vips@@SA?AV12@V?$vector@VVImage@vips@@V?$allocator@VVImage@vips@@@std@@@std@@PEAVVOption@2@@Z@4HA 0000000180044bd8     VImage.obj
 0002:0000dbd8       $unwind$?dtor$0@?0??shrink@VImage@vips@@QEAA?AV12@NNPEAVVOption@2@@Z@4HA 0000000180044bd8     VImage.obj
 0002:0000dbd8       $unwind$?dtor$0@?0??flip@VImage@vips@@QEAA?AV12@W4VipsDirection@@PEAVVOption@2@@Z@4HA 0000000180044bd8     VImage.obj
 0002:0000dbd8       $unwind$?dtor$0@?0??grid@VImage@vips@@QEAA?AV12@HHHPEAVVOption@2@@Z@4HA 0000000180044bd8     VImage.obj
 0002:0000dbd8       $unwind$?dtor$0@?0??shrinkh@VImage@vips@@QEAA?AV12@HPEAVVOption@2@@Z@4HA 0000000180044bd8     VImage.obj
 0002:0000dbd8       $unwind$?dtor$0@?0??gaussblur@VImage@vips@@QEAA?AV12@NPEAVVOption@2@@Z@4HA 0000000180044bd8     VImage.obj
 0002:0000dbd8       $unwind$?fin$0@?0???$?RV<lambda_bfedae4ebbf01fab1bb6dcc6a9e276e0>@@AEAV<lambda_2fe9b910cf3cbf4a0ab98a02ba45b3ec>@@V<lambda_237c231691f317818eb88cc1d5d642d6>@@@?$__crt_seh_guarded_call@H@@QEAAH$$QEAV<lambda_bfedae4ebbf01fab1bb6dcc6a9e276e0>@@AEAV<lambda_2fe9b910cf3cbf4a0ab98a02ba45b3ec>@@$$QEAV<lambda_237c231691f317818eb88cc1d5d642d6>@@@Z@4HA 0000000180044bd8     libucrt:close.obj
 0002:0000dbd8       $unwind$?dtor$0@?0??shrinkv@VImage@vips@@QEAA?AV12@HPEAVVOption@2@@Z@4HA 0000000180044bd8     VImage.obj
 0002:0000dbd8       $unwind$?filt$0@?0??__ArrayUnwind@@YAXPEAX_K1P6AX0@Z@Z@4HA 0000000180044bd8     LIBCMT:ehvecdtr.obj
 0002:0000dbd8       $unwind$__FrameUnwindToState$filt$0 0000000180044bd8     libvcruntime:frame.obj
 0002:0000dbd8       $unwind$?dtor$0@?0??reduceh@VImage@vips@@QEAA?AV12@NPEAVVOption@2@@Z@4HA 0000000180044bd8     VImage.obj
 0002:0000dbd8       $unwind$?fin$0@?0???_M@YAXPEAX_K1P6AX0@Z@Z@4HA 0000000180044bd8     LIBCMT:ehvecdtr.obj
 0002:0000dbd8       $unwind$?dtor$0@?0??sharpen@VImage@vips@@QEAA?AV12@PEAVVOption@2@@Z@4HA 0000000180044bd8     VImage.obj
 0002:0000dbd8       $unwind$?dtor$0@?0??reducev@VImage@vips@@QEAA?AV12@NPEAVVOption@2@@Z@4HA 0000000180044bd8     VImage.obj
 0002:0000dbd8       $unwind$?fin$0@?0???$?RV<lambda_b521505b218e5242e90febf6bfebc422>@@AEAV<lambda_6978c1fb23f02e42e1d9e99668cc68aa>@@V<lambda_314360699dd331753a4119843814e9a7>@@@?$__crt_seh_guarded_call@H@@QEAAH$$QEAV<lambda_b521505b218e5242e90febf6bfebc422>@@AEAV<lambda_6978c1fb23f02e42e1d9e99668cc68aa>@@$$QEAV<lambda_314360699dd331753a4119843814e9a7>@@@Z@4HA 0000000180044bd8     libucrt:commit.obj
 0002:0000dbd8       $unwind$?dtor$0@?0??reduce@VImage@vips@@QEAA?AV12@NNPEAVVOption@2@@Z@4HA 0000000180044bd8     VImage.obj
 0002:0000dbd8       $unwind$?dtor$0@?0??rank@VImage@vips@@QEAA?AV12@HHHPEAVVOption@2@@Z@4HA 0000000180044bd8     VImage.obj
 0002:0000dbd8       $unwind$?dtor$0@?0??cache@VImage@vips@@QEAA?AV12@PEAVVOption@2@@Z@4HA 0000000180044bd8     VImage.obj
 0002:0000dbd8       $unwind$?dtor$1@?0??quadratic@VImage@vips@@QEAA?AV12@V12@PEAVVOption@2@@Z@4HA 0000000180044bd8     VImage.obj
 0002:0000dbd8       $unwind$?dtor$1@?0??spcor@VImage@vips@@QEAA?AV12@V12@PEAVVOption@2@@Z@4HA 0000000180044bd8     VImage.obj
 0002:0000dbd8       $unwind$_IsNonwritableInCurrentImage$filt$0 0000000180044bd8     LIBCMT:pesect.obj
 0002:0000dbd8       $unwind$?dtor$1@?0??affine@VImage@vips@@QEAA?AV12@V?$vector@NV?$allocator@N@std@@@std@@PEAVVOption@2@@Z@4HA 0000000180044bd8     VImage.obj
 0002:0000dbd8       $unwind$?dtor$0@?0??invert@VImage@vips@@QEAA?AV12@PEAVVOption@2@@Z@4HA 0000000180044bd8     VImage.obj
 0002:0000dbd8       $unwind$__FrameUnwindToState$fin$1 0000000180044bd8     libvcruntime:frame.obj
 0002:0000dbd8       $unwind$?dtor$0@?0??similarity@VImage@vips@@QEAA?AV12@PEAVVOption@2@@Z@4HA 0000000180044bd8     VImage.obj
 0002:0000dbd8       $unwind$?dtor$0@?0??sequential@VImage@vips@@QEAA?AV12@PEAVVOption@2@@Z@4HA 0000000180044bd8     VImage.obj
 0002:0000dbd8       $unwind$?dtor$1@?0??fastcor@VImage@vips@@QEAA?AV12@V12@PEAVVOption@2@@Z@4HA 0000000180044bd8     VImage.obj
 0002:0000dbd8       $unwind$?dtor$0@?0??resize@VImage@vips@@QEAA?AV12@NPEAVVOption@2@@Z@4HA 0000000180044bd8     VImage.obj
 0002:0000dbd8       $unwind$__acrt_initialize_lowio$fin$0 0000000180044bd8     libucrt:ioinit.obj
 0002:0000dbd8       $unwind$?dtor$0@?0??colourspace@VImage@vips@@QEAA?AV12@W4VipsInterpretation@@PEAVVOption@2@@Z@4HA 0000000180044bd8     VImage.obj
 0002:0000dbd8       $unwind$?dtor$0@?0??unpremultiply@VImage@vips@@QEAA?AV12@PEAVVOption@2@@Z@4HA 0000000180044bd8     VImage.obj
 0002:0000dbd8       $unwind$?dtor$0@?0??abs@VImage@vips@@QEAA?AV12@PEAVVOption@2@@Z@4HA 0000000180044bd8     VImage.obj
 0002:0000dbd8       $unwind$?dtor$0@?0??Lab2XYZ@VImage@vips@@QEAA?AV12@PEAVVOption@2@@Z@4HA 0000000180044bd8     VImage.obj
 0002:0000dbd8       $unwind$?dtor$1@?0??convasep@VImage@vips@@QEAA?AV12@V12@PEAVVOption@2@@Z@4HA 0000000180044bd8     VImage.obj
 0002:0000dbd8       $unwind$?dtor$0@?0??linecache@VImage@vips@@QEAA?AV12@PEAVVOption@2@@Z@4HA 0000000180044bd8     VImage.obj
 0002:0000dbd8       $unwind$?dtor$0@?0??XYZ2Lab@VImage@vips@@QEAA?AV12@PEAVVOption@2@@Z@4HA 0000000180044bd8     VImage.obj
 0002:0000dbd8       $unwind$?dtor$6@?0??bandjoin@VImage@vips@@QEAA?AV12@V12@PEAVVOption@2@@Z@4HA 0000000180044bd8     VImage.obj
 0002:0000dbd8       $unwind$__DestructExceptionObject$filt$0 0000000180044bd8     libvcruntime:frame.obj
 0002:0000dbd8       $unwind$?dtor$0@?0??Lab2LCh@VImage@vips@@QEAA?AV12@PEAVVOption@2@@Z@4HA 0000000180044bd8     VImage.obj
 0002:0000dbd8       $unwind$?dtor$0@?0??premultiply@VImage@vips@@QEAA?AV12@PEAVVOption@2@@Z@4HA 0000000180044bd8     VImage.obj
 0002:0000dbd8       $unwind$?dtor$1@?0??convsep@VImage@vips@@QEAA?AV12@V12@PEAVVOption@2@@Z@4HA 0000000180044bd8     VImage.obj
 0002:0000dbd8       $unwind$?dtor$0@?0??LCh2Lab@VImage@vips@@QEAA?AV12@PEAVVOption@2@@Z@4HA 0000000180044bd8     VImage.obj
 0002:0000dbd8       $unwind$?dtor$0@?0??sign@VImage@vips@@QEAA?AV12@PEAVVOption@2@@Z@4HA 0000000180044bd8     VImage.obj
 0002:0000dbd8       $unwind$?dtor$0@?0??LCh2CMC@VImage@vips@@QEAA?AV12@PEAVVOption@2@@Z@4HA 0000000180044bd8     VImage.obj
 0002:0000dbd8       $unwind$?dtor$3@?0??bandjoin@VImage@vips@@QEAA?AV12@V12@PEAVVOption@2@@Z@4HA 0000000180044bd8     VImage.obj
 0002:0000dbd8       $unwind$__acrt_lowio_ensure_fh_exists$fin$0 0000000180044bd8     libucrt:osfinfo.obj
 0002:0000dbd8       $unwind$?dtor$0@?0??CMC2LCh@VImage@vips@@QEAA?AV12@PEAVVOption@2@@Z@4HA 0000000180044bd8     VImage.obj
 0002:0000dbd8       $unwind$?dtor$1@?0??compass@VImage@vips@@QEAA?AV12@V12@PEAVVOption@2@@Z@4HA 0000000180044bd8     VImage.obj
 0002:0000dbd8       $unwind$?dtor$0@?0??tilecache@VImage@vips@@QEAA?AV12@PEAVVOption@2@@Z@4HA 0000000180044bd8     VImage.obj
 0002:0000dbd8       $unwind$?dtor$0@?0??XYZ2Yxy@VImage@vips@@QEAA?AV12@PEAVVOption@2@@Z@4HA 0000000180044bd8     VImage.obj
 0002:0000dbd8       $unwind$_write$fin$0       0000000180044bd8     libucrt:write.obj
 0002:0000dbd8       $unwind$?dtor$1@?0??relational_const@VImage@vips@@QEAA?AV12@V?$vector@NV?$allocator@N@std@@@std@@W4VipsOperationRelational@@PEAVVOption@2@@Z@4HA 0000000180044bd8     VImage.obj
 0002:0000dbd8       $unwind$?dtor$0@?0??Yxy2XYZ@VImage@vips@@QEAA?AV12@PEAVVOption@2@@Z@4HA 0000000180044bd8     VImage.obj
 0002:0000dbd8       $unwind$?dtor$0@?0??copy@VImage@vips@@QEAA?AV12@PEAVVOption@2@@Z@4HA 0000000180044bd8     VImage.obj
 0002:0000dbd8       $unwind$?dtor$1@?0??convi@VImage@vips@@QEAA?AV12@V12@PEAVVOption@2@@Z@4HA 0000000180044bd8     VImage.obj
 0002:0000dbd8       $unwind$?dtor$0@?0??scRGB2XYZ@VImage@vips@@QEAA?AV12@PEAVVOption@2@@Z@4HA 0000000180044bd8     VImage.obj
 0002:0000dbd8       $unwind$?dtor$1@?0??remainder_const@VImage@vips@@QEAA?AV12@V?$vector@NV?$allocator@N@std@@@std@@PEAVVOption@2@@Z@4HA 0000000180044bd8     VImage.obj
 0002:0000dbd8       $unwind$?dtor$0@?0??XYZ2scRGB@VImage@vips@@QEAA?AV12@PEAVVOption@2@@Z@4HA 0000000180044bd8     VImage.obj
 0002:0000dbd8       $unwind$?dtor$0@?0??flatten@VImage@vips@@QEAA?AV12@PEAVVOption@2@@Z@4HA 0000000180044bd8     VImage.obj
 0002:0000dbd8       $unwind$?dtor$0@?0??rot@VImage@vips@@QEAA?AV12@W4VipsAngle@@PEAVVOption@2@@Z@4HA 0000000180044bd8     VImage.obj
 0002:0000dbd8       $unwind$?dtor$0@?0??LabQ2Lab@VImage@vips@@QEAA?AV12@PEAVVOption@2@@Z@4HA 0000000180044bd8     VImage.obj
 0002:0000dbd8       $unwind$?dtor$1@?0??convf@VImage@vips@@QEAA?AV12@V12@PEAVVOption@2@@Z@4HA 0000000180044bd8     VImage.obj
 0002:0000dbd8       $unwind$?fin$0@?0???$?RV<lambda_99476a1ad63dd22509b5d3e65b0ffc95>@@AEAV<lambda_ad1ced32f4ac17aa236e5ef05d6b3b7c>@@V<lambda_f7424dd8d45958661754dc4f2697e9c3>@@@?$__crt_seh_guarded_call@X@@QEAAX$$QEAV<lambda_99476a1ad63dd22509b5d3e65b0ffc95>@@AEAV<lambda_ad1ced32f4ac17aa236e5ef05d6b3b7c>@@$$QEAV<lambda_f7424dd8d45958661754dc4f2697e9c3>@@@Z@4HA 0000000180044bd8     libucrt:mbctype.obj
 0002:0000dbd8       $unwind$?dtor$0@?0??Lab2LabQ@VImage@vips@@QEAA?AV12@PEAVVOption@2@@Z@4HA 0000000180044bd8     VImage.obj
 0002:0000dbd8       $unwind$__acrt_update_thread_multibyte_data$fin$0 0000000180044bd8     libucrt:mbctype.obj
 0002:0000dbd8       $unwind$?dtor$0@?0??getpoint@VImage@vips@@QEAA?AV?$vector@NV?$allocator@N@std@@@std@@HHPEAVVOption@2@@Z@4HA 0000000180044bd8     VImage.obj
 0002:0000dbd8       $unwind$?dtor$0@?0??LabQ2LabS@VImage@vips@@QEAA?AV12@PEAVVOption@2@@Z@4HA 0000000180044bd8     VImage.obj
 0002:0000dbd8       $unwind$?dtor$0@?0??measure@VImage@vips@@QEAA?AV12@HHPEAVVOption@2@@Z@4HA 0000000180044bd8     VImage.obj
 0002:0000dbd8       $unwind$?dtor$1@?0??conva@VImage@vips@@QEAA?AV12@V12@PEAVVOption@2@@Z@4HA 0000000180044bd8     VImage.obj
 0002:0000dbd8       $unwind$?dtor$0@?0??LabS2LabQ@VImage@vips@@QEAA?AV12@PEAVVOption@2@@Z@4HA 0000000180044bd8     VImage.obj
 0002:0000dbd8       $unwind$?dtor$0@?0??bandunfold@VImage@vips@@QEAA?AV12@PEAVVOption@2@@Z@4HA 0000000180044bd8     VImage.obj
 0002:0000dbd8       $unwind$?dtor$0@?0??LabS2Lab@VImage@vips@@QEAA?AV12@PEAVVOption@2@@Z@4HA 0000000180044bd8     VImage.obj
 0002:0000dbd8       $unwind$?dtor$2@?0??ifthenelse@VImage@vips@@QEAA?AV12@V12@0PEAVVOption@2@@Z@4HA 0000000180044bd8     VImage.obj
 0002:0000dbd8       $unwind$?dtor$1@?0??boolean_const@VImage@vips@@QEAA?AV12@V?$vector@NV?$allocator@N@std@@@std@@W4VipsOperationBoolean@@PEAVVOption@2@@Z@4HA 0000000180044bd8     VImage.obj
 0002:0000dbd8       $unwind$?dtor$0@?0??Lab2LabS@VImage@vips@@QEAA?AV12@PEAVVOption@2@@Z@4HA 0000000180044bd8     VImage.obj
 0002:0000dbd8       $unwind$?dtor$1@?0??conv@VImage@vips@@QEAA?AV12@V12@PEAVVOption@2@@Z@4HA 0000000180044bd8     VImage.obj
 0002:0000dbd8       $unwind$?dtor$0@?0??bandfold@VImage@vips@@QEAA?AV12@PEAVVOption@2@@Z@4HA 0000000180044bd8     VImage.obj
 0002:0000dbd8       $unwind$?dtor$0@?0??rad2float@VImage@vips@@QEAA?AV12@PEAVVOption@2@@Z@4HA 0000000180044bd8     VImage.obj
 0002:0000dbd8       $unwind$?fin$0@?0???$?RV<lambda_c36588078e9f5dfd39652860aa6b3aaf>@@AEAV<lambda_ec61778202f4f5fc7e7711acc23c3bca>@@V<lambda_dc9d2797ccde5d239b4a0efae8ebd7db>@@@?$__crt_seh_guarded_call@P6AXH@Z@@QEAAP6AXH@Z$$QEAV<lambda_c36588078e9f5dfd39652860aa6b3aaf>@@AEAV<lambda_ec61778202f4f5fc7e7711acc23c3bca>@@$$QEAV<lambda_dc9d2797ccde5d239b4a0efae8ebd7db>@@@Z@4HA 0000000180044bd8     libucrt:signal.obj
 0002:0000dbd8       $unwind$?dtor$0@?0??float2rad@VImage@vips@@QEAA?AV12@PEAVVOption@2@@Z@4HA 0000000180044bd8     VImage.obj
 0002:0000dbd8       $unwind$raise$fin$0        0000000180044bd8     libucrt:signal.obj
 0002:0000dbd8       $unwind$?dtor$0@?0??LabQ2sRGB@VImage@vips@@QEAA?AV12@PEAVVOption@2@@Z@4HA 0000000180044bd8     VImage.obj
 0002:0000dbd8       $unwind$?dtor$0@?0??profile@VImage@vips@@QEAA?AV12@PEAV12@PEAVVOption@2@@Z@4HA 0000000180044bd8     VImage.obj
 0002:0000dbd8       $unwind$?dtor$0@?0??stats@VImage@vips@@QEAA?AV12@PEAVVOption@2@@Z@4HA 0000000180044bd8     VImage.obj
 0002:0000dbd8       $unwind$?dtor$0@?0??sRGB2HSV@VImage@vips@@QEAA?AV12@PEAVVOption@2@@Z@4HA 0000000180044bd8     VImage.obj
 0002:0000dbd8       $unwind$?dtor$0@?0??project@VImage@vips@@QEAA?AV12@PEAV12@PEAVVOption@2@@Z@4HA 0000000180044bd8     VImage.obj
 0002:0000dbd8       $unwind$?dtor$0@?0??hist_local@VImage@vips@@QEAA?AV12@HHPEAVVOption@2@@Z@4HA 0000000180044bd8     VImage.obj
 0002:0000dbd8       $unwind$?dtor$0@?0??HSV2sRGB@VImage@vips@@QEAA?AV12@PEAVVOption@2@@Z@4HA 0000000180044bd8     VImage.obj
 0002:0000dbd8       $unwind$?dtor$1@?0??morph@VImage@vips@@QEAA?AV12@V12@W4VipsOperationMorphology@@PEAVVOption@2@@Z@4HA 0000000180044bd8     VImage.obj
 0002:0000dbd8       $unwind$?dtor$0@?0??icc_import@VImage@vips@@QEAA?AV12@PEAVVOption@2@@Z@4HA 0000000180044bd8     VImage.obj
 0002:0000dbd8       $unwind$?dtor$0@?0??hough_circle@VImage@vips@@QEAA?AV12@PEAVVOption@2@@Z@4HA 0000000180044bd8     VImage.obj
 0002:0000dbd8       $unwind$?fin$1@?0??common_exit@@YAXHW4_crt_exit_cleanup_mode@@W4_crt_exit_return_mode@@@Z@4HA 0000000180044bd8     libucrt:exit.obj
 0002:0000dbd8       $unwind$?dtor$0@?0??icc_export@VImage@vips@@QEAA?AV12@PEAVVOption@2@@Z@4HA 0000000180044bd8     VImage.obj
 0002:0000dbd8       $unwind$?dtor$0@?0??hist_plot@VImage@vips@@QEAA?AV12@PEAVVOption@2@@Z@4HA 0000000180044bd8     VImage.obj
 0002:0000dbd8       $unwind$?filt$0@?0??common_exit@@YAXHW4_crt_exit_cleanup_mode@@W4_crt_exit_return_mode@@@Z@4HA 0000000180044bd8     libucrt:exit.obj
 0002:0000dbd8       $unwind$?dtor$0@?0??icc_transform@VImage@vips@@QEAA?AV12@PEADPEAVVOption@2@@Z@4HA 0000000180044bd8     VImage.obj
 0002:0000dbd8       $unwind$?dtor$0@?0??hist_find@VImage@vips@@QEAA?AV12@PEAVVOption@2@@Z@4HA 0000000180044bd8     VImage.obj
 0002:0000dbd8       $unwind$?dtor$0@?0??hough_line@VImage@vips@@QEAA?AV12@PEAVVOption@2@@Z@4HA 0000000180044bd8     VImage.obj
 0002:0000dbd8       $unwind$?dtor$1@?0??dE76@VImage@vips@@QEAA?AV12@V12@PEAVVOption@2@@Z@4HA 0000000180044bd8     VImage.obj
 0002:0000dbd8       $unwind$?dtor$0@?0??hist_find_ndim@VImage@vips@@QEAA?AV12@PEAVVOption@2@@Z@4HA 0000000180044bd8     VImage.obj
 0002:0000dbd8       $unwind$?dtor$0@?0??hist_equal@VImage@vips@@QEAA?AV12@PEAVVOption@2@@Z@4HA 0000000180044bd8     VImage.obj
 0002:0000dbd8       $unwind$?dtor$1@?0??dE00@VImage@vips@@QEAA?AV12@V12@PEAVVOption@2@@Z@4HA 0000000180044bd8     VImage.obj
 0002:0000dbd8       $unwind$?fin$0@?0???$?RV<lambda_e24bbb7b643b32fcea6fa61b31d4c984>@@AEAV<lambda_275893d493268fdec8709772e3fcec0e>@@V<lambda_9d71df4d7cf3f480f8d633942495c3b0>@@@?$__crt_seh_guarded_call@H@@QEAAH$$QEAV<lambda_e24bbb7b643b32fcea6fa61b31d4c984>@@AEAV<lambda_275893d493268fdec8709772e3fcec0e>@@$$QEAV<lambda_9d71df4d7cf3f480f8d633942495c3b0>@@@Z@4HA 0000000180044bd8     libucrt:onexit.obj
 0002:0000dbd8       $unwind$?dtor$1@?0??dECMC@VImage@vips@@QEAA?AV12@V12@PEAVVOption@2@@Z@4HA 0000000180044bd8     VImage.obj
 0002:0000dbd8       $unwind$?dtor$0@?0??text@VImage@vips@@SA?AV12@PEADPEAVVOption@2@@Z@4HA 0000000180044bd8     VImage.obj
 0002:0000dbd8       $unwind$common_flush_all$fin$0 0000000180044bd8     libucrt:fflush.obj
 0002:0000dbd8       $unwind$?dtor$0@?0??sRGB2scRGB@VImage@vips@@QEAA?AV12@PEAVVOption@2@@Z@4HA 0000000180044bd8     VImage.obj
 0002:0000dbd8       $unwind$?dtor$0@?0??hist_norm@VImage@vips@@QEAA?AV12@PEAVVOption@2@@Z@4HA 0000000180044bd8     VImage.obj
 0002:0000dbd8       $unwind$?fin$0@?0???$?RV<lambda_b8c45f8f788dd370798f47cfe8ac3a86>@@AEAV<lambda_4e60a939b0d047cfe11ddc22648dfba9>@@V<lambda_332c3edc96d0294ec56c57d38c1cdfd5>@@@?$__crt_seh_guarded_call@H@@QEAAH$$QEAV<lambda_b8c45f8f788dd370798f47cfe8ac3a86>@@AEAV<lambda_4e60a939b0d047cfe11ddc22648dfba9>@@$$QEAV<lambda_332c3edc96d0294ec56c57d38c1cdfd5>@@@Z@4HA 0000000180044bd8     libucrt:onexit.obj
 0002:0000dbd8       $unwind$?dtor$0@?0??scRGB2BW@VImage@vips@@QEAA?AV12@PEAVVOption@2@@Z@4HA 0000000180044bd8     VImage.obj
 0002:0000dbd8       $unwind$common_flush_all$fin$1 0000000180044bd8     libucrt:fflush.obj
 0002:0000dbd8       $unwind$?dtor$1@?0??hist_find_indexed@VImage@vips@@QEAA?AV12@V12@PEAVVOption@2@@Z@4HA 0000000180044bd8     VImage.obj
 0002:0000dbd8       $unwind$?dtor$0@?0??scRGB2sRGB@VImage@vips@@QEAA?AV12@PEAVVOption@2@@Z@4HA 0000000180044bd8     VImage.obj
 0002:0000dbd8       $unwind$fclose$fin$0       0000000180044bd8     libucrt:fclose.obj
 0002:0000dbd8       $unwind$?dtor$1@?0??hist_match@VImage@vips@@QEAA?AV12@V12@PEAVVOption@2@@Z@4HA 0000000180044bd8     VImage.obj
 0002:0000dbd8       $unwind$?dtor$1@?0??maplut@VImage@vips@@QEAA?AV12@V12@PEAVVOption@2@@Z@4HA 0000000180044bd8     VImage.obj
 0002:0000dbd8       $unwind$_fcloseall$fin$0   0000000180044bd8     libucrt:closeall.obj
 0002:0000dbd8       $unwind$?dtor$0@?0??stdif@VImage@vips@@QEAA?AV12@HHPEAVVOption@2@@Z@4HA 0000000180044bd8     VImage.obj
 0002:0000dbd8       $unwind$?dtor$1@?0??recomb@VImage@vips@@QEAA?AV12@V12@PEAVVOption@2@@Z@4HA 0000000180044bd8     VImage.obj
 0002:0000dbd8       $unwind$?dtor$0@?0??vipsload@VImage@vips@@SA?AV12@PEADPEAVVOption@2@@Z@4HA 0000000180044bd8     VImage.obj
 0002:0000dbd8       $unwind$?dtor$0@?0??hist_cum@VImage@vips@@QEAA?AV12@PEAVVOption@2@@Z@4HA 0000000180044bd8     VImage.obj
 0002:0000dbe0       $unwind$?new_temp_file@VImage@vips@@SA?AV12@PEBD@Z 0000000180044be0     VError.obj
 0002:0000dbf8       $stateUnwindMap$?new_matrix@VImage@vips@@SA?AV12@HHPEANH@Z 0000000180044bf8     VError.obj
 0002:0000dbf8       $stateUnwindMap$?new_temp_file@VImage@vips@@SA?AV12@PEBD@Z 0000000180044bf8     VError.obj
 0002:0000dbf8       $stateUnwindMap$?new_from_name@VInterpolate@vips@@SA?AV12@PEBDPEAVVOption@2@@Z 0000000180044bf8     VInterpolate.obj
 0002:0000dc00       $ip2state$?new_temp_file@VImage@vips@@SA?AV12@PEBD@Z 0000000180044c00     VError.obj
 0002:0000dc18       $unwind$?new_from_memory@VImage@vips@@SA?AV12@PEAX_KHHHW4VipsBandFormat@@@Z 0000000180044c18     VError.obj
 0002:0000dc38       $ip2state$?new_from_memory@VImage@vips@@SA?AV12@PEAX_KHHHW4VipsBandFormat@@@Z 0000000180044c38     VError.obj
 0002:0000dc50       $unwind$?new_matrix@VImage@vips@@SA?AV12@HHPEANH@Z 0000000180044c50     VError.obj
 0002:0000dc68       $ip2state$?new_matrix@VImage@vips@@SA?AV12@HHPEANH@Z 0000000180044c68     VError.obj
 0002:0000dc80       $unwind$?write_to_memory@VImage@vips@@QEAAPEAXPEA_K@Z 0000000180044c80     VError.obj
 0002:0000dc98       $stateUnwindMap$?write_to_memory@VImage@vips@@QEAAPEAXPEA_K@Z 0000000180044c98     VError.obj
 0002:0000dca0       $ip2state$?write_to_memory@VImage@vips@@QEAAPEAXPEA_K@Z 0000000180044ca0     VError.obj
 0002:0000dcb8       $unwind$?linear@VImage@vips@@QEAA?AV12@NNPEAVVOption@2@@Z 0000000180044cb8     VError.obj
 0002:0000dcd8       $stateUnwindMap$?ifthenelse@VImage@vips@@QEAA?AV12@NNPEAVVOption@2@@Z 0000000180044cd8     VError.obj
 0002:0000dcd8       $stateUnwindMap$?linear@VImage@vips@@QEAA?AV12@NNPEAVVOption@2@@Z 0000000180044cd8     VError.obj
 0002:0000dce0       $ip2state$?linear@VImage@vips@@QEAA?AV12@NNPEAVVOption@2@@Z 0000000180044ce0     VError.obj
 0002:0000dcf8       $unwind$?linear@VImage@vips@@QEAA?AV12@V?$vector@NV?$allocator@N@std@@@std@@NPEAVVOption@2@@Z 0000000180044cf8     VError.obj
 0002:0000dd18       $stateUnwindMap$?linear@VImage@vips@@QEAA?AV12@V?$vector@NV?$allocator@N@std@@@std@@NPEAVVOption@2@@Z 0000000180044d18     VError.obj
 0002:0000dd28       $ip2state$?linear@VImage@vips@@QEAA?AV12@V?$vector@NV?$allocator@N@std@@@std@@NPEAVVOption@2@@Z 0000000180044d28     VError.obj
 0002:0000dd50       $unwind$?linear@VImage@vips@@QEAA?AV12@NV?$vector@NV?$allocator@N@std@@@std@@PEAVVOption@2@@Z 0000000180044d50     VError.obj
 0002:0000dd78       $stateUnwindMap$?linear@VImage@vips@@QEAA?AV12@NV?$vector@NV?$allocator@N@std@@@std@@PEAVVOption@2@@Z 0000000180044d78     VError.obj
 0002:0000dd88       $ip2state$?linear@VImage@vips@@QEAA?AV12@NV?$vector@NV?$allocator@N@std@@@std@@PEAVVOption@2@@Z 0000000180044d88     VError.obj
 0002:0000ddb0       $unwind$?bandjoin@VImage@vips@@QEAA?AV12@NPEAVVOption@2@@Z 0000000180044db0     VError.obj
 0002:0000ddc0       $unwind$?bandjoin@VImage@vips@@QEAA?AV12@V?$vector@NV?$allocator@N@std@@@std@@PEAVVOption@2@@Z 0000000180044dc0     VError.obj
 0002:0000dde0       $stateUnwindMap$?bandjoin@VImage@vips@@QEAA?AV12@V?$vector@NV?$allocator@N@std@@@std@@PEAVVOption@2@@Z 0000000180044de0     VError.obj
 0002:0000dde8       $ip2state$?bandjoin@VImage@vips@@QEAA?AV12@V?$vector@NV?$allocator@N@std@@@std@@PEAVVOption@2@@Z 0000000180044de8     VError.obj
 0002:0000de00       $unwind$?dilate@VImage@vips@@QEAA?AV12@V12@PEAVVOption@2@@Z 0000000180044e00     VError.obj
 0002:0000de18       $stateUnwindMap$?erode@VImage@vips@@QEAA?AV12@V12@PEAVVOption@2@@Z 0000000180044e18     VError.obj
 0002:0000de18       $stateUnwindMap$?pow@VImage@vips@@QEAA?AV12@V12@PEAVVOption@2@@Z 0000000180044e18     VError.obj
 0002:0000de18       $stateUnwindMap$?wop@VImage@vips@@QEAA?AV12@V12@PEAVVOption@2@@Z 0000000180044e18     VError.obj
 0002:0000de18       $stateUnwindMap$?set@VOption@vips@@QEAAPEAV12@PEBDVVInterpolate@2@@Z 0000000180044e18     VInterpolate.obj
 0002:0000de18       $stateUnwindMap$?dilate@VImage@vips@@QEAA?AV12@V12@PEAVVOption@2@@Z 0000000180044e18     VError.obj
 0002:0000de18       $stateUnwindMap$?set@VOption@vips@@QEAAPEAV12@PEBDVVImage@2@@Z 0000000180044e18     VImage.obj
 0002:0000de20       $ip2state$?dilate@VImage@vips@@QEAA?AV12@V12@PEAVVOption@2@@Z 0000000180044e20     VError.obj
 0002:0000de38       $unwind$?erode@VImage@vips@@QEAA?AV12@V12@PEAVVOption@2@@Z 0000000180044e38     VError.obj
 0002:0000de50       $ip2state$?erode@VImage@vips@@QEAA?AV12@V12@PEAVVOption@2@@Z 0000000180044e50     VError.obj
 0002:0000de68       $unwind$_isleadbyte_l      0000000180044e68     libucrt:_wctype.obj
 0002:0000de68       $unwind$?median@VImage@vips@@QEAA?AV12@HPEAVVOption@2@@Z 0000000180044e68     VError.obj
 0002:0000de68       $unwind$?getSystemCP@@YAHH@Z 0000000180044e68     libucrt:mbctype.obj
 0002:0000de68       $unwind$??RVImage@vips@@QEAA?AV?$vector@NV?$allocator@N@std@@@std@@HH@Z 0000000180044e68     VImage.obj
 0002:0000de70       $unwind$?pow@VImage@vips@@QEAA?AV12@V12@PEAVVOption@2@@Z 0000000180044e70     VError.obj
 0002:0000de88       $ip2state$?pow@VImage@vips@@QEAA?AV12@V12@PEAVVOption@2@@Z 0000000180044e88     VError.obj
 0002:0000dea0       $unwind$?wop@VImage@vips@@QEAA?AV12@NPEAVVOption@2@@Z 0000000180044ea0     VError.obj
 0002:0000dea0       $unwind$?pow@VImage@vips@@QEAA?AV12@NPEAVVOption@2@@Z 0000000180044ea0     VError.obj
 0002:0000deb0       $unwind$?pow@VImage@vips@@QEAA?AV12@V?$vector@NV?$allocator@N@std@@@std@@PEAVVOption@2@@Z 0000000180044eb0     VError.obj
 0002:0000ded0       $stateUnwindMap$?wop@VImage@vips@@QEAA?AV12@V?$vector@NV?$allocator@N@std@@@std@@PEAVVOption@2@@Z 0000000180044ed0     VError.obj
 0002:0000ded0       $stateUnwindMap$?pow@VImage@vips@@QEAA?AV12@V?$vector@NV?$allocator@N@std@@@std@@PEAVVOption@2@@Z 0000000180044ed0     VError.obj
 0002:0000ded8       $ip2state$?pow@VImage@vips@@QEAA?AV12@V?$vector@NV?$allocator@N@std@@@std@@PEAVVOption@2@@Z 0000000180044ed8     VError.obj
 0002:0000def0       $unwind$?wop@VImage@vips@@QEAA?AV12@V12@PEAVVOption@2@@Z 0000000180044ef0     VError.obj
 0002:0000df08       $ip2state$?wop@VImage@vips@@QEAA?AV12@V12@PEAVVOption@2@@Z 0000000180044f08     VError.obj
 0002:0000df20       $unwind$?wop@VImage@vips@@QEAA?AV12@V?$vector@NV?$allocator@N@std@@@std@@PEAVVOption@2@@Z 0000000180044f20     VError.obj
 0002:0000df40       $ip2state$?wop@VImage@vips@@QEAA?AV12@V?$vector@NV?$allocator@N@std@@@std@@PEAVVOption@2@@Z 0000000180044f40     VError.obj
 0002:0000df58       $unwind$?ifthenelse@VImage@vips@@QEAA?AV12@V?$vector@NV?$allocator@N@std@@@std@@V12@PEAVVOption@2@@Z 0000000180044f58     VError.obj
 0002:0000df78       $stateUnwindMap$?ifthenelse@VImage@vips@@QEAA?AV12@V?$vector@NV?$allocator@N@std@@@std@@V12@PEAVVOption@2@@Z 0000000180044f78     VError.obj
 0002:0000df90       $ip2state$?ifthenelse@VImage@vips@@QEAA?AV12@V?$vector@NV?$allocator@N@std@@@std@@V12@PEAVVOption@2@@Z 0000000180044f90     VError.obj
 0002:0000dfc0       $unwind$?ifthenelse@VImage@vips@@QEAA?AV12@V12@V?$vector@NV?$allocator@N@std@@@std@@PEAVVOption@2@@Z 0000000180044fc0     VError.obj
 0002:0000dfe0       $stateUnwindMap$?ifthenelse@VImage@vips@@QEAA?AV12@V12@V?$vector@NV?$allocator@N@std@@@std@@PEAVVOption@2@@Z 0000000180044fe0     VError.obj
 0002:0000dff0       $ip2state$?ifthenelse@VImage@vips@@QEAA?AV12@V12@V?$vector@NV?$allocator@N@std@@@std@@PEAVVOption@2@@Z 0000000180044ff0     VError.obj
 0002:0000e010       $unwind$?ifthenelse@VImage@vips@@QEAA?AV12@V?$vector@NV?$allocator@N@std@@@std@@0PEAVVOption@2@@Z 0000000180045010     VError.obj
 0002:0000e034       $stateUnwindMap$?ifthenelse@VImage@vips@@QEAA?AV12@V?$vector@NV?$allocator@N@std@@@std@@0PEAVVOption@2@@Z 0000000180045034     VError.obj
 0002:0000e050       $ip2state$?ifthenelse@VImage@vips@@QEAA?AV12@V?$vector@NV?$allocator@N@std@@@std@@0PEAVVOption@2@@Z 0000000180045050     VError.obj
 0002:0000e080       $unwind$?ifthenelse@VImage@vips@@QEAA?AV12@NV12@PEAVVOption@2@@Z 0000000180045080     VError.obj
 0002:0000e09c       $stateUnwindMap$?ifthenelse@VImage@vips@@QEAA?AV12@NV12@PEAVVOption@2@@Z 000000018004509c     VError.obj
 0002:0000e0b0       $ip2state$?ifthenelse@VImage@vips@@QEAA?AV12@NV12@PEAVVOption@2@@Z 00000001800450b0     VError.obj
 0002:0000e0d8       $unwind$?ifthenelse@VImage@vips@@QEAA?AV12@V12@NPEAVVOption@2@@Z 00000001800450d8     VError.obj
 0002:0000e0f0       $stateUnwindMap$?ifthenelse@VImage@vips@@QEAA?AV12@V12@NPEAVVOption@2@@Z 00000001800450f0     VError.obj
 0002:0000e0f8       $ip2state$?ifthenelse@VImage@vips@@QEAA?AV12@V12@NPEAVVOption@2@@Z 00000001800450f8     VError.obj
 0002:0000e110       $unwind$?ifthenelse@VImage@vips@@QEAA?AV12@NNPEAVVOption@2@@Z 0000000180045110     VError.obj
 0002:0000e130       $ip2state$?ifthenelse@VImage@vips@@QEAA?AV12@NNPEAVVOption@2@@Z 0000000180045130     VError.obj
 0002:0000e148       $unwind$??0?$list@PEAUPair@VOption@vips@@V?$allocator@PEAUPair@VOption@vips@@@std@@@std@@QEAA@AEBV01@@Z 0000000180045148     VError.obj
 0002:0000e164       $stateUnwindMap$??0?$list@PEAUPair@VOption@vips@@V?$allocator@PEAUPair@VOption@vips@@@std@@@std@@QEAA@AEBV01@@Z 0000000180045164     VError.obj
 0002:0000e170       $ip2state$??0?$list@PEAUPair@VOption@vips@@V?$allocator@PEAUPair@VOption@vips@@@std@@@std@@QEAA@AEBV01@@Z 0000000180045170     VError.obj
 0002:0000e188       $unwind$_exception_enabled 0000000180045188     libucrt:libm_error.obj
 0002:0000e188       $unwind$_RTC_Terminate     0000000180045188     LIBCMT:_initsect_.obj
 0002:0000e188       $unwind$_initterm_e        0000000180045188     libucrt:initterm.obj
 0002:0000e188       $unwind$_RTC_Initialize    0000000180045188     LIBCMT:_initsect_.obj
 0002:0000e188       $unwind$?__scrt_initialize_thread_safe_statics@@YAHXZ 0000000180045188     LIBCMT:thread_safe_statics.obj
 0002:0000e188       $unwind$__acrt_execute_uninitializers 0000000180045188     libucrt:shared_initialization.obj
 0002:0000e188       $unwind$__vcrt_FlsSetValue 0000000180045188     libvcruntime:winapi_downlevel.obj
 0002:0000e188       $unwind$_Init_thread_wait  0000000180045188     LIBCMT:thread_safe_statics.obj
 0002:0000e188       $unwind$??R<lambda_ad1ced32f4ac17aa236e5ef05d6b3b7c>@@QEBAXXZ 0000000180045188     libucrt:mbctype.obj
 0002:0000e188       $unwind$?free_crt_array_internal@@YAXQEAPEBX_K@Z 0000000180045188     libucrt:inittime.obj
 0002:0000e188       $unwind$_DllMainCRTStartup 0000000180045188     LIBCMT:dll_dllmain.obj
 0002:0000e188       $unwind$__acrt_getptd_noexit 0000000180045188     libucrt:per_thread_data.obj
 0002:0000e188       $unwind$?assign@?$basic_string@DU?$char_traits@D@std@@V?$allocator@D@2@@std@@QEAAAEAV12@PEBD_K@Z 0000000180045188     VError.obj
 0002:0000e188       $unwind$__acrt_LocaleNameToLCID 0000000180045188     libucrt:winapi_thunks.obj
 0002:0000e188       $unwind$__acrt_stdio_flush_nolock 0000000180045188     libucrt:fflush.obj
 0002:0000e188       $unwind$__vcrt_getptd_noexit 0000000180045188     libvcruntime:per_thread_data.obj
 0002:0000e188       $unwind$??$common_lseek_nolock@_J@@YA_JH_JH@Z 0000000180045188     libucrt:lseek.obj
 0002:0000e188       $unwind$__acrt_FlsSetValue 0000000180045188     libucrt:winapi_thunks.obj
 0002:0000e198       $unwind$__std_exception_copy 0000000180045198     libvcruntime:std_exception.obj
 0002:0000e198       $unwind$?initialize_stdio_handles_nolock@@YAXXZ 0000000180045198     libucrt:ioinit.obj
 0002:0000e198       $unwind$??$_Insert@AEBQEAUPair@VOption@vips@@@?$list@PEAUPair@VOption@vips@@V?$allocator@PEAUPair@VOption@vips@@@std@@@std@@QEAAXV?$_List_unchecked_const_iterator@V?$_List_val@U?$_List_simple_types@PEAUPair@VOption@vips@@@std@@@std@@U_Iterator_base0@2@@1@AEBQEAUPair@VOption@vips@@@Z 0000000180045198     VError.obj
 0002:0000e198       $unwind$_free_osfhnd       0000000180045198     libucrt:osfinfo.obj
 0002:0000e198       $unwind$?assign@?$basic_string@DU?$char_traits@D@std@@V?$allocator@D@2@@std@@QEAAAEAV12@AEBV12@_K1@Z 0000000180045198     VError.obj
 0002:0000e1ac       $unwind$?append@?$basic_string@DU?$char_traits@D@std@@V?$allocator@D@2@@std@@QEAAAEAV12@PEBD_K@Z 00000001800451ac     VError.obj
 0002:0000e1bc       $chain$0$?append@?$basic_string@DU?$char_traits@D@std@@V?$allocator@D@2@@std@@QEAAAEAV12@PEBD_K@Z 00000001800451bc     VError.obj
 0002:0000e1d0       $chain$1$?append@?$basic_string@DU?$char_traits@D@std@@V?$allocator@D@2@@std@@QEAAAEAV12@PEBD_K@Z 00000001800451d0     VError.obj
 0002:0000e1e0       $chain$2$?append@?$basic_string@DU?$char_traits@D@std@@V?$allocator@D@2@@std@@QEAAAEAV12@PEBD_K@Z 00000001800451e0     VError.obj
 0002:0000e1f4       $unwind$?append@?$basic_string@DU?$char_traits@D@std@@V?$allocator@D@2@@std@@QEAAAEAV12@AEBV12@_K1@Z 00000001800451f4     VError.obj
 0002:0000e208       $chain$0$?append@?$basic_string@DU?$char_traits@D@std@@V?$allocator@D@2@@std@@QEAAAEAV12@AEBV12@_K1@Z 0000000180045208     VError.obj
 0002:0000e21c       $chain$1$?append@?$basic_string@DU?$char_traits@D@std@@V?$allocator@D@2@@std@@QEAAAEAV12@AEBV12@_K1@Z 000000018004521c     VError.obj
 0002:0000e22c       $chain$2$?append@?$basic_string@DU?$char_traits@D@std@@V?$allocator@D@2@@std@@QEAAAEAV12@AEBV12@_K1@Z 000000018004522c     VError.obj
 0002:0000e240       $unwind$__acrt_uninitialize_ptd 0000000180045240     libucrt:per_thread_data.obj
 0002:0000e240       $unwind$__acrt_initialize_ptd 0000000180045240     libucrt:per_thread_data.obj
 0002:0000e240       $unwind$?deallocate@?$_Wrap_alloc@V?$allocator@VVImage@vips@@@std@@@std@@QEAAXPEAVVImage@vips@@_K@Z 0000000180045240     VImage.obj
 0002:0000e240       $unwind$?dllmain_crt_dispatch@@YAHQEAUHINSTANCE__@@KQEAX@Z 0000000180045240     LIBCMT:dll_dllmain.obj
 0002:0000e240       $unwind$_errno             0000000180045240     libucrt:errno.obj
 0002:0000e240       $unwind$?deallocate@?$_Wrap_alloc@V?$allocator@N@std@@@std@@QEAAXPEAN_K@Z 0000000180045240     VError.obj
 0002:0000e240       $unwind$__acrt_DownlevelLocaleNameToLCID 0000000180045240     libucrt:lcidtoname_downlevel.obj
 0002:0000e240       $unwind$__doserrno         0000000180045240     libucrt:errno.obj
 0002:0000e240       $unwind$__acrt_initialize_command_line 0000000180045240     libucrt:argv_data.obj
 0002:0000e240       $unwind$_get_osfhandle     0000000180045240     libucrt:osfinfo.obj
 0002:0000e240       $unwind$?allocate@?$_Wrap_alloc@V?$allocator@N@std@@@std@@QEAAPEAN_K@Z 0000000180045240     VError.obj
 0002:0000e240       $unwind$__FrameUnwindFilter 0000000180045240     libvcruntime:frame.obj
 0002:0000e240       $unwind$__dcrt_uninitialize_environments_nolock 0000000180045240     libucrt:environment_initialization.obj
 0002:0000e240       $unwind$__vcrt_freefls     0000000180045240     libvcruntime:per_thread_data.obj
 0002:0000e240       $unwind$__vcrt_getptd      0000000180045240     libvcruntime:per_thread_data.obj
 0002:0000e240       $unwind$?__GetCurrentState@@YAHPEA_KPEAU_xDISPATCHER_CONTEXT@@PEBU_s_FuncInfo@@@Z 0000000180045240     libvcruntime:ehstate.obj
 0002:0000e240       $unwind$__vcrt_uninitialize 0000000180045240     libvcruntime:initialization.obj
 0002:0000e240       $unwind$__vcrt_uninitialize_critical 0000000180045240     libvcruntime:initialization.obj
 0002:0000e240       $unwind$_statfp            0000000180045240     libucrt:fpctrl.obj
 0002:0000e240       $unwind$abort              0000000180045240     libucrt:abort.obj
 0002:0000e240       $unwind$uninitialize_environment 0000000180045240     libucrt:initialization.obj
 0002:0000e240       $unwind$__acrt_release_locale_ref 0000000180045240     libucrt:locale_refcounting.obj
 0002:0000e240       $unwind$__dcrt_terminate_console_output 0000000180045240     libucrt:initcon.obj
 0002:0000e240       $unwind$__vcrt_initialize  0000000180045240     libvcruntime:initialization.obj
 0002:0000e240       $unwind$__vcrt_thread_attach 0000000180045240     libvcruntime:initialization.obj
 0002:0000e240       $unwind$??$uninitialize_environment_internal@D@@YAXAEAPEAPEAD@Z 0000000180045240     libucrt:environment_initialization.obj
 0002:0000e240       $unwind$??$_Immortalize@V_Iostream_error_category@std@@@std@@YAAEAV_Iostream_error_category@0@XZ 0000000180045240     VError.obj
 0002:0000e240       $unwind$?initialize_multibyte@@YAHXZ 0000000180045240     libucrt:multibyte_initializer.obj
 0002:0000e240       $unwind$_GetImageBase      0000000180045240     libvcruntime:trnsctrl.obj
 0002:0000e240       $unwind$__scrt_initialize_default_local_stdio_options 0000000180045240     LIBCMT:default_local_stdio_options.obj
 0002:0000e240       $unwind$_set_errno_from_matherr 0000000180045240     libucrt:fpexcept.obj
 0002:0000e240       $unwind$__acrt_initialize_heap 0000000180045240     libucrt:heap_handle.obj
 0002:0000e240       $unwind$??$uninitialize_environment_internal@_W@@YAXAEAPEAPEA_W@Z 0000000180045240     libucrt:environment_initialization.obj
 0002:0000e240       $unwind$__report_rangecheckfailure 0000000180045240     LIBCMT:gs_report.obj
 0002:0000e240       $unwind$initialize_c       0000000180045240     libucrt:initialization.obj
 0002:0000e240       $unwind$_GetThrowImageBase 0000000180045240     libvcruntime:trnsctrl.obj
 0002:0000e240       $unwind$__vcrt_uninitialize_ptd 0000000180045240     libvcruntime:per_thread_data.obj
 0002:0000e240       $unwind$__scrt_dllmain_crt_thread_detach 0000000180045240     LIBCMT:utility.obj
 0002:0000e240       $unwind$__scrt_dllmain_crt_thread_attach 0000000180045240     LIBCMT:utility.obj
 0002:0000e240       $unwind$_fileno            0000000180045240     libucrt:fileno.obj
 0002:0000e240       $unwind$__scrt_dllmain_uninitialize_critical 0000000180045240     LIBCMT:utility.obj
 0002:0000e240       $unwind$_msize             0000000180045240     libucrt:msize.obj
 0002:0000e240       $unwind$__scrt_dllmain_uninitialize_c 0000000180045240     LIBCMT:utility.obj
 0002:0000e240       $unwind$?__scrt_uninitialize_thread_safe_statics@@YAXXZ 0000000180045240     LIBCMT:thread_safe_statics.obj
 0002:0000e240       $unwind$__scrt_dllmain_after_initialize_c 0000000180045240     LIBCMT:utility.obj
 0002:0000e240       $unwind$__acrt_thread_detach 0000000180045240     libucrt:initialization.obj
 0002:0000e240       $unwind$__GSHandlerCheck   0000000180045240     LIBCMT:_gshandler_.obj
 0002:0000e240       $unwind$atexit             0000000180045240     LIBCMT:utility.obj
 0002:0000e240       $unwind$__acrt_initialize_multibyte 0000000180045240     libucrt:mbctype.obj
 0002:0000e240       $unwind$__acrt_thread_attach 0000000180045240     libucrt:initialization.obj
 0002:0000e240       $unwind$__vcrt_initialize_ptd 0000000180045240     libvcruntime:per_thread_data.obj
 0002:0000e240       $unwind$__scrt_dllmain_before_initialize_c 0000000180045240     LIBCMT:utility.obj
 0002:0000e240       $unwind$__acrt_uninitialize_critical 0000000180045240     libucrt:initialization.obj
 0002:0000e240       $unwind$?allocate@?$_Wrap_alloc@V?$allocator@VVImage@vips@@@std@@@std@@QEAAPEAVVImage@vips@@_K@Z 0000000180045240     VImage.obj
 0002:0000e240       $unwind$_isatty            0000000180045240     libucrt:isatty.obj
 0002:0000e240       $unwind$__vcrt_thread_detach 0000000180045240     libvcruntime:initialization.obj
 0002:0000e240       $unwind$__pctype_func      0000000180045240     libucrt:ctype.obj
 0002:0000e240       $unwind$__scrt_acquire_startup_lock 0000000180045240     LIBCMT:utility.obj
 0002:0000e240       $unwind$_invoke_watson     0000000180045240     libucrt:invalid_parameter.obj
 0002:0000e248       $unwind$??_Gout_of_range@std@@UEAAPEAXI@Z 0000000180045248     libcpmt:xthrow.obj
 0002:0000e248       $unwind$__acrt_FlsAlloc    0000000180045248     libucrt:winapi_thunks.obj
 0002:0000e248       $unwind$__acrt_FlsFree     0000000180045248     libucrt:winapi_thunks.obj
 0002:0000e248       $unwind$__acrt_FlsGetValue 0000000180045248     libucrt:winapi_thunks.obj
 0002:0000e248       $unwind$_fclose_nolock     0000000180045248     libucrt:fclose.obj
 0002:0000e248       $unwind$??_Gbad_alloc@std@@UEAAPEAXI@Z 0000000180045248     libcpmt:xthrow.obj
 0002:0000e248       $unwind$?resize@?$vector@NV?$allocator@N@std@@@std@@QEAAX_K@Z 0000000180045248     VImage.obj
 0002:0000e248       $unwind$?try_cor_exit_process@@YAXI@Z 0000000180045248     libucrt:exit.obj
 0002:0000e248       $unwind$??0_LocaleUpdate@@QEAA@QEAU__crt_locale_pointers@@@Z 0000000180045248     libucrt:stricmp.obj
 0002:0000e248       $unwind$strncpy_s          0000000180045248     libucrt:strncpy_s.obj
 0002:0000e248       $unwind$_FindAndUnlinkFrame 0000000180045248     libvcruntime:trnsctrl.obj
 0002:0000e248       $unwind$??1sentry@?$basic_ostream@DU?$char_traits@D@std@@@std@@QEAA@XZ 0000000180045248     VError.obj
 0002:0000e248       $unwind$??0?$vector@NV?$allocator@N@std@@@std@@QEAA@_K@Z 0000000180045248     VImage.obj
 0002:0000e248       $unwind$_callnewh          0000000180045248     libucrt:new_handler.obj
 0002:0000e248       $unwind$?__SetUnwindTryBlock@@YAXPEA_KPEAU_xDISPATCHER_CONTEXT@@PEBU_s_FuncInfo@@H@Z 0000000180045248     libvcruntime:ehstate.obj
 0002:0000e248       $unwind$?ExFilterRethrow@@YAHPEAU_EXCEPTION_POINTERS@@PEAUEHExceptionRecord@@PEAH@Z 0000000180045248     libvcruntime:frame.obj
 0002:0000e248       $unwind$__acrt_uninitialize_lowio 0000000180045248     libucrt:ioinit.obj
 0002:0000e248       $unwind$??_Gbad_array_new_length@std@@UEAAPEAXI@Z 0000000180045248     LIBCMT:throw_bad_alloc.obj
 0002:0000e248       $unwind$??_Gbad_exception@std@@UEAAPEAXI@Z 0000000180045248     libvcruntime:frame.obj
 0002:0000e248       $unwind$??_Glogic_error@std@@UEAAPEAXI@Z 0000000180045248     libcpmt:xthrow.obj
 0002:0000e248       $unwind$__acrt_errno_map_os_error 0000000180045248     libucrt:errno.obj
 0002:0000e248       $unwind$?erase@?$basic_string@DU?$char_traits@D@std@@V?$allocator@D@2@@std@@QEAAAEAV12@_K0@Z 0000000180045248     VError.obj
 0002:0000e248       $unwind$__acrt_getptd      0000000180045248     libucrt:per_thread_data.obj
 0002:0000e248       $unwind$??$common_initialize_environment_nolock@D@@YAHXZ 0000000180045248     libucrt:environment_initialization.obj
 0002:0000e248       $unwind$??_Glength_error@std@@UEAAPEAXI@Z 0000000180045248     libcpmt:xthrow.obj
 0002:0000e248       $unwind$??_Gexception@std@@UEAAPEAXI@Z 0000000180045248     libcpmt:xthrow.obj
 0002:0000e248       $unwind$_updatetlocinfoEx_nolock 0000000180045248     libucrt:locale_refcounting.obj
 0002:0000e248       $unwind$__vcrt_FlsAlloc    0000000180045248     libvcruntime:winapi_downlevel.obj
 0002:0000e248       $unwind$_realloc_base      0000000180045248     libucrt:realloc_base.obj
 0002:0000e248       $unwind$?replace_current_thread_locale_nolock@@YAXQEAU__acrt_ptd@@QEAU__crt_locale_data@@@Z 0000000180045248     libucrt:per_thread_data.obj
 0002:0000e248       $unwind$__vcrt_FlsFree     0000000180045248     libvcruntime:winapi_downlevel.obj
 0002:0000e248       $unwind$__acrt_invoke_user_matherr 0000000180045248     libucrt:matherr.obj
 0002:0000e248       $unwind$__vcrt_FlsGetValue 0000000180045248     libvcruntime:winapi_downlevel.obj
 0002:0000e248       $unwind$_close_nolock      0000000180045248     libucrt:close.obj
 0002:0000e254       $unwind$?_Copy@?$basic_string@DU?$char_traits@D@std@@V?$allocator@D@2@@std@@QEAAX_K0@Z 0000000180045254     VError.obj
 0002:0000e268       $unwind$??$?6DU?$char_traits@D@std@@V?$allocator@D@1@@std@@YAAEAV?$basic_ostream@DU?$char_traits@D@std@@@0@AEAV10@AEBV?$basic_string@DU?$char_traits@D@std@@V?$allocator@D@2@@0@@Z 0000000180045268     VError.obj
 0002:0000e288       $stateUnwindMap$??$?6DU?$char_traits@D@std@@V?$allocator@D@1@@std@@YAAEAV?$basic_ostream@DU?$char_traits@D@std@@@0@AEAV10@AEBV?$basic_string@DU?$char_traits@D@std@@V?$allocator@D@2@@0@@Z 0000000180045288     VError.obj
 0002:0000e298       $ip2state$??$?6DU?$char_traits@D@std@@V?$allocator@D@1@@std@@YAAEAV?$basic_ostream@DU?$char_traits@D@std@@@0@AEAV10@AEBV?$basic_string@DU?$char_traits@D@std@@V?$allocator@D@2@@0@@Z 0000000180045298     VError.obj
 0002:0000e2b8       $unwind$??$assign@V?$_List_const_iterator@V?$_List_val@U?$_List_simple_types@PEAUPair@VOption@vips@@@std@@@std@@@std@@@?$list@PEAUPair@VOption@vips@@V?$allocator@PEAUPair@VOption@vips@@@std@@@std@@QEAAXV?$_List_const_iterator@V?$_List_val@U?$_List_simple_types@PEAUPair@VOption@vips@@@std@@@std@@@1@0@Z 00000001800452b8     VError.obj
 0002:0000e2c8       $unwind$??0sentry@?$basic_ostream@DU?$char_traits@D@std@@@std@@QEAA@AEAV12@@Z 00000001800452c8     VError.obj
 0002:0000e2dc       $stateUnwindMap$??0sentry@?$basic_ostream@DU?$char_traits@D@std@@@std@@QEAA@AEAV12@@Z 00000001800452dc     VError.obj
 0002:0000e2e8       $ip2state$??0sentry@?$basic_ostream@DU?$char_traits@D@std@@@std@@QEAA@AEAV12@@Z 00000001800452e8     VError.obj
 0002:0000e300       $unwind$?flush@?$basic_ostream@DU?$char_traits@D@std@@@std@@QEAAAEAV12@XZ 0000000180045300     VError.obj
 0002:0000e314       $stateUnwindMap$?flush@?$basic_ostream@DU?$char_traits@D@std@@@std@@QEAAAEAV12@XZ 0000000180045314     VError.obj
 0002:0000e320       $ip2state$?flush@?$basic_ostream@DU?$char_traits@D@std@@@std@@QEAAAEAV12@XZ 0000000180045320     VError.obj
 0002:0000e338       $unwind$?new_from_name@VInterpolate@vips@@SA?AV12@PEBDPEAVVOption@2@@Z 0000000180045338     VInterpolate.obj
 0002:0000e358       $ip2state$?new_from_name@VInterpolate@vips@@SA?AV12@PEBDPEAVVOption@2@@Z 0000000180045358     VInterpolate.obj
 0002:0000e370       $unwind$?set@VOption@vips@@QEAAPEAV12@PEBDVVInterpolate@2@@Z 0000000180045370     VInterpolate.obj
 0002:0000e388       $ip2state$?set@VOption@vips@@QEAAPEAV12@PEBDVVInterpolate@2@@Z 0000000180045388     VInterpolate.obj
 0002:0000e3a0       $unwind$?to_vectorv@vips@@YA?AV?$vector@NV?$allocator@N@std@@@std@@HZZ 00000001800453a0     VImage.obj
 0002:0000e3ac       $unwind$?to_vector@vips@@YA?AV?$vector@NV?$allocator@N@std@@@std@@HQEAN@Z 00000001800453ac     VImage.obj
 0002:0000e3c0       $chain$0$?to_vector@vips@@YA?AV?$vector@NV?$allocator@N@std@@@std@@HQEAN@Z 00000001800453c0     VImage.obj
 0002:0000e3d4       $chain$1$?to_vector@vips@@YA?AV?$vector@NV?$allocator@N@std@@@std@@HQEAN@Z 00000001800453d4     VImage.obj
 0002:0000e3e4       $unwind$?negate@vips@@YA?AV?$vector@NV?$allocator@N@std@@@std@@V23@@Z 00000001800453e4     VImage.obj
 0002:0000e3fc       $stateUnwindMap$?negate@vips@@YA?AV?$vector@NV?$allocator@N@std@@@std@@V23@@Z 00000001800453fc     VImage.obj
 0002:0000e3fc       $stateUnwindMap$?invert@vips@@YA?AV?$vector@NV?$allocator@N@std@@@std@@V23@@Z 00000001800453fc     VImage.obj
 0002:0000e408       $ip2state$?negate@vips@@YA?AV?$vector@NV?$allocator@N@std@@@std@@V23@@Z 0000000180045408     VImage.obj
 0002:0000e420       $unwind$?invert@vips@@YA?AV?$vector@NV?$allocator@N@std@@@std@@V23@@Z 0000000180045420     VImage.obj
 0002:0000e438       $ip2state$?invert@vips@@YA?AV?$vector@NV?$allocator@N@std@@@std@@V23@@Z 0000000180045438     VImage.obj
 0002:0000e450       $chain$0$??1VOption@vips@@UEAA@XZ 0000000180045450     VImage.obj
 0002:0000e464       $chain$1$??1VOption@vips@@UEAA@XZ 0000000180045464     VImage.obj
 0002:0000e474       $unwind$?set@VOption@vips@@QEAAPEAV12@PEBDPEAH@Z 0000000180045474     VImage.obj
 0002:0000e474       $unwind$?set@VOption@vips@@QEAAPEAV12@PEBD0@Z 0000000180045474     VImage.obj
 0002:0000e474       $unwind$?set@VOption@vips@@QEAAPEAV12@PEBDPEAVVImage@2@@Z 0000000180045474     VImage.obj
 0002:0000e474       $unwind$?set@VOption@vips@@QEAAPEAV12@PEBDPEAU_VipsBlob@@@Z 0000000180045474     VImage.obj
 0002:0000e474       $unwind$?set@VOption@vips@@QEAAPEAV12@PEBDPEAPEAU_VipsBlob@@@Z 0000000180045474     VImage.obj
 0002:0000e474       $unwind$?set@VOption@vips@@QEAAPEAV12@PEBD_N@Z 0000000180045474     VImage.obj
 0002:0000e474       $unwind$?set@VOption@vips@@QEAAPEAV12@PEBDH@Z 0000000180045474     VImage.obj
 0002:0000e474       $unwind$?set@VOption@vips@@QEAAPEAV12@PEBDPEAN@Z 0000000180045474     VImage.obj
 0002:0000e474       $unwind$?set@VOption@vips@@QEAAPEAV12@PEBDPEA_N@Z 0000000180045474     VImage.obj
 0002:0000e474       $unwind$?_Reallocate@?$vector@NV?$allocator@N@std@@@std@@IEAAX_K@Z 0000000180045474     VImage.obj
 0002:0000e474       $unwind$?set@VOption@vips@@QEAAPEAV12@PEBDPEAV?$vector@NV?$allocator@N@std@@@std@@@Z 0000000180045474     VImage.obj
 0002:0000e484       $unwind$?set@VOption@vips@@QEAAPEAV12@PEBDN@Z 0000000180045484     VImage.obj
 0002:0000e494       $unwind$?set@VOption@vips@@QEAAPEAV12@PEBDVVImage@2@@Z 0000000180045494     VImage.obj
 0002:0000e4b0       $ip2state$?set@VOption@vips@@QEAAPEAV12@PEBDVVImage@2@@Z 00000001800454b0     VImage.obj
 0002:0000e4c8       $unwind$?set@VOption@vips@@QEAAPEAV12@PEBDV?$vector@NV?$allocator@N@std@@@std@@@Z 00000001800454c8     VImage.obj
 0002:0000e4e0       $stateUnwindMap$?set@VOption@vips@@QEAAPEAV12@PEBDV?$vector@NV?$allocator@N@std@@@std@@@Z 00000001800454e0     VImage.obj
 0002:0000e4e8       $ip2state$?set@VOption@vips@@QEAAPEAV12@PEBDV?$vector@NV?$allocator@N@std@@@std@@@Z 00000001800454e8     VImage.obj
 0002:0000e500       $unwind$?set@VOption@vips@@QEAAPEAV12@PEBDV?$vector@VVImage@vips@@V?$allocator@VVImage@vips@@@std@@@std@@@Z 0000000180045500     VImage.obj
 0002:0000e520       $stateUnwindMap$?set@VOption@vips@@QEAAPEAV12@PEBDV?$vector@VVImage@vips@@V?$allocator@VVImage@vips@@@std@@@std@@@Z 0000000180045520     VImage.obj
